EXPORTS 
	?$TSS0@?1??curl_easy_init_mutex_@CurlHolder@cpr@@CAAEAVmutex@std@@XZ@4HA 	 DATA
	??_R0?AV?$StringHolder@VUrl@cpr@@@cpr@@@8 	 DATA
	??_R0?AV?$_Associated_state@VResponse@cpr@@@std@@@8 	 DATA
	??_R0?AV?$_Func_base@VResponse@cpr@@$$V@std@@@8 	 DATA
	??_R0?AV?$_Func_base@VResponse@cpr@@AEAVSession@2@W4CURLcode@@@std@@@8 	 DATA
	??_R0?AV?$_Func_base@X$$V@std@@@8 	 DATA
	??_R0?AV?$_Iosb@H@std@@@8 	 DATA
	??_R0?AV?$_Packaged_state@$$A6A?AVResponse@cpr@@XZ@std@@@8 	 DATA
	??_R0?AV?$_Ref_count@UCurlHolder@cpr@@@std@@@8 	 DATA
	??_R0?AV?$_Ref_count@Vthread@std@@@std@@@8 	 DATA
	??_R0?AV?$_Ref_count_obj2@V?$packaged_task@$$A6A?AVResponse@cpr@@XZ@std@@@std@@@8 	 DATA
	??_R0?AV?$basic_ios@DU?$char_traits@D@std@@@std@@@8 	 DATA
	??_R0?AV?$basic_iostream@DU?$char_traits@D@std@@@std@@@8 	 DATA
	??_R0?AV?$basic_istream@DU?$char_traits@D@std@@@std@@@8 	 DATA
	??_R0?AV?$basic_istringstream@DU?$char_traits@D@std@@V?$allocator@D@2@@std@@@8 	 DATA
	??_R0?AV?$basic_ostream@DU?$char_traits@D@std@@@std@@@8 	 DATA
	??_R0?AV?$basic_streambuf@DU?$char_traits@D@std@@@std@@@8 	 DATA
	??_R0?AV?$basic_stringbuf@DU?$char_traits@D@std@@V?$allocator@D@2@@std@@@8 	 DATA
	??_R0?AV?$basic_stringstream@DU?$char_traits@D@std@@V?$allocator@D@2@@std@@@8 	 DATA
	??_R0?AVBearer@cpr@@@8 	 DATA
	??_R0?AVEncodedAuthentication@cpr@@@8 	 DATA
	??_R0?AVGlobalThreadPool@cpr@@@8 	 DATA
	??_R0?AVThreadPool@cpr@@@8 	 DATA
	??_R0?AVUrl@cpr@@@8 	 DATA
	??_R0?AV_Future_error_category2@std@@@8 	 DATA
	??_R0?AV_Ref_count_base@std@@@8 	 DATA
	??_R0?AVbad_alloc@std@@@8 	 DATA
	??_R0?AVbad_array_new_length@std@@@8 	 DATA
	??_R0?AVbad_cast@std@@@8 	 DATA
	??_R0?AVbad_weak_ptr@std@@@8 	 DATA
	??_R0?AVerror_category@std@@@8 	 DATA
	??_R0?AVexception@std@@@8 	 DATA
	??_R0?AVfuture_error@std@@@8 	 DATA
	??_R0?AVinvalid_argument@std@@@8 	 DATA
	??_R0?AVios_base@std@@@8 	 DATA
	??_R0?AVlogic_error@std@@@8 	 DATA
	??_R0?AVoverflow_error@std@@@8 	 DATA
	??_R0?AVruntime_error@std@@@8 	 DATA
	??_R0?AVunderflow_error@std@@@8 	 DATA
	?_Psave@?$_Facetptr@V?$time_put@DV?$ostreambuf_iterator@DU?$char_traits@D@std@@@std@@@std@@@std@@2PEBVfacet@locale@2@EB 	 DATA
	?_Static@?1???$_Immortalize_memcpy_image@V_Future_error_category2@std@@@std@@YAAEBV_Future_error_category2@1@XZ@4U?$_Constexpr_immortalize_impl@V_Future_error_category2@std@@@1@A 	 DATA
	?curl_easy_init_mutex_@?1??0CurlHolder@cpr@@CAAEAVmutex@std@@XZ@4V34@A 	 DATA
	?s_mutex@GlobalThreadPool@cpr@@0Vmutex@std@@A 	 DATA
	?s_pInstance@GlobalThreadPool@cpr@@0PEAV12@EA 	 DATA
	??$<move>@AEAV?$shared_ptr@VSession@cpr@@@std@@@@YA$$QEAV?$shared_ptr@VSession@cpr@@@std@@AEAV01@@Z
	??$?0$$QEAV?$basic_string@DU?$char_traits@D@std@@V?$allocator@D@2@@std@@$$Z$$V@?$pair@$$CBV?$basic_string@DU?$char_traits@D@std@@V?$allocator@D@2@@std@@V12@@std@@QEAA@Upiecewise_construct_t@1@V?$tuple@$$QEAV?$basic_string@DU?$char_traits@D@std@@V?$allocator@D@2@@std@@@1@V?$tuple@$$V@1@@Z
	??$?0$$V@?$_Compressed_pair@V?$allocator@D@std@@V?$_String_val@U?$_Simple_types@D@std@@@2@$00@std@@QEAA@U_Zero_then_variadic_args_t@1@@Z
	??$?0$$V@?$_Compressed_pair@V?$allocator@U?$_List_node@UThreadData@ThreadPool@cpr@@PEAX@std@@@std@@V?$_List_val@U?$_List_simple_types@UThreadData@ThreadPool@cpr@@@std@@@2@$00@std@@QEAA@U_Zero_then_variadic_args_t@1@@Z
	??$?0$$V@?$_Compressed_pair@V?$allocator@U?$_Tree_node@U?$pair@$$CBV?$basic_string@DU?$char_traits@D@std@@V?$allocator@D@2@@std@@V12@@std@@PEAX@std@@@std@@V?$_Tree_val@U?$_Tree_simple_types@U?$pair@$$CBV?$basic_string@DU?$char_traits@D@std@@V?$allocator@D@2@@std@@V12@@std@@@std@@@2@$00@std@@QEAA@U_Zero_then_variadic_args_t@1@@Z
	??$?0$$V@?$_Compressed_pair@V?$allocator@U?$_Tree_node@U?$pair@$$CBV?$basic_string@DU?$char_traits@D@std@@V?$allocator@D@2@@std@@VEncodedAuthentication@cpr@@@std@@PEAX@std@@@std@@V?$_Tree_val@U?$_Tree_simple_types@U?$pair@$$CBV?$basic_string@DU?$char_traits@D@std@@V?$allocator@D@2@@std@@VEncodedAuthentication@cpr@@@std@@@std@@@2@$00@std@@QEAA@U_Zero_then_variadic_args_t@1@@Z
	??$?0$$V@?$_Compressed_pair@V?$allocator@U?$_Tree_node@U?$pair@$$CBW4AcceptEncodingMethods@cpr@@V?$basic_string@DU?$char_traits@D@std@@V?$allocator@D@2@@std@@@std@@PEAX@std@@@std@@V?$_Tree_val@U?$_Tree_simple_types@U?$pair@$$CBW4AcceptEncodingMethods@cpr@@V?$basic_string@DU?$char_traits@D@std@@V?$allocator@D@2@@std@@@std@@@std@@@2@$00@std@@QEAA@U_Zero_then_variadic_args_t@1@@Z
	??$?0$$V@?$_Compressed_pair@V?$allocator@U?$pair@V?$shared_ptr@VSession@cpr@@@std@@W4HttpMethod@MultiPerform@cpr@@@std@@@std@@V?$_Vector_val@U?$_Simple_types@U?$pair@V?$shared_ptr@VSession@cpr@@@std@@W4HttpMethod@MultiPerform@cpr@@@std@@@std@@@2@$00@std@@QEAA@U_Zero_then_variadic_args_t@1@@Z
	??$?0$$V@?$_Compressed_pair@V?$allocator@UFile@cpr@@@std@@V?$_Vector_val@U?$_Simple_types@UFile@cpr@@@std@@@2@$00@std@@QEAA@U_Zero_then_variadic_args_t@1@@Z
	??$?0$$V@?$_Compressed_pair@V?$allocator@UParameter@cpr@@@std@@V?$_Vector_val@U?$_Simple_types@UParameter@cpr@@@std@@@2@$00@std@@QEAA@U_Zero_then_variadic_args_t@1@@Z
	??$?0$$V@?$_Compressed_pair@V?$allocator@V?$basic_string@DU?$char_traits@D@std@@V?$allocator@D@2@@std@@@std@@V?$_Vector_val@U?$_Simple_types@V?$basic_string@DU?$char_traits@D@std@@V?$allocator@D@2@@std@@@std@@@2@$00@std@@QEAA@U_Zero_then_variadic_args_t@1@@Z
	??$?0$$V@?$_Compressed_pair@V?$allocator@V?$function@$$A6AXXZ@std@@@std@@V?$_Deque_val@U?$_Deque_simple_types@V?$function@$$A6AXXZ@std@@@std@@@2@$00@std@@QEAA@U_Zero_then_variadic_args_t@1@@Z
	??$?0$$V@?$_Compressed_pair@V?$allocator@V?$shared_ptr@VInterceptor@cpr@@@std@@@std@@V?$_Deque_val@U?$_Deque_simple_types@V?$shared_ptr@VInterceptor@cpr@@@std@@@std@@@2@$00@std@@QEAA@U_Zero_then_variadic_args_t@1@@Z
	??$?0$$V@?$_Compressed_pair@V?$allocator@V?$shared_ptr@VInterceptorMulti@cpr@@@std@@@std@@V?$_Deque_val@U?$_Deque_simple_types@V?$shared_ptr@VInterceptorMulti@cpr@@@std@@@std@@@2@$00@std@@QEAA@U_Zero_then_variadic_args_t@1@@Z
	??$?0$$V@?$_Compressed_pair@V?$allocator@VCertInfo@cpr@@@std@@V?$_Vector_val@U?$_Simple_types@VCertInfo@cpr@@@std@@@2@$00@std@@QEAA@U_Zero_then_variadic_args_t@1@@Z
	??$?0$$V@?$_Compressed_pair@V?$allocator@VCookie@cpr@@@std@@V?$_Vector_val@U?$_Simple_types@VCookie@cpr@@@std@@@2@$00@std@@QEAA@U_Zero_then_variadic_args_t@1@@Z
	??$?0$$V@?$_Compressed_pair@V?$allocator@VResponse@cpr@@@std@@V?$_Vector_val@U?$_Simple_types@VResponse@cpr@@@std@@@2@$00@std@@QEAA@U_Zero_then_variadic_args_t@1@@Z
	??$?0AEAPEAVCurlMultiHolder@cpr@@@?$_Compressed_pair@U?$default_delete@VCurlMultiHolder@cpr@@@std@@PEAVCurlMultiHolder@cpr@@$00@std@@QEAA@U_Zero_then_variadic_args_t@1@AEAPEAVCurlMultiHolder@cpr@@@Z
	??$?0AEAPEAV_Facet_base@std@@@?$_Compressed_pair@U?$default_delete@V_Facet_base@std@@@std@@PEAV_Facet_base@2@$00@std@@QEAA@U_Zero_then_variadic_args_t@1@AEAPEAV_Facet_base@1@@Z
	??$?0AEAUThreadData@ThreadPool@cpr@@@?$_List_node_emplace_op2@V?$allocator@U?$_List_node@UThreadData@ThreadPool@cpr@@PEAX@std@@@std@@@std@@QEAA@AEAV?$allocator@U?$_List_node@UThreadData@ThreadPool@cpr@@PEAX@std@@@1@AEAUThreadData@ThreadPool@cpr@@@Z
	??$?0AEAV?$allocator@D@std@@$$V@?$_Compressed_pair@V?$allocator@D@std@@V?$_String_val@U?$_Simple_types@D@std@@@2@$00@std@@QEAA@U_One_then_variadic_args_t@1@AEAV?$allocator@D@1@@Z
	??$?0AEAV?$shared_ptr@VSession@cpr@@@std@@AEAW4HttpMethod@MultiPerform@cpr@@$0A@@?$pair@V?$shared_ptr@VSession@cpr@@@std@@W4HttpMethod@MultiPerform@cpr@@@std@@QEAA@AEAV?$shared_ptr@VSession@cpr@@@1@AEAW4HttpMethod@MultiPerform@cpr@@@Z
	??$?0AEAVProgressCallback@cpr@@$0A@@?$reference_wrapper@VProgressCallback@cpr@@@std@@QEAA@AEAVProgressCallback@cpr@@@Z
	??$?0AEBQEAU?$_Tree_node@U?$pair@$$CBV?$basic_string@DU?$char_traits@D@std@@V?$allocator@D@2@@std@@V12@@std@@PEAX@std@@_N$0A@@?$pair@PEAU?$_Tree_node@U?$pair@$$CBV?$basic_string@DU?$char_traits@D@std@@V?$allocator@D@2@@std@@V12@@std@@PEAX@std@@_N@std@@QEAA@AEBQEAU?$_Tree_node@U?$pair@$$CBV?$basic_string@DU?$char_traits@D@std@@V?$allocator@D@2@@std@@V12@@std@@PEAX@1@$$QEA_N@Z
	??$?0AEBQEAU?$_Tree_node@U?$pair@$$CBV?$basic_string@DU?$char_traits@D@std@@V?$allocator@D@2@@std@@VEncodedAuthentication@cpr@@@std@@PEAX@std@@_N$0A@@?$pair@PEAU?$_Tree_node@U?$pair@$$CBV?$basic_string@DU?$char_traits@D@std@@V?$allocator@D@2@@std@@VEncodedAuthentication@cpr@@@std@@PEAX@std@@_N@std@@QEAA@AEBQEAU?$_Tree_node@U?$pair@$$CBV?$basic_string@DU?$char_traits@D@std@@V?$allocator@D@2@@std@@VEncodedAuthentication@cpr@@@std@@PEAX@1@$$QEA_N@Z
	??$?0AEBU?$less@V?$basic_string@DU?$char_traits@D@std@@V?$allocator@D@2@@std@@@std@@U_Zero_then_variadic_args_t@1@@?$_Compressed_pair@U?$less@V?$basic_string@DU?$char_traits@D@std@@V?$allocator@D@2@@std@@@std@@V?$_Compressed_pair@V?$allocator@U?$_Tree_node@U?$pair@$$CBV?$basic_string@DU?$char_traits@D@std@@V?$allocator@D@2@@std@@V12@@std@@PEAX@std@@@std@@V?$_Tree_val@U?$_Tree_simple_types@U?$pair@$$CBV?$basic_string@DU?$char_traits@D@std@@V?$allocator@D@2@@std@@V12@@std@@@std@@@2@$00@2@$00@std@@QEAA@U_One_then_variadic_args_t@1@AEBU?$less@V?$basic_string@DU?$char_traits@D@std@@V?$allocator@D@2@@std@@@1@$$QEAU_Zero_then_variadic_args_t@1@@Z
	??$?0AEBU?$less@V?$basic_string@DU?$char_traits@D@std@@V?$allocator@D@2@@std@@@std@@U_Zero_then_variadic_args_t@1@@?$_Compressed_pair@U?$less@V?$basic_string@DU?$char_traits@D@std@@V?$allocator@D@2@@std@@@std@@V?$_Compressed_pair@V?$allocator@U?$_Tree_node@U?$pair@$$CBV?$basic_string@DU?$char_traits@D@std@@V?$allocator@D@2@@std@@VEncodedAuthentication@cpr@@@std@@PEAX@std@@@std@@V?$_Tree_val@U?$_Tree_simple_types@U?$pair@$$CBV?$basic_string@DU?$char_traits@D@std@@V?$allocator@D@2@@std@@VEncodedAuthentication@cpr@@@std@@@std@@@2@$00@2@$00@std@@QEAA@U_One_then_variadic_args_t@1@AEBU?$less@V?$basic_string@DU?$char_traits@D@std@@V?$allocator@D@2@@std@@@1@$$QEAU_Zero_then_variadic_args_t@1@@Z
	??$?0AEBU?$less@W4AcceptEncodingMethods@cpr@@@std@@U_Zero_then_variadic_args_t@1@@?$_Compressed_pair@U?$less@W4AcceptEncodingMethods@cpr@@@std@@V?$_Compressed_pair@V?$allocator@U?$_Tree_node@U?$pair@$$CBW4AcceptEncodingMethods@cpr@@V?$basic_string@DU?$char_traits@D@std@@V?$allocator@D@2@@std@@@std@@PEAX@std@@@std@@V?$_Tree_val@U?$_Tree_simple_types@U?$pair@$$CBW4AcceptEncodingMethods@cpr@@V?$basic_string@DU?$char_traits@D@std@@V?$allocator@D@2@@std@@@std@@@std@@@2@$00@2@$00@std@@QEAA@U_One_then_variadic_args_t@1@AEBU?$less@W4AcceptEncodingMethods@cpr@@@1@$$QEAU_Zero_then_variadic_args_t@1@@Z
	??$?0AEBU?$pair@$$CBV?$basic_string@DU?$char_traits@D@std@@V?$allocator@D@2@@std@@V12@@std@@@?$_Tree_temp_node@V?$allocator@U?$_Tree_node@U?$pair@$$CBV?$basic_string@DU?$char_traits@D@std@@V?$allocator@D@2@@std@@V12@@std@@PEAX@std@@@std@@@std@@QEAA@AEAV?$allocator@U?$_Tree_node@U?$pair@$$CBV?$basic_string@DU?$char_traits@D@std@@V?$allocator@D@2@@std@@V12@@std@@PEAX@std@@@1@PEAU?$_Tree_node@U?$pair@$$CBV?$basic_string@DU?$char_traits@D@std@@V?$allocator@D@2@@std@@V12@@std@@PEAX@1@AEBU?$pair@$$CBV?$basic_string@DU?$char_traits@D@std@@V?$allocator@D@2@@std@@V12@@1@@Z
	??$?0AEBU?$pair@$$CBW4AcceptEncodingMethods@cpr@@V?$basic_string@DU?$char_traits@D@std@@V?$allocator@D@2@@std@@@std@@@?$_Tree_temp_node@V?$allocator@U?$_Tree_node@U?$pair@$$CBW4AcceptEncodingMethods@cpr@@V?$basic_string@DU?$char_traits@D@std@@V?$allocator@D@2@@std@@@std@@PEAX@std@@@std@@@std@@QEAA@AEAV?$allocator@U?$_Tree_node@U?$pair@$$CBW4AcceptEncodingMethods@cpr@@V?$basic_string@DU?$char_traits@D@std@@V?$allocator@D@2@@std@@@std@@PEAX@std@@@1@PEAU?$_Tree_node@U?$pair@$$CBW4AcceptEncodingMethods@cpr@@V?$basic_string@DU?$char_traits@D@std@@V?$allocator@D@2@@std@@@std@@PEAX@1@AEBU?$pair@$$CBW4AcceptEncodingMethods@cpr@@V?$basic_string@DU?$char_traits@D@std@@V?$allocator@D@2@@std@@@1@@Z
	??$?0AEBUCaseInsensitiveCompare@cpr@@U_Zero_then_variadic_args_t@std@@@?$_Compressed_pair@UCaseInsensitiveCompare@cpr@@V?$_Compressed_pair@V?$allocator@U?$_Tree_node@U?$pair@$$CBV?$basic_string@DU?$char_traits@D@std@@V?$allocator@D@2@@std@@V12@@std@@PEAX@std@@@std@@V?$_Tree_val@U?$_Tree_simple_types@U?$pair@$$CBV?$basic_string@DU?$char_traits@D@std@@V?$allocator@D@2@@std@@V12@@std@@@std@@@2@$00@std@@$00@std@@QEAA@U_One_then_variadic_args_t@1@AEBUCaseInsensitiveCompare@cpr@@$$QEAU_Zero_then_variadic_args_t@1@@Z
	??$?0AEBUpiecewise_construct_t@std@@V?$tuple@$$QEAV?$basic_string@DU?$char_traits@D@std@@V?$allocator@D@2@@std@@@1@V?$tuple@$$V@1@@?$_Tree_temp_node@V?$allocator@U?$_Tree_node@U?$pair@$$CBV?$basic_string@DU?$char_traits@D@std@@V?$allocator@D@2@@std@@V12@@std@@PEAX@std@@@std@@@std@@QEAA@AEAV?$allocator@U?$_Tree_node@U?$pair@$$CBV?$basic_string@DU?$char_traits@D@std@@V?$allocator@D@2@@std@@V12@@std@@PEAX@std@@@1@PEAU?$_Tree_node@U?$pair@$$CBV?$basic_string@DU?$char_traits@D@std@@V?$allocator@D@2@@std@@V12@@std@@PEAX@1@AEBUpiecewise_construct_t@1@$$QEAV?$tuple@$$QEAV?$basic_string@DU?$char_traits@D@std@@V?$allocator@D@2@@std@@@1@$$QEAV?$tuple@$$V@1@@Z
	??$?0AEBUpiecewise_construct_t@std@@V?$tuple@AEBV?$basic_string@DU?$char_traits@D@std@@V?$allocator@D@2@@std@@@1@V?$tuple@$$V@1@@?$_Tree_temp_node@V?$allocator@U?$_Tree_node@U?$pair@$$CBV?$basic_string@DU?$char_traits@D@std@@V?$allocator@D@2@@std@@V12@@std@@PEAX@std@@@std@@@std@@QEAA@AEAV?$allocator@U?$_Tree_node@U?$pair@$$CBV?$basic_string@DU?$char_traits@D@std@@V?$allocator@D@2@@std@@V12@@std@@PEAX@std@@@1@PEAU?$_Tree_node@U?$pair@$$CBV?$basic_string@DU?$char_traits@D@std@@V?$allocator@D@2@@std@@V12@@std@@PEAX@1@AEBUpiecewise_construct_t@1@$$QEAV?$tuple@AEBV?$basic_string@DU?$char_traits@D@std@@V?$allocator@D@2@@std@@@1@$$QEAV?$tuple@$$V@1@@Z
	??$?0AEBUpiecewise_construct_t@std@@V?$tuple@AEBV?$basic_string@DU?$char_traits@D@std@@V?$allocator@D@2@@std@@@1@V?$tuple@$$V@1@@?$_Tree_temp_node@V?$allocator@U?$_Tree_node@U?$pair@$$CBV?$basic_string@DU?$char_traits@D@std@@V?$allocator@D@2@@std@@VEncodedAuthentication@cpr@@@std@@PEAX@std@@@std@@@std@@QEAA@AEAV?$allocator@U?$_Tree_node@U?$pair@$$CBV?$basic_string@DU?$char_traits@D@std@@V?$allocator@D@2@@std@@VEncodedAuthentication@cpr@@@std@@PEAX@std@@@1@PEAU?$_Tree_node@U?$pair@$$CBV?$basic_string@DU?$char_traits@D@std@@V?$allocator@D@2@@std@@VEncodedAuthentication@cpr@@@std@@PEAX@1@AEBUpiecewise_construct_t@1@$$QEAV?$tuple@AEBV?$basic_string@DU?$char_traits@D@std@@V?$allocator@D@2@@std@@@1@$$QEAV?$tuple@$$V@1@@Z
	??$?0AEBV?$allocator@D@std@@$$V@?$_Compressed_pair@V?$allocator@D@std@@V?$_String_val@U?$_Simple_types@D@std@@@2@$00@std@@QEAA@U_One_then_variadic_args_t@1@AEBV?$allocator@D@1@@Z
	??$?0AEBV?$allocator@UPair@cpr@@@std@@$$V@?$_Compressed_pair@V?$allocator@UPair@cpr@@@std@@V?$_Vector_val@U?$_Simple_types@UPair@cpr@@@std@@@2@$00@std@@QEAA@U_One_then_variadic_args_t@1@AEBV?$allocator@UPair@cpr@@@1@@Z
	??$?0AEBV?$allocator@UParameter@cpr@@@std@@$$V@?$_Compressed_pair@V?$allocator@UParameter@cpr@@@std@@V?$_Vector_val@U?$_Simple_types@UParameter@cpr@@@std@@@2@$00@std@@QEAA@U_One_then_variadic_args_t@1@AEBV?$allocator@UParameter@cpr@@@1@@Z
	??$?0AEBV?$allocator@UPart@cpr@@@std@@$$V@?$_Compressed_pair@V?$allocator@UPart@cpr@@@std@@V?$_Vector_val@U?$_Simple_types@UPart@cpr@@@std@@@2@$00@std@@QEAA@U_One_then_variadic_args_t@1@AEBV?$allocator@UPart@cpr@@@1@@Z
	??$?0AEBV?$allocator@V?$basic_string@DU?$char_traits@D@std@@V?$allocator@D@2@@std@@@std@@$$V@?$_Compressed_pair@V?$allocator@U?$_List_node@V?$basic_string@DU?$char_traits@D@std@@V?$allocator@D@2@@std@@PEAX@std@@@std@@V?$_List_val@U?$_List_simple_types@V?$basic_string@DU?$char_traits@D@std@@V?$allocator@D@2@@std@@@std@@@2@$00@std@@QEAA@U_One_then_variadic_args_t@1@AEBV?$allocator@V?$basic_string@DU?$char_traits@D@std@@V?$allocator@D@2@@std@@@1@@Z
	??$?0AEBV?$allocator@V?$basic_string@DU?$char_traits@D@std@@V?$allocator@D@2@@std@@@std@@$$V@?$_Compressed_pair@V?$allocator@V?$_List_unchecked_const_iterator@V?$_List_val@U?$_List_simple_types@V?$basic_string@DU?$char_traits@D@std@@V?$allocator@D@2@@std@@@std@@@std@@U_Iterator_base0@2@@std@@@std@@V?$_Vector_val@U?$_Simple_types@V?$_List_unchecked_const_iterator@V?$_List_val@U?$_List_simple_types@V?$basic_string@DU?$char_traits@D@std@@V?$allocator@D@2@@std@@@std@@@std@@U_Iterator_base0@2@@std@@@std@@@2@$00@std@@QEAA@U_One_then_variadic_args_t@1@AEBV?$allocator@V?$basic_string@DU?$char_traits@D@std@@V?$allocator@D@2@@std@@@1@@Z
	??$?0AEBV?$allocator@V?$basic_string@DU?$char_traits@D@std@@V?$allocator@D@2@@std@@@std@@$0A@@?$_Hash_vec@V?$allocator@V?$_List_unchecked_const_iterator@V?$_List_val@U?$_List_simple_types@V?$basic_string@DU?$char_traits@D@std@@V?$allocator@D@2@@std@@@std@@@std@@U_Iterator_base0@2@@std@@@std@@@std@@QEAA@AEBV?$allocator@V?$basic_string@DU?$char_traits@D@std@@V?$allocator@D@2@@std@@@1@@Z
	??$?0AEBV?$allocator@VResolve@cpr@@@std@@$$V@?$_Compressed_pair@V?$allocator@VResolve@cpr@@@std@@V?$_Vector_val@U?$_Simple_types@VResolve@cpr@@@std@@@2@$00@std@@QEAA@U_One_then_variadic_args_t@1@AEBV?$allocator@VResolve@cpr@@@1@@Z
	??$?0AEBV?$basic_string@DU?$char_traits@D@std@@V?$allocator@D@2@@std@@$$Z$$V@?$pair@$$CBV?$basic_string@DU?$char_traits@D@std@@V?$allocator@D@2@@std@@V12@@std@@QEAA@Upiecewise_construct_t@1@V?$tuple@AEBV?$basic_string@DU?$char_traits@D@std@@V?$allocator@D@2@@std@@@1@V?$tuple@$$V@1@@Z
	??$?0AEBV?$basic_string@DU?$char_traits@D@std@@V?$allocator@D@2@@std@@$$Z$$V@?$pair@$$CBV?$basic_string@DU?$char_traits@D@std@@V?$allocator@D@2@@std@@VEncodedAuthentication@cpr@@@std@@QEAA@Upiecewise_construct_t@1@V?$tuple@AEBV?$basic_string@DU?$char_traits@D@std@@V?$allocator@D@2@@std@@@1@V?$tuple@$$V@1@@Z
	??$?0AEBV?$basic_string@DU?$char_traits@D@std@@V?$allocator@D@2@@std@@$0A@@?$tuple@AEBV?$basic_string@DU?$char_traits@D@std@@V?$allocator@D@2@@std@@@std@@QEAA@AEBV?$basic_string@DU?$char_traits@D@std@@V?$allocator@D@2@@1@@Z
	??$?0AEBV?$basic_string@DU?$char_traits@D@std@@V?$allocator@D@2@@std@@@?$_List_node_emplace_op2@V?$allocator@U?$_List_node@V?$basic_string@DU?$char_traits@D@std@@V?$allocator@D@2@@std@@PEAX@std@@@std@@@std@@QEAA@AEAV?$allocator@U?$_List_node@V?$basic_string@DU?$char_traits@D@std@@V?$allocator@D@2@@std@@PEAX@std@@@1@AEBV?$basic_string@DU?$char_traits@D@std@@V?$allocator@D@2@@1@@Z
	??$?0AEBV?$basic_string@DU?$char_traits@D@std@@V?$allocator@D@2@@std@@@?$_Tuple_val@AEBV?$basic_string@DU?$char_traits@D@std@@V?$allocator@D@2@@std@@@std@@QEAA@AEBV?$basic_string@DU?$char_traits@D@std@@V?$allocator@D@2@@1@@Z
	??$?0D@?$allocator@U_Container_proxy@std@@@std@@QEAA@AEBV?$allocator@D@1@@Z
	??$?0M@?$_Compressed_pair@U?$equal_to@V?$basic_string@DU?$char_traits@D@std@@V?$allocator@D@2@@std@@@std@@M$00@std@@QEAA@U_Zero_then_variadic_args_t@1@$$QEAM@Z
	??$?0N$0A@@?$duration@NU?$ratio@$00$0DLJKMKAA@@std@@@chrono@std@@QEAA@AEBN@Z
	??$?0NU?$ratio@$00$00@std@@$0A@@?$duration@NU?$ratio@$00$0DLJKMKAA@@std@@@chrono@std@@QEAA@AEBV?$duration@NU?$ratio@$00$00@std@@@12@@Z
	??$?0PEAD$0A@@?$basic_string@DU?$char_traits@D@std@@V?$allocator@D@2@@std@@QEAA@PEAD0AEBV?$allocator@D@1@@Z
	??$?0PEAU?$_Tree_node@U?$pair@$$CBV?$basic_string@DU?$char_traits@D@std@@V?$allocator@D@2@@std@@V12@@std@@PEAX@std@@_N$0A@@?$pair@PEAU?$_Tree_node@U?$pair@$$CBV?$basic_string@DU?$char_traits@D@std@@V?$allocator@D@2@@std@@V12@@std@@PEAX@std@@_N@std@@QEAA@$$QEAPEAU?$_Tree_node@U?$pair@$$CBV?$basic_string@DU?$char_traits@D@std@@V?$allocator@D@2@@std@@V12@@std@@PEAX@1@$$QEA_N@Z
	??$?0PEAU?$_Tree_node@U?$pair@$$CBV?$basic_string@DU?$char_traits@D@std@@V?$allocator@D@2@@std@@VEncodedAuthentication@cpr@@@std@@PEAX@std@@_N$0A@@?$pair@PEAU?$_Tree_node@U?$pair@$$CBV?$basic_string@DU?$char_traits@D@std@@V?$allocator@D@2@@std@@VEncodedAuthentication@cpr@@@std@@PEAX@std@@_N@std@@QEAA@$$QEAPEAU?$_Tree_node@U?$pair@$$CBV?$basic_string@DU?$char_traits@D@std@@V?$allocator@D@2@@std@@VEncodedAuthentication@cpr@@@std@@PEAX@1@$$QEA_N@Z
	??$?0U?$_List_node@UThreadData@ThreadPool@cpr@@PEAX@std@@@?$allocator@U_Container_proxy@std@@@std@@QEAA@AEBV?$allocator@U?$_List_node@UThreadData@ThreadPool@cpr@@PEAX@std@@@1@@Z
	??$?0U?$_List_node@V?$basic_string@DU?$char_traits@D@std@@V?$allocator@D@2@@std@@PEAX@std@@@?$allocator@U_Container_proxy@std@@@std@@QEAA@AEBV?$allocator@U?$_List_node@V?$basic_string@DU?$char_traits@D@std@@V?$allocator@D@2@@std@@PEAX@std@@@1@@Z
	??$?0U?$_Tree_node@GPEAX@std@@@?$allocator@U_Container_proxy@std@@@std@@QEAA@AEBV?$allocator@U?$_Tree_node@GPEAX@std@@@1@@Z
	??$?0U?$_Tree_node@U?$pair@$$CBV?$basic_string@DU?$char_traits@D@std@@V?$allocator@D@2@@std@@V12@@std@@PEAX@std@@@?$allocator@U_Container_proxy@std@@@std@@QEAA@AEBV?$allocator@U?$_Tree_node@U?$pair@$$CBV?$basic_string@DU?$char_traits@D@std@@V?$allocator@D@2@@std@@V12@@std@@PEAX@std@@@1@@Z
	??$?0U?$_Tree_node@U?$pair@$$CBV?$basic_string@DU?$char_traits@D@std@@V?$allocator@D@2@@std@@VEncodedAuthentication@cpr@@@std@@PEAX@std@@@?$allocator@U_Container_proxy@std@@@std@@QEAA@AEBV?$allocator@U?$_Tree_node@U?$pair@$$CBV?$basic_string@DU?$char_traits@D@std@@V?$allocator@D@2@@std@@VEncodedAuthentication@cpr@@@std@@PEAX@std@@@1@@Z
	??$?0U?$_Tree_node@U?$pair@$$CBW4AcceptEncodingMethods@cpr@@V?$basic_string@DU?$char_traits@D@std@@V?$allocator@D@2@@std@@@std@@PEAX@std@@@?$allocator@U_Container_proxy@std@@@std@@QEAA@AEBV?$allocator@U?$_Tree_node@U?$pair@$$CBW4AcceptEncodingMethods@cpr@@V?$basic_string@DU?$char_traits@D@std@@V?$allocator@D@2@@std@@@std@@PEAX@std@@@1@@Z
	??$?0U?$default_delete@VCurlMultiHolder@cpr@@@std@@$0A@@?$unique_ptr@VCurlMultiHolder@cpr@@U?$default_delete@VCurlMultiHolder@cpr@@@std@@@std@@QEAA@PEAVCurlMultiHolder@cpr@@@Z
	??$?0U?$default_delete@V_Facet_base@std@@@std@@$0A@@?$unique_ptr@V_Facet_base@std@@U?$default_delete@V_Facet_base@std@@@2@@std@@QEAA@PEAV_Facet_base@1@@Z
	??$?0U?$less@G@std@@U_One_then_variadic_args_t@1@V?$allocator@U?$_Tree_node@GPEAX@std@@@1@@?$_Compressed_pair@U?$less@G@std@@V?$_Compressed_pair@V?$allocator@U?$_Tree_node@GPEAX@std@@@std@@V?$_Tree_val@U?$_Tree_simple_types@G@std@@@2@$00@2@$00@std@@QEAA@U_One_then_variadic_args_t@1@$$QEAU?$less@G@1@$$QEAU21@$$QEAV?$allocator@U?$_Tree_node@GPEAX@std@@@1@@Z
	??$?0U?$less@V?$basic_string@DU?$char_traits@D@std@@V?$allocator@D@2@@std@@@std@@U_One_then_variadic_args_t@1@V?$allocator@U?$_Tree_node@U?$pair@$$CBV?$basic_string@DU?$char_traits@D@std@@V?$allocator@D@2@@std@@V12@@std@@PEAX@std@@@1@@?$_Compressed_pair@U?$less@V?$basic_string@DU?$char_traits@D@std@@V?$allocator@D@2@@std@@@std@@V?$_Compressed_pair@V?$allocator@U?$_Tree_node@U?$pair@$$CBV?$basic_string@DU?$char_traits@D@std@@V?$allocator@D@2@@std@@V12@@std@@PEAX@std@@@std@@V?$_Tree_val@U?$_Tree_simple_types@U?$pair@$$CBV?$basic_string@DU?$char_traits@D@std@@V?$allocator@D@2@@std@@V12@@std@@@std@@@2@$00@2@$00@std@@QEAA@U_One_then_variadic_args_t@1@$$QEAU?$less@V?$basic_string@DU?$char_traits@D@std@@V?$allocator@D@2@@std@@@1@$$QEAU21@$$QEAV?$allocator@U?$_Tree_node@U?$pair@$$CBV?$basic_string@DU?$char_traits@D@std@@V?$allocator@D@2@@std@@V12@@std@@PEAX@std@@@1@@Z
	??$?0U?$pair@V?$shared_ptr@VSession@cpr@@@std@@W4HttpMethod@MultiPerform@cpr@@@std@@@?$allocator@U_Container_proxy@std@@@std@@QEAA@AEBV?$allocator@U?$pair@V?$shared_ptr@VSession@cpr@@@std@@W4HttpMethod@MultiPerform@cpr@@@std@@@1@@Z
	??$?0UCaseInsensitiveCompare@cpr@@U_One_then_variadic_args_t@std@@V?$allocator@U?$_Tree_node@U?$pair@$$CBV?$basic_string@DU?$char_traits@D@std@@V?$allocator@D@2@@std@@V12@@std@@PEAX@std@@@3@@?$_Compressed_pair@UCaseInsensitiveCompare@cpr@@V?$_Compressed_pair@V?$allocator@U?$_Tree_node@U?$pair@$$CBV?$basic_string@DU?$char_traits@D@std@@V?$allocator@D@2@@std@@V12@@std@@PEAX@std@@@std@@V?$_Tree_val@U?$_Tree_simple_types@U?$pair@$$CBV?$basic_string@DU?$char_traits@D@std@@V?$allocator@D@2@@std@@V12@@std@@@std@@@2@$00@std@@$00@std@@QEAA@U_One_then_variadic_args_t@1@$$QEAUCaseInsensitiveCompare@cpr@@$$QEAU21@$$QEAV?$allocator@U?$_Tree_node@U?$pair@$$CBV?$basic_string@DU?$char_traits@D@std@@V?$allocator@D@2@@std@@V12@@std@@PEAX@std@@@1@@Z
	??$?0UCurlHolder@cpr@@$0A@@?$shared_ptr@UCurlHolder@cpr@@@std@@QEAA@PEAUCurlHolder@cpr@@@Z
	??$?0UFile@cpr@@@?$allocator@U_Container_proxy@std@@@std@@QEAA@AEBV?$allocator@UFile@cpr@@@1@@Z
	??$?0UPair@cpr@@@?$allocator@U_Container_proxy@std@@@std@@QEAA@AEBV?$allocator@UPair@cpr@@@1@@Z
	??$?0UParameter@cpr@@@?$allocator@U_Container_proxy@std@@@std@@QEAA@AEBV?$allocator@UParameter@cpr@@@1@@Z
	??$?0UPart@cpr@@@?$allocator@U_Container_proxy@std@@@std@@QEAA@AEBV?$allocator@UPart@cpr@@@1@@Z
	??$?0U_Exact_args_t@std@@$0A@@?$tuple@$$V@std@@QEAA@U_Exact_args_t@1@@Z
	??$?0U_Exact_args_t@std@@AEBV?$basic_string@DU?$char_traits@D@std@@V?$allocator@D@2@@1@$$V$0A@@?$tuple@AEBV?$basic_string@DU?$char_traits@D@std@@V?$allocator@D@2@@std@@@std@@QEAA@U_Exact_args_t@1@AEBV?$basic_string@DU?$char_traits@D@std@@V?$allocator@D@2@@1@@Z
	??$?0U_Exact_args_t@std@@V?$basic_string@DU?$char_traits@D@std@@V?$allocator@D@2@@1@$$V$0A@@?$tuple@$$QEAV?$basic_string@DU?$char_traits@D@std@@V?$allocator@D@2@@std@@@std@@QEAA@U_Exact_args_t@1@$$QEAV?$basic_string@DU?$char_traits@D@std@@V?$allocator@D@2@@1@@Z
	??$?0U_Zero_then_variadic_args_t@std@@M@?$_Compressed_pair@U?$hash@V?$basic_string@DU?$char_traits@D@std@@V?$allocator@D@2@@std@@@std@@V?$_Compressed_pair@U?$equal_to@V?$basic_string@DU?$char_traits@D@std@@V?$allocator@D@2@@std@@@std@@M$00@2@$00@std@@QEAA@U_Zero_then_variadic_args_t@1@$$QEAU21@$$QEAM@Z
	??$?0V?$_List_iterator@V?$_List_val@U?$_List_simple_types@V?$basic_string@DU?$char_traits@D@std@@V?$allocator@D@2@@std@@@std@@@std@@@std@@_N$0A@@?$pair@V?$_List_const_iterator@V?$_List_val@U?$_List_simple_types@V?$basic_string@DU?$char_traits@D@std@@V?$allocator@D@2@@std@@@std@@@std@@@std@@_N@std@@QEAA@$$QEAV?$_List_iterator@V?$_List_val@U?$_List_simple_types@V?$basic_string@DU?$char_traits@D@std@@V?$allocator@D@2@@std@@@std@@@std@@@1@$$QEA_N@Z
	??$?0V?$_List_unchecked_const_iterator@V?$_List_val@U?$_List_simple_types@V?$basic_string@DU?$char_traits@D@std@@V?$allocator@D@2@@std@@@std@@@std@@U_Iterator_base0@2@@std@@@?$allocator@U_Container_proxy@std@@@std@@QEAA@AEBV?$allocator@V?$_List_unchecked_const_iterator@V?$_List_val@U?$_List_simple_types@V?$basic_string@DU?$char_traits@D@std@@V?$allocator@D@2@@std@@@std@@@std@@U_Iterator_base0@2@@std@@@1@@Z
	??$?0V?$allocator@D@std@@$$V@?$_Compressed_pair@V?$allocator@D@std@@V?$_String_val@U?$_Simple_types@D@std@@@2@$00@std@@QEAA@U_One_then_variadic_args_t@1@$$QEAV?$allocator@D@1@@Z
	??$?0V?$allocator@U?$_Tree_node@GPEAX@std@@@std@@$$V@?$_Compressed_pair@V?$allocator@U?$_Tree_node@GPEAX@std@@@std@@V?$_Tree_val@U?$_Tree_simple_types@G@std@@@2@$00@std@@QEAA@U_One_then_variadic_args_t@1@$$QEAV?$allocator@U?$_Tree_node@GPEAX@std@@@1@@Z
	??$?0V?$allocator@U?$_Tree_node@GPEAX@std@@@std@@@?$_Tree@V?$_Tset_traits@GU?$less@G@std@@V?$allocator@G@2@$0A@@std@@@std@@QEAA@AEBV01@$$QEAV?$allocator@U?$_Tree_node@GPEAX@std@@@1@@Z
	??$?0V?$allocator@U?$_Tree_node@U?$pair@$$CBV?$basic_string@DU?$char_traits@D@std@@V?$allocator@D@2@@std@@V12@@std@@PEAX@std@@@std@@$$V@?$_Compressed_pair@V?$allocator@U?$_Tree_node@U?$pair@$$CBV?$basic_string@DU?$char_traits@D@std@@V?$allocator@D@2@@std@@V12@@std@@PEAX@std@@@std@@V?$_Tree_val@U?$_Tree_simple_types@U?$pair@$$CBV?$basic_string@DU?$char_traits@D@std@@V?$allocator@D@2@@std@@V12@@std@@@std@@@2@$00@std@@QEAA@U_One_then_variadic_args_t@1@$$QEAV?$allocator@U?$_Tree_node@U?$pair@$$CBV?$basic_string@DU?$char_traits@D@std@@V?$allocator@D@2@@std@@V12@@std@@PEAX@std@@@1@@Z
	??$?0V?$allocator@U?$_Tree_node@U?$pair@$$CBV?$basic_string@DU?$char_traits@D@std@@V?$allocator@D@2@@std@@V12@@std@@PEAX@std@@@std@@@?$_Tree@V?$_Tmap_traits@V?$basic_string@DU?$char_traits@D@std@@V?$allocator@D@2@@std@@V12@U?$less@V?$basic_string@DU?$char_traits@D@std@@V?$allocator@D@2@@std@@@2@V?$allocator@U?$pair@$$CBV?$basic_string@DU?$char_traits@D@std@@V?$allocator@D@2@@std@@V12@@std@@@2@$0A@@std@@@std@@QEAA@AEBV01@$$QEAV?$allocator@U?$_Tree_node@U?$pair@$$CBV?$basic_string@DU?$char_traits@D@std@@V?$allocator@D@2@@std@@V12@@std@@PEAX@std@@@1@@Z
	??$?0V?$allocator@U?$_Tree_node@U?$pair@$$CBV?$basic_string@DU?$char_traits@D@std@@V?$allocator@D@2@@std@@V12@@std@@PEAX@std@@@std@@@?$_Tree@V?$_Tmap_traits@V?$basic_string@DU?$char_traits@D@std@@V?$allocator@D@2@@std@@V12@UCaseInsensitiveCompare@cpr@@V?$allocator@U?$pair@$$CBV?$basic_string@DU?$char_traits@D@std@@V?$allocator@D@2@@std@@V12@@std@@@2@$0A@@std@@@std@@QEAA@AEBV01@$$QEAV?$allocator@U?$_Tree_node@U?$pair@$$CBV?$basic_string@DU?$char_traits@D@std@@V?$allocator@D@2@@std@@V12@@std@@PEAX@std@@@1@@Z
	??$?0V?$allocator@UFile@cpr@@@std@@$$V@?$_Compressed_pair@V?$allocator@UFile@cpr@@@std@@V?$_Vector_val@U?$_Simple_types@UFile@cpr@@@std@@@2@$00@std@@QEAA@U_One_then_variadic_args_t@1@$$QEAV?$allocator@UFile@cpr@@@1@@Z
	??$?0V?$allocator@V?$basic_string@DU?$char_traits@D@std@@V?$allocator@D@2@@std@@@std@@$$V@?$_Compressed_pair@V?$allocator@V?$basic_string@DU?$char_traits@D@std@@V?$allocator@D@2@@std@@@std@@V?$_Vector_val@U?$_Simple_types@V?$basic_string@DU?$char_traits@D@std@@V?$allocator@D@2@@std@@@std@@@2@$00@std@@QEAA@U_One_then_variadic_args_t@1@$$QEAV?$allocator@V?$basic_string@DU?$char_traits@D@std@@V?$allocator@D@2@@std@@@1@@Z
	??$?0V?$allocator@V?$basic_string@DU?$char_traits@D@std@@V?$allocator@D@2@@std@@@std@@PEAV?$basic_string@DU?$char_traits@D@std@@V?$allocator@D@2@@1@PEAV21@PEAV21@@?$_Compressed_pair@V?$allocator@V?$basic_string@DU?$char_traits@D@std@@V?$allocator@D@2@@std@@@std@@V?$_Vector_val@U?$_Simple_types@V?$basic_string@DU?$char_traits@D@std@@V?$allocator@D@2@@std@@@std@@@2@$00@std@@QEAA@U_One_then_variadic_args_t@1@$$QEAV?$allocator@V?$basic_string@DU?$char_traits@D@std@@V?$allocator@D@2@@std@@@1@$$QEAPEAV?$basic_string@DU?$char_traits@D@std@@V?$allocator@D@2@@1@22@Z
	??$?0V?$allocator@VCertInfo@cpr@@@std@@PEAVCertInfo@cpr@@PEAV23@PEAV23@@?$_Compressed_pair@V?$allocator@VCertInfo@cpr@@@std@@V?$_Vector_val@U?$_Simple_types@VCertInfo@cpr@@@std@@@2@$00@std@@QEAA@U_One_then_variadic_args_t@1@$$QEAV?$allocator@VCertInfo@cpr@@@1@$$QEAPEAVCertInfo@cpr@@22@Z
	??$?0V?$allocator@VCookie@cpr@@@std@@$$V@?$_Compressed_pair@V?$allocator@VCookie@cpr@@@std@@V?$_Vector_val@U?$_Simple_types@VCookie@cpr@@@std@@@2@$00@std@@QEAA@U_One_then_variadic_args_t@1@$$QEAV?$allocator@VCookie@cpr@@@1@@Z
	??$?0V?$allocator@VCookie@cpr@@@std@@PEAVCookie@cpr@@PEAV23@PEAV23@@?$_Compressed_pair@V?$allocator@VCookie@cpr@@@std@@V?$_Vector_val@U?$_Simple_types@VCookie@cpr@@@std@@@2@$00@std@@QEAA@U_One_then_variadic_args_t@1@$$QEAV?$allocator@VCookie@cpr@@@1@$$QEAPEAVCookie@cpr@@22@Z
	??$?0V?$allocator@VResponse@cpr@@@std@@PEAVResponse@cpr@@PEAV23@PEAV23@@?$_Compressed_pair@V?$allocator@VResponse@cpr@@@std@@V?$_Vector_val@U?$_Simple_types@VResponse@cpr@@@std@@@2@$00@std@@QEAA@U_One_then_variadic_args_t@1@$$QEAV?$allocator@VResponse@cpr@@@1@$$QEAPEAVResponse@cpr@@22@Z
	??$?0V?$basic_string@DU?$char_traits@D@std@@V?$allocator@D@2@@std@@$$V$0A@@?$tuple@$$QEAV?$basic_string@DU?$char_traits@D@std@@V?$allocator@D@2@@std@@@std@@QEAA@$$QEAV?$basic_string@DU?$char_traits@D@std@@V?$allocator@D@2@@1@@Z
	??$?0V?$basic_string@DU?$char_traits@D@std@@V?$allocator@D@2@@std@@@?$_List_node_emplace_op2@V?$allocator@U?$_List_node@V?$basic_string@DU?$char_traits@D@std@@V?$allocator@D@2@@std@@PEAX@std@@@std@@@std@@QEAA@AEAV?$allocator@U?$_List_node@V?$basic_string@DU?$char_traits@D@std@@V?$allocator@D@2@@std@@PEAX@std@@@1@$$QEAV?$basic_string@DU?$char_traits@D@std@@V?$allocator@D@2@@1@@Z
	??$?0V?$basic_string@DU?$char_traits@D@std@@V?$allocator@D@2@@std@@@?$_Tuple_val@$$QEAV?$basic_string@DU?$char_traits@D@std@@V?$allocator@D@2@@std@@@std@@QEAA@$$QEAV?$basic_string@DU?$char_traits@D@std@@V?$allocator@D@2@@1@@Z
	??$?0V?$basic_string@DU?$char_traits@D@std@@V?$allocator@D@2@@std@@@?$allocator@U?$_List_node@V?$basic_string@DU?$char_traits@D@std@@V?$allocator@D@2@@std@@PEAX@std@@@std@@QEAA@AEBV?$allocator@V?$basic_string@DU?$char_traits@D@std@@V?$allocator@D@2@@std@@@1@@Z
	??$?0V?$basic_string@DU?$char_traits@D@std@@V?$allocator@D@2@@std@@@?$allocator@U_Container_proxy@std@@@std@@QEAA@AEBV?$allocator@V?$basic_string@DU?$char_traits@D@std@@V?$allocator@D@2@@std@@@1@@Z
	??$?0V?$basic_string@DU?$char_traits@D@std@@V?$allocator@D@2@@std@@@?$allocator@V?$_List_unchecked_const_iterator@V?$_List_val@U?$_List_simple_types@V?$basic_string@DU?$char_traits@D@std@@V?$allocator@D@2@@std@@@std@@@std@@U_Iterator_base0@2@@std@@@std@@QEAA@AEBV?$allocator@V?$basic_string@DU?$char_traits@D@std@@V?$allocator@D@2@@std@@@1@@Z
	??$?0V?$function@$$A6AXXZ@std@@@?$allocator@PEAV?$function@$$A6AXXZ@std@@@std@@QEAA@AEBV?$allocator@V?$function@$$A6AXXZ@std@@@1@@Z
	??$?0V?$function@$$A6AXXZ@std@@@?$allocator@U_Container_proxy@std@@@std@@QEAA@AEBV?$allocator@V?$function@$$A6AXXZ@std@@@1@@Z
	??$?0V?$shared_ptr@VInterceptor@cpr@@@std@@@?$allocator@PEAV?$shared_ptr@VInterceptor@cpr@@@std@@@std@@QEAA@AEBV?$allocator@V?$shared_ptr@VInterceptor@cpr@@@std@@@1@@Z
	??$?0V?$shared_ptr@VInterceptor@cpr@@@std@@@?$allocator@U_Container_proxy@std@@@std@@QEAA@AEBV?$allocator@V?$shared_ptr@VInterceptor@cpr@@@std@@@1@@Z
	??$?0V?$shared_ptr@VInterceptorMulti@cpr@@@std@@@?$allocator@PEAV?$shared_ptr@VInterceptorMulti@cpr@@@std@@@std@@QEAA@AEBV?$allocator@V?$shared_ptr@VInterceptorMulti@cpr@@@std@@@1@@Z
	??$?0V?$shared_ptr@VInterceptorMulti@cpr@@@std@@@?$allocator@U_Container_proxy@std@@@std@@QEAA@AEBV?$allocator@V?$shared_ptr@VInterceptorMulti@cpr@@@std@@@1@@Z
	??$?0V?$tuple@$$QEAV?$basic_string@DU?$char_traits@D@std@@V?$allocator@D@2@@std@@@std@@V?$tuple@$$V@1@$0A@$$Z$S@?$pair@$$CBV?$basic_string@DU?$char_traits@D@std@@V?$allocator@D@2@@std@@V12@@std@@QEAA@AEAV?$tuple@$$QEAV?$basic_string@DU?$char_traits@D@std@@V?$allocator@D@2@@std@@@1@AEAV?$tuple@$$V@1@U?$integer_sequence@_K$0A@@1@U?$integer_sequence@_K$S@1@@Z
	??$?0V?$tuple@AEBV?$basic_string@DU?$char_traits@D@std@@V?$allocator@D@2@@std@@@std@@V?$tuple@$$V@1@$0A@$$Z$S@?$pair@$$CBV?$basic_string@DU?$char_traits@D@std@@V?$allocator@D@2@@std@@V12@@std@@QEAA@AEAV?$tuple@AEBV?$basic_string@DU?$char_traits@D@std@@V?$allocator@D@2@@std@@@1@AEAV?$tuple@$$V@1@U?$integer_sequence@_K$0A@@1@U?$integer_sequence@_K$S@1@@Z
	??$?0V?$tuple@AEBV?$basic_string@DU?$char_traits@D@std@@V?$allocator@D@2@@std@@@std@@V?$tuple@$$V@1@$0A@$$Z$S@?$pair@$$CBV?$basic_string@DU?$char_traits@D@std@@V?$allocator@D@2@@std@@VEncodedAuthentication@cpr@@@std@@QEAA@AEAV?$tuple@AEBV?$basic_string@DU?$char_traits@D@std@@V?$allocator@D@2@@std@@@1@AEAV?$tuple@$$V@1@U?$integer_sequence@_K$0A@@1@U?$integer_sequence@_K$S@1@@Z
	??$?0VCertInfo@cpr@@@?$allocator@U_Container_proxy@std@@@std@@QEAA@AEBV?$allocator@VCertInfo@cpr@@@1@@Z
	??$?0VCookie@cpr@@@?$allocator@U_Container_proxy@std@@@std@@QEAA@AEBV?$allocator@VCookie@cpr@@@1@@Z
	??$?0VResolve@cpr@@@?$allocator@U_Container_proxy@std@@@std@@QEAA@AEBV?$allocator@VResolve@cpr@@@1@@Z
	??$?0VResponse@cpr@@@?$allocator@U_Container_proxy@std@@@std@@QEAA@AEBV?$allocator@VResponse@cpr@@@1@@Z
	??$?0VSession@cpr@@$0A@@?$shared_ptr@VSession@cpr@@@std@@QEAA@AEBV?$weak_ptr@VSession@cpr@@@1@@Z
	??$?0Vthread@std@@$0A@@?$shared_ptr@Vthread@std@@@std@@QEAA@PEAVthread@1@@Z
	??$?0W4AcceptEncodingMethods@cpr@@AEAY04$$CBD$0A@@?$pair@$$CBW4AcceptEncodingMethods@cpr@@V?$basic_string@DU?$char_traits@D@std@@V?$allocator@D@2@@std@@@std@@QEAA@$$QEAW4AcceptEncodingMethods@cpr@@AEAY04$$CBD@Z
	??$?0W4AcceptEncodingMethods@cpr@@AEAY07$$CBD$0A@@?$pair@$$CBW4AcceptEncodingMethods@cpr@@V?$basic_string@DU?$char_traits@D@std@@V?$allocator@D@2@@std@@@std@@QEAA@$$QEAW4AcceptEncodingMethods@cpr@@AEAY07$$CBD@Z
	??$?0W4AcceptEncodingMethods@cpr@@AEAY08$$CBD$0A@@?$pair@$$CBW4AcceptEncodingMethods@cpr@@V?$basic_string@DU?$char_traits@D@std@@V?$allocator@D@2@@std@@@std@@QEAA@$$QEAW4AcceptEncodingMethods@cpr@@AEAY08$$CBD@Z
	??$?0_J$0A@@?$duration@_JU?$ratio@$00$00@std@@@chrono@std@@QEAA@AEB_J@Z
	??$?0_J$0A@@?$duration@_JU?$ratio@$00$0DLJKMKAA@@std@@@chrono@std@@QEAA@AEB_J@Z
	??$?0_J$0A@@?$duration@_JU?$ratio@$00$0JIJGIA@@std@@@chrono@std@@QEAA@AEB_J@Z
	??$?0_JU?$ratio@$00$00@std@@$0A@@?$duration@_JU?$ratio@$00$0DLJKMKAA@@std@@@chrono@std@@QEAA@AEBV?$duration@_JU?$ratio@$00$00@std@@@12@@Z
	??$?0_JU?$ratio@$00$00@std@@$0A@@?$duration@_JU?$ratio@$00$0JIJGIA@@std@@@chrono@std@@QEAA@AEBV?$duration@_JU?$ratio@$00$00@std@@@12@@Z
	??$?0_JU?$ratio@$00$0DLJKMKAA@@std@@$0A@@?$duration@NU?$ratio@$00$0DLJKMKAA@@std@@@chrono@std@@QEAA@AEBV?$duration@_JU?$ratio@$00$0DLJKMKAA@@std@@@12@@Z
	??$?0_JU?$ratio@$00$0DOI@@std@@$0A@@?$duration@_JU?$ratio@$00$0DLJKMKAA@@std@@@chrono@std@@QEAA@AEBV?$duration@_JU?$ratio@$00$0DOI@@std@@@12@@Z
	??$?0_JU?$ratio@$00$0JIJGIA@@std@@$0A@@?$duration@_JU?$ratio@$00$0DLJKMKAA@@std@@@chrono@std@@QEAA@AEBV?$duration@_JU?$ratio@$00$0JIJGIA@@std@@@12@@Z
	??$?4U?$pair@V?$shared_ptr@VSession@cpr@@@std@@W4HttpMethod@MultiPerform@cpr@@@std@@$0A@@?$pair@V?$shared_ptr@VSession@cpr@@@std@@W4HttpMethod@MultiPerform@cpr@@@std@@QEAAAEAU01@$$QEAU01@@Z
	??$?6DU?$char_traits@D@std@@@std@@YAAEAV?$basic_ostream@DU?$char_traits@D@std@@@0@AEAV10@AEBU?$_Timeobj@DPEBUtm@@@0@@Z
	??$?6DU?$char_traits@D@std@@V?$allocator@D@1@@std@@YAAEAV?$basic_ostream@DU?$char_traits@D@std@@@0@AEAV10@AEBV?$basic_string@DU?$char_traits@D@std@@V?$allocator@D@2@@0@@Z
	??$?6U?$char_traits@D@std@@@std@@YAAEAV?$basic_ostream@DU?$char_traits@D@std@@@0@AEAV10@PEBD@Z
	??$?8DU?$char_traits@D@std@@V?$allocator@D@1@@std@@YA_NAEBV?$basic_string@DU?$char_traits@D@std@@V?$allocator@D@2@@0@0@Z
	??$?8DU?$char_traits@D@std@@V?$allocator@D@1@@std@@YA_NAEBV?$basic_string@DU?$char_traits@D@std@@V?$allocator@D@2@@0@QEBD@Z
	??$?CU?$atomic@_N@std@@$0A@@?$shared_ptr@U?$atomic@_N@std@@@std@@QEBAPEAU?$atomic@_N@1@XZ
	??$?CUCurlHolder@cpr@@$0A@@?$shared_ptr@UCurlHolder@cpr@@@std@@QEBAPEAUCurlHolder@cpr@@XZ
	??$?CV?$packaged_task@$$A6A?AVResponse@cpr@@XZ@std@@$0A@@?$shared_ptr@V?$packaged_task@$$A6A?AVResponse@cpr@@XZ@std@@@std@@QEBAPEAV?$packaged_task@$$A6A?AVResponse@cpr@@XZ@1@XZ
	??$?CVInterceptor@cpr@@$0A@@?$shared_ptr@VInterceptor@cpr@@@std@@QEBAPEAVInterceptor@cpr@@XZ
	??$?CVInterceptorMulti@cpr@@$0A@@?$shared_ptr@VInterceptorMulti@cpr@@@std@@QEBAPEAVInterceptorMulti@cpr@@XZ
	??$?CVSession@cpr@@$0A@@?$shared_ptr@VSession@cpr@@@std@@QEBAPEAVSession@cpr@@XZ
	??$?CVthread@std@@$0A@@?$shared_ptr@Vthread@std@@@std@@QEBAPEAVthread@1@XZ
	??$?DUCurlHolder@cpr@@$0A@@?$shared_ptr@UCurlHolder@cpr@@@std@@QEBAAEAUCurlHolder@cpr@@XZ
	??$?DV?$packaged_task@$$A6A?AVResponse@cpr@@XZ@std@@$0A@@?$shared_ptr@V?$packaged_task@$$A6A?AVResponse@cpr@@XZ@std@@@std@@QEBAAEAV?$packaged_task@$$A6A?AVResponse@cpr@@XZ@1@XZ
	??$?DVSession@cpr@@$0A@@?$shared_ptr@VSession@cpr@@@std@@QEBAAEAVSession@cpr@@XZ
	??$?GUsteady_clock@chrono@std@@V?$duration@_JU?$ratio@$00$0DLJKMKAA@@std@@@12@V312@@chrono@std@@YA?AV?$duration@_JU?$ratio@$00$0DLJKMKAA@@std@@@01@AEBV?$time_point@Usteady_clock@chrono@std@@V?$duration@_JU?$ratio@$00$0DLJKMKAA@@std@@@23@@01@0@Z
	??$?GUsteady_clock@chrono@std@@V?$duration@_JU?$ratio@$00$0DLJKMKAA@@std@@@12@_JU?$ratio@$00$0DOI@@2@@chrono@std@@YA?AV?$time_point@Usteady_clock@chrono@std@@V?$duration@_JU?$ratio@$00$0DLJKMKAA@@std@@@23@@01@AEBV201@AEBV?$duration@_JU?$ratio@$00$0DOI@@std@@@01@@Z
	??$?G_JU?$ratio@$00$0DLJKMKAA@@std@@_JU01@@chrono@std@@YA?AV?$duration@_JU?$ratio@$00$0DLJKMKAA@@std@@@01@AEBV201@0@Z
	??$?G_JU?$ratio@$00$0DLJKMKAA@@std@@_JU?$ratio@$00$0DOI@@1@@chrono@std@@YA?AV?$duration@_JU?$ratio@$00$0DLJKMKAA@@std@@@01@AEBV201@AEBV?$duration@_JU?$ratio@$00$0DOI@@std@@@01@@Z
	??$?HDU?$char_traits@D@std@@V?$allocator@D@1@@std@@YA?AV?$basic_string@DU?$char_traits@D@std@@V?$allocator@D@2@@0@$$QEAV10@0@Z
	??$?HDU?$char_traits@D@std@@V?$allocator@D@1@@std@@YA?AV?$basic_string@DU?$char_traits@D@std@@V?$allocator@D@2@@0@$$QEAV10@AEBV10@@Z
	??$?HDU?$char_traits@D@std@@V?$allocator@D@1@@std@@YA?AV?$basic_string@DU?$char_traits@D@std@@V?$allocator@D@2@@0@$$QEAV10@QEBD@Z
	??$?HDU?$char_traits@D@std@@V?$allocator@D@1@@std@@YA?AV?$basic_string@DU?$char_traits@D@std@@V?$allocator@D@2@@0@AEBV10@0@Z
	??$?HDU?$char_traits@D@std@@V?$allocator@D@1@@std@@YA?AV?$basic_string@DU?$char_traits@D@std@@V?$allocator@D@2@@0@AEBV10@QEBD@Z
	??$?HDU?$char_traits@D@std@@V?$allocator@D@1@@std@@YA?AV?$basic_string@DU?$char_traits@D@std@@V?$allocator@D@2@@0@QEBD$$QEAV10@@Z
	??$?HDU?$char_traits@D@std@@V?$allocator@D@1@@std@@YA?AV?$basic_string@DU?$char_traits@D@std@@V?$allocator@D@2@@0@QEBDAEBV10@@Z
	??$?MDU?$char_traits@D@std@@V?$allocator@D@1@@std@@YA_NAEBV?$basic_string@DU?$char_traits@D@std@@V?$allocator@D@2@@0@0@Z
	??$?MNU?$ratio@$00$00@std@@_JU?$ratio@$00$0DLJKMKAA@@1@@chrono@std@@YA_NAEBV?$duration@NU?$ratio@$00$00@std@@@01@AEBV?$duration@_JU?$ratio@$00$0DLJKMKAA@@std@@@01@@Z
	??$?MUsteady_clock@chrono@std@@V?$duration@_JU?$ratio@$00$0DLJKMKAA@@std@@@12@V312@@chrono@std@@YA_NAEBV?$time_point@Usteady_clock@chrono@std@@V?$duration@_JU?$ratio@$00$0DLJKMKAA@@std@@@23@@01@0@Z
	??$?M_JU?$ratio@$00$0DLJKMKAA@@std@@_JU01@@chrono@std@@YA_NAEBV?$duration@_JU?$ratio@$00$0DLJKMKAA@@std@@@01@0@Z
	??$?M_JU?$ratio@$00$0DOI@@std@@_JU01@@chrono@std@@YA_NAEBV?$duration@_JU?$ratio@$00$0DOI@@std@@@01@0@Z
	??$?NUsteady_clock@chrono@std@@V?$duration@_JU?$ratio@$00$0DLJKMKAA@@std@@@12@V312@@chrono@std@@YA_NAEBV?$time_point@Usteady_clock@chrono@std@@V?$duration@_JU?$ratio@$00$0DLJKMKAA@@std@@@23@@01@0@Z
	??$?O_JU?$ratio@$00$0DOI@@std@@_JU01@@chrono@std@@YA_NAEBV?$duration@_JU?$ratio@$00$0DOI@@std@@@01@0@Z
	??$?RAEA_JAEA_JAEA_JAEA_J@?$reference_wrapper@VProgressCallback@cpr@@@std@@QEBA_NAEA_J000@Z
	??$?RV?$basic_string@DU?$char_traits@D@std@@V?$allocator@D@2@@std@@@?$_Uhash_compare@V?$basic_string@DU?$char_traits@D@std@@V?$allocator@D@2@@std@@U?$hash@V?$basic_string@DU?$char_traits@D@std@@V?$allocator@D@2@@std@@@2@U?$equal_to@V?$basic_string@DU?$char_traits@D@std@@V?$allocator@D@2@@std@@@2@@std@@QEBA_KAEBV?$basic_string@DU?$char_traits@D@std@@V?$allocator@D@2@@1@@Z
	??$?RV?$basic_string@DU?$char_traits@D@std@@V?$allocator@D@2@@std@@V01@@?$_Uhash_compare@V?$basic_string@DU?$char_traits@D@std@@V?$allocator@D@2@@std@@U?$hash@V?$basic_string@DU?$char_traits@D@std@@V?$allocator@D@2@@std@@@2@U?$equal_to@V?$basic_string@DU?$char_traits@D@std@@V?$allocator@D@2@@std@@@2@@std@@QEBA_NAEBV?$basic_string@DU?$char_traits@D@std@@V?$allocator@D@2@@1@0@Z
	??$PrepareDownloadSessions@VWriteCallback@cpr@@@MultiPerform@cpr@@AEAAX_KVWriteCallback@1@@Z
	??$_Adl_verify_range@PEADPEAD@std@@YAXAEBQEAD0@Z
	??$_Adl_verify_range@PEAPEAV?$function@$$A6AXXZ@std@@PEAPEAV12@@std@@YAXAEBQEAPEAV?$function@$$A6AXXZ@0@0@Z
	??$_Adl_verify_range@PEAPEAV?$shared_ptr@VInterceptor@cpr@@@std@@PEAPEAV12@@std@@YAXAEBQEAPEAV?$shared_ptr@VInterceptor@cpr@@@0@0@Z
	??$_Adl_verify_range@PEAPEAV?$shared_ptr@VInterceptorMulti@cpr@@@std@@PEAPEAV12@@std@@YAXAEBQEAPEAV?$shared_ptr@VInterceptorMulti@cpr@@@0@0@Z
	??$_Adl_verify_range@PEAV?$_List_unchecked_const_iterator@V?$_List_val@U?$_List_simple_types@V?$basic_string@DU?$char_traits@D@std@@V?$allocator@D@2@@std@@@std@@@std@@U_Iterator_base0@2@@std@@PEAV12@@std@@YAXAEBQEAV?$_List_unchecked_const_iterator@V?$_List_val@U?$_List_simple_types@V?$basic_string@DU?$char_traits@D@std@@V?$allocator@D@2@@std@@@std@@@std@@U_Iterator_base0@2@@0@0@Z
	??$_Adl_verify_range@PEBUPair@cpr@@PEBU12@@std@@YAXAEBQEBUPair@cpr@@0@Z
	??$_Adl_verify_range@PEBUParameter@cpr@@PEBU12@@std@@YAXAEBQEBUParameter@cpr@@0@Z
	??$_Adl_verify_range@PEBW4AcceptEncodingMethods@cpr@@PEBW412@@std@@YAXAEBQEBW4AcceptEncodingMethods@cpr@@0@Z
	??$_Adl_verify_range@V?$_List_const_iterator@V?$_List_val@U?$_List_simple_types@V?$basic_string@DU?$char_traits@D@std@@V?$allocator@D@2@@std@@@std@@@std@@@std@@V12@@std@@YAXAEBV?$_List_const_iterator@V?$_List_val@U?$_List_simple_types@V?$basic_string@DU?$char_traits@D@std@@V?$allocator@D@2@@std@@@std@@@std@@@0@0@Z
	??$_Adl_verify_range@V?$_String_const_iterator@V?$_String_val@U?$_Simple_types@D@std@@@std@@@std@@V12@@std@@YAXAEBV?$_String_const_iterator@V?$_String_val@U?$_Simple_types@D@std@@@std@@@0@0@Z
	??$_Adl_verify_range@V?$_String_iterator@V?$_String_val@U?$_Simple_types@D@std@@@std@@@std@@V12@@std@@YAXAEBV?$_String_iterator@V?$_String_val@U?$_Simple_types@D@std@@@std@@@0@0@Z
	??$_Adl_verify_range@V?$_Vector_iterator@V?$_Vector_val@U?$_Simple_types@U?$pair@V?$shared_ptr@VSession@cpr@@@std@@W4HttpMethod@MultiPerform@cpr@@@std@@@std@@@std@@@std@@V12@@std@@YAXAEBV?$_Vector_iterator@V?$_Vector_val@U?$_Simple_types@U?$pair@V?$shared_ptr@VSession@cpr@@@std@@W4HttpMethod@MultiPerform@cpr@@@std@@@std@@@std@@@0@0@Z
	??$_Adl_verify_range@V?$_Vector_iterator@V?$_Vector_val@U?$_Simple_types@VResponse@cpr@@@std@@@std@@@std@@V12@@std@@YAXAEBV?$_Vector_iterator@V?$_Vector_val@U?$_Simple_types@VResponse@cpr@@@std@@@std@@@0@0@Z
	??$_Alloc_proxy@V?$allocator@U_Container_proxy@std@@@std@@@_Container_base12@std@@QEAAX$$QEAV?$allocator@U_Container_proxy@std@@@1@@Z
	??$_Allocate@$0BA@U_Default_allocate_traits@std@@$0A@@std@@YAPEAX_K@Z
	??$_Allocate_at_least_helper@V?$allocator@D@std@@@std@@YAPEADAEAV?$allocator@D@0@AEA_K@Z
	??$_Allocate_at_least_helper@V?$allocator@PEAV?$function@$$A6AXXZ@std@@@std@@@std@@YAPEAPEAV?$function@$$A6AXXZ@0@AEAV?$allocator@PEAV?$function@$$A6AXXZ@std@@@0@AEA_K@Z
	??$_Allocate_at_least_helper@V?$allocator@PEAV?$shared_ptr@VInterceptor@cpr@@@std@@@std@@@std@@YAPEAPEAV?$shared_ptr@VInterceptor@cpr@@@0@AEAV?$allocator@PEAV?$shared_ptr@VInterceptor@cpr@@@std@@@0@AEA_K@Z
	??$_Allocate_at_least_helper@V?$allocator@PEAV?$shared_ptr@VInterceptorMulti@cpr@@@std@@@std@@@std@@YAPEAPEAV?$shared_ptr@VInterceptorMulti@cpr@@@0@AEAV?$allocator@PEAV?$shared_ptr@VInterceptorMulti@cpr@@@std@@@0@AEA_K@Z
	??$_Allocate_at_least_helper@V?$allocator@U?$pair@V?$shared_ptr@VSession@cpr@@@std@@W4HttpMethod@MultiPerform@cpr@@@std@@@std@@@std@@YAPEAU?$pair@V?$shared_ptr@VSession@cpr@@@std@@W4HttpMethod@MultiPerform@cpr@@@0@AEAV?$allocator@U?$pair@V?$shared_ptr@VSession@cpr@@@std@@W4HttpMethod@MultiPerform@cpr@@@std@@@0@AEA_K@Z
	??$_Allocate_at_least_helper@V?$allocator@UFile@cpr@@@std@@@std@@YAPEAUFile@cpr@@AEAV?$allocator@UFile@cpr@@@0@AEA_K@Z
	??$_Allocate_at_least_helper@V?$allocator@UPair@cpr@@@std@@@std@@YAPEAUPair@cpr@@AEAV?$allocator@UPair@cpr@@@0@AEA_K@Z
	??$_Allocate_at_least_helper@V?$allocator@UParameter@cpr@@@std@@@std@@YAPEAUParameter@cpr@@AEAV?$allocator@UParameter@cpr@@@0@AEA_K@Z
	??$_Allocate_at_least_helper@V?$allocator@UPart@cpr@@@std@@@std@@YAPEAUPart@cpr@@AEAV?$allocator@UPart@cpr@@@0@AEA_K@Z
	??$_Allocate_at_least_helper@V?$allocator@V?$basic_string@DU?$char_traits@D@std@@V?$allocator@D@2@@std@@@std@@@std@@YAPEAV?$basic_string@DU?$char_traits@D@std@@V?$allocator@D@2@@0@AEAV?$allocator@V?$basic_string@DU?$char_traits@D@std@@V?$allocator@D@2@@std@@@0@AEA_K@Z
	??$_Allocate_at_least_helper@V?$allocator@VCertInfo@cpr@@@std@@@std@@YAPEAVCertInfo@cpr@@AEAV?$allocator@VCertInfo@cpr@@@0@AEA_K@Z
	??$_Allocate_at_least_helper@V?$allocator@VCookie@cpr@@@std@@@std@@YAPEAVCookie@cpr@@AEAV?$allocator@VCookie@cpr@@@0@AEA_K@Z
	??$_Allocate_at_least_helper@V?$allocator@VResolve@cpr@@@std@@@std@@YAPEAVResolve@cpr@@AEAV?$allocator@VResolve@cpr@@@0@AEA_K@Z
	??$_Allocate_at_least_helper@V?$allocator@VResponse@cpr@@@std@@@std@@YAPEAVResponse@cpr@@AEAV?$allocator@VResponse@cpr@@@0@AEA_K@Z
	??$_Allocate_for_capacity@$0A@@?$basic_string@DU?$char_traits@D@std@@V?$allocator@D@2@@std@@CAPEADAEAV?$allocator@D@1@AEA_K@Z
	??$_Allocate_manually_vector_aligned@U_Default_allocate_traits@std@@@std@@YAPEAX_K@Z
	??$_Allocators_equal@V?$allocator@D@std@@@std@@YA_NAEBV?$allocator@D@0@0@Z
	??$_Append_range_unchecked@V?$_List_unchecked_const_iterator@V?$_List_val@U?$_List_simple_types@V?$basic_string@DU?$char_traits@D@std@@V?$allocator@D@2@@std@@@std@@@std@@U_Iterator_base0@2@@std@@V12@@?$_List_node_insert_op2@V?$allocator@U?$_List_node@V?$basic_string@DU?$char_traits@D@std@@V?$allocator@D@2@@std@@PEAX@std@@@std@@@std@@QEAAXV?$_List_unchecked_const_iterator@V?$_List_val@U?$_List_simple_types@V?$basic_string@DU?$char_traits@D@std@@V?$allocator@D@2@@std@@@std@@@std@@U_Iterator_base0@2@@1@V21@@Z
	??$_Assign_cast@AEAV?$basic_string@DU?$char_traits@D@std@@V?$allocator@D@2@@std@@V?$_List_unchecked_const_iterator@V?$_List_val@U?$_List_simple_types@V?$basic_string@DU?$char_traits@D@std@@V?$allocator@D@2@@std@@@std@@@std@@U_Iterator_base0@2@@2@@?$list@V?$basic_string@DU?$char_traits@D@std@@V?$allocator@D@2@@std@@V?$allocator@V?$basic_string@DU?$char_traits@D@std@@V?$allocator@D@2@@std@@@2@@std@@AEAAXV?$_List_unchecked_const_iterator@V?$_List_val@U?$_List_simple_types@V?$basic_string@DU?$char_traits@D@std@@V?$allocator@D@2@@std@@@std@@@std@@U_Iterator_base0@2@@1@V21@@Z
	??$_Assign_counted_range@PEAUFile@cpr@@@?$vector@UFile@cpr@@V?$allocator@UFile@cpr@@@std@@@std@@AEAAXPEAUFile@cpr@@_K@Z
	??$_Assign_counted_range@PEAUParameter@cpr@@@?$vector@UParameter@cpr@@V?$allocator@UParameter@cpr@@@std@@@std@@AEAAXPEAUParameter@cpr@@_K@Z
	??$_Atomic_address_as@DU?$_Atomic_padded@_N@std@@@std@@YAPEDDAEBU?$_Atomic_padded@_N@0@@Z
	??$_Atomic_address_as@HU?$_Atomic_padded@W4Status@ThreadPool@cpr@@@std@@@std@@YAPECHAEAU?$_Atomic_padded@W4Status@ThreadPool@cpr@@@0@@Z
	??$_Atomic_address_as@HU?$_Atomic_padded@W4Status@ThreadPool@cpr@@@std@@@std@@YAPEDHAEBU?$_Atomic_padded@W4Status@ThreadPool@cpr@@@0@@Z
	??$_Atomic_address_as@_JU?$_Atomic_padded@_K@std@@@std@@YAPEC_JAEAU?$_Atomic_padded@_K@0@@Z
	??$_Atomic_address_as@_JU?$_Atomic_padded@_K@std@@@std@@YAPED_JAEBU?$_Atomic_padded@_K@0@@Z
	??$_Atomic_reinterpret_as@HW4Status@ThreadPool@cpr@@@std@@YAHAEBW4Status@ThreadPool@cpr@@@Z
	??$_Atomic_reinterpret_as@_J_K@std@@YA_JAEB_K@Z
	??$_Attach_at_end@U?$_List_simple_types@V?$basic_string@DU?$char_traits@D@std@@V?$allocator@D@2@@std@@@std@@@?$_List_node_insert_op2@V?$allocator@U?$_List_node@V?$basic_string@DU?$char_traits@D@std@@V?$allocator@D@2@@std@@PEAX@std@@@std@@@std@@QEAAXAEAV?$_List_val@U?$_List_simple_types@V?$basic_string@DU?$char_traits@D@std@@V?$allocator@D@2@@std@@@std@@@1@@Z
	??$_Attach_before@U?$_List_simple_types@V?$basic_string@DU?$char_traits@D@std@@V?$allocator@D@2@@std@@@std@@@?$_List_node_insert_op2@V?$allocator@U?$_List_node@V?$basic_string@DU?$char_traits@D@std@@V?$allocator@D@2@@std@@PEAX@std@@@std@@@std@@QEAAPEAU?$_List_node@V?$basic_string@DU?$char_traits@D@std@@V?$allocator@D@2@@std@@PEAX@1@AEAV?$_List_val@U?$_List_simple_types@V?$basic_string@DU?$char_traits@D@std@@V?$allocator@D@2@@std@@@std@@@1@QEAU21@@Z
	??$_Bit_cast@_KT_Addr_storage@error_category@std@@$0A@@std@@YA_KAEBT_Addr_storage@error_category@0@@Z
	??$_Buyheadnode@V?$allocator@U?$_Tree_node@GPEAX@std@@@std@@@?$_Tree_node@GPEAX@std@@SAPEAU01@AEAV?$allocator@U?$_Tree_node@GPEAX@std@@@1@@Z
	??$_Buyheadnode@V?$allocator@U?$_Tree_node@U?$pair@$$CBV?$basic_string@DU?$char_traits@D@std@@V?$allocator@D@2@@std@@V12@@std@@PEAX@std@@@std@@@?$_Tree_node@U?$pair@$$CBV?$basic_string@DU?$char_traits@D@std@@V?$allocator@D@2@@std@@V12@@std@@PEAX@std@@SAPEAU01@AEAV?$allocator@U?$_Tree_node@U?$pair@$$CBV?$basic_string@DU?$char_traits@D@std@@V?$allocator@D@2@@std@@V12@@std@@PEAX@std@@@1@@Z
	??$_Buyheadnode@V?$allocator@U?$_Tree_node@U?$pair@$$CBV?$basic_string@DU?$char_traits@D@std@@V?$allocator@D@2@@std@@VEncodedAuthentication@cpr@@@std@@PEAX@std@@@std@@@?$_Tree_node@U?$pair@$$CBV?$basic_string@DU?$char_traits@D@std@@V?$allocator@D@2@@std@@VEncodedAuthentication@cpr@@@std@@PEAX@std@@SAPEAU01@AEAV?$allocator@U?$_Tree_node@U?$pair@$$CBV?$basic_string@DU?$char_traits@D@std@@V?$allocator@D@2@@std@@VEncodedAuthentication@cpr@@@std@@PEAX@std@@@1@@Z
	??$_Buyheadnode@V?$allocator@U?$_Tree_node@U?$pair@$$CBW4AcceptEncodingMethods@cpr@@V?$basic_string@DU?$char_traits@D@std@@V?$allocator@D@2@@std@@@std@@PEAX@std@@@std@@@?$_Tree_node@U?$pair@$$CBW4AcceptEncodingMethods@cpr@@V?$basic_string@DU?$char_traits@D@std@@V?$allocator@D@2@@std@@@std@@PEAX@std@@SAPEAU01@AEAV?$allocator@U?$_Tree_node@U?$pair@$$CBW4AcceptEncodingMethods@cpr@@V?$basic_string@DU?$char_traits@D@std@@V?$allocator@D@2@@std@@@std@@PEAX@std@@@1@@Z
	??$_Buynode@AEAG@?$_Tree@V?$_Tset_traits@GU?$less@G@std@@V?$allocator@G@2@$0A@@std@@@std@@IEAAPEAU?$_Tree_node@GPEAX@1@AEAG@Z
	??$_Buynode@AEAU?$pair@$$CBV?$basic_string@DU?$char_traits@D@std@@V?$allocator@D@2@@std@@V12@@std@@@?$_Tree@V?$_Tmap_traits@V?$basic_string@DU?$char_traits@D@std@@V?$allocator@D@2@@std@@V12@U?$less@V?$basic_string@DU?$char_traits@D@std@@V?$allocator@D@2@@std@@@2@V?$allocator@U?$pair@$$CBV?$basic_string@DU?$char_traits@D@std@@V?$allocator@D@2@@std@@V12@@std@@@2@$0A@@std@@@std@@IEAAPEAU?$_Tree_node@U?$pair@$$CBV?$basic_string@DU?$char_traits@D@std@@V?$allocator@D@2@@std@@V12@@std@@PEAX@1@AEAU?$pair@$$CBV?$basic_string@DU?$char_traits@D@std@@V?$allocator@D@2@@std@@V12@@1@@Z
	??$_Buynode@AEAU?$pair@$$CBV?$basic_string@DU?$char_traits@D@std@@V?$allocator@D@2@@std@@V12@@std@@@?$_Tree@V?$_Tmap_traits@V?$basic_string@DU?$char_traits@D@std@@V?$allocator@D@2@@std@@V12@UCaseInsensitiveCompare@cpr@@V?$allocator@U?$pair@$$CBV?$basic_string@DU?$char_traits@D@std@@V?$allocator@D@2@@std@@V12@@std@@@2@$0A@@std@@@std@@IEAAPEAU?$_Tree_node@U?$pair@$$CBV?$basic_string@DU?$char_traits@D@std@@V?$allocator@D@2@@std@@V12@@std@@PEAX@1@AEAU?$pair@$$CBV?$basic_string@DU?$char_traits@D@std@@V?$allocator@D@2@@std@@V12@@1@@Z
	??$_Buynode@AEAU?$pair@$$CBV?$basic_string@DU?$char_traits@D@std@@V?$allocator@D@2@@std@@VEncodedAuthentication@cpr@@@std@@@?$_Tree@V?$_Tmap_traits@V?$basic_string@DU?$char_traits@D@std@@V?$allocator@D@2@@std@@VEncodedAuthentication@cpr@@U?$less@V?$basic_string@DU?$char_traits@D@std@@V?$allocator@D@2@@std@@@2@V?$allocator@U?$pair@$$CBV?$basic_string@DU?$char_traits@D@std@@V?$allocator@D@2@@std@@VEncodedAuthentication@cpr@@@std@@@2@$0A@@std@@@std@@IEAAPEAU?$_Tree_node@U?$pair@$$CBV?$basic_string@DU?$char_traits@D@std@@V?$allocator@D@2@@std@@VEncodedAuthentication@cpr@@@std@@PEAX@1@AEAU?$pair@$$CBV?$basic_string@DU?$char_traits@D@std@@V?$allocator@D@2@@std@@VEncodedAuthentication@cpr@@@1@@Z
	??$_Buynode@V?$allocator@U?$_Tree_node@GPEAX@std@@@std@@AEAG@?$_Tree_node@GPEAX@std@@SAPEAU01@AEAV?$allocator@U?$_Tree_node@GPEAX@std@@@1@PEAU01@AEAG@Z
	??$_Buynode@V?$allocator@U?$_Tree_node@U?$pair@$$CBV?$basic_string@DU?$char_traits@D@std@@V?$allocator@D@2@@std@@V12@@std@@PEAX@std@@@std@@AEAU?$pair@$$CBV?$basic_string@DU?$char_traits@D@std@@V?$allocator@D@2@@std@@V12@@2@@?$_Tree_node@U?$pair@$$CBV?$basic_string@DU?$char_traits@D@std@@V?$allocator@D@2@@std@@V12@@std@@PEAX@std@@SAPEAU01@AEAV?$allocator@U?$_Tree_node@U?$pair@$$CBV?$basic_string@DU?$char_traits@D@std@@V?$allocator@D@2@@std@@V12@@std@@PEAX@std@@@1@PEAU01@AEAU?$pair@$$CBV?$basic_string@DU?$char_traits@D@std@@V?$allocator@D@2@@std@@V12@@1@@Z
	??$_Buynode@V?$allocator@U?$_Tree_node@U?$pair@$$CBV?$basic_string@DU?$char_traits@D@std@@V?$allocator@D@2@@std@@VEncodedAuthentication@cpr@@@std@@PEAX@std@@@std@@AEAU?$pair@$$CBV?$basic_string@DU?$char_traits@D@std@@V?$allocator@D@2@@std@@VEncodedAuthentication@cpr@@@2@@?$_Tree_node@U?$pair@$$CBV?$basic_string@DU?$char_traits@D@std@@V?$allocator@D@2@@std@@VEncodedAuthentication@cpr@@@std@@PEAX@std@@SAPEAU01@AEAV?$allocator@U?$_Tree_node@U?$pair@$$CBV?$basic_string@DU?$char_traits@D@std@@V?$allocator@D@2@@std@@VEncodedAuthentication@cpr@@@std@@PEAX@std@@@1@PEAU01@AEAU?$pair@$$CBV?$basic_string@DU?$char_traits@D@std@@V?$allocator@D@2@@std@@VEncodedAuthentication@cpr@@@1@@Z
	??$_Construct@$00PEAD@?$basic_string@DU?$char_traits@D@std@@V?$allocator@D@2@@std@@AEAAXQEAD_K@Z
	??$_Construct@$00PEBD@?$basic_string@DU?$char_traits@D@std@@V?$allocator@D@2@@std@@AEAAXQEBD_K@Z
	??$_Construct@$01PEBD@?$basic_string@DU?$char_traits@D@std@@V?$allocator@D@2@@std@@AEAAXQEBD_K@Z
	??$_Construct@V?$reference_wrapper@VProgressCallback@cpr@@@std@@@?$_Optional_construct_base@V?$reference_wrapper@VProgressCallback@cpr@@@std@@@std@@QEAAAEAV?$reference_wrapper@VProgressCallback@cpr@@@1@$$QEAV21@@Z
	??$_Construct_from_weak@VSession@cpr@@@?$_Ptr_base@VSession@cpr@@@std@@IEAA_NAEBV?$weak_ptr@VSession@cpr@@@1@@Z
	??$_Construct_in_place@PEADAEAPEAD@std@@YAXAEAPEAD0@Z
	??$_Construct_in_place@PEADAEBQEAD@std@@YAXAEAPEADAEBQEAD@Z
	??$_Construct_in_place@PEAU?$_List_node@UThreadData@ThreadPool@cpr@@PEAX@std@@AEAPEAU12@@std@@YAXAEAPEAU?$_List_node@UThreadData@ThreadPool@cpr@@PEAX@0@0@Z
	??$_Construct_in_place@PEAU?$_List_node@UThreadData@ThreadPool@cpr@@PEAX@std@@AEBQEAU12@@std@@YAXAEAPEAU?$_List_node@UThreadData@ThreadPool@cpr@@PEAX@0@AEBQEAU10@@Z
	??$_Construct_in_place@PEAU?$_List_node@V?$basic_string@DU?$char_traits@D@std@@V?$allocator@D@2@@std@@PEAX@std@@AEAPEAU12@@std@@YAXAEAPEAU?$_List_node@V?$basic_string@DU?$char_traits@D@std@@V?$allocator@D@2@@std@@PEAX@0@0@Z
	??$_Construct_in_place@PEAU?$_List_node@V?$basic_string@DU?$char_traits@D@std@@V?$allocator@D@2@@std@@PEAX@std@@AEBQEAU12@@std@@YAXAEAPEAU?$_List_node@V?$basic_string@DU?$char_traits@D@std@@V?$allocator@D@2@@std@@PEAX@0@AEBQEAU10@@Z
	??$_Construct_in_place@PEAU?$_List_node@V?$basic_string@DU?$char_traits@D@std@@V?$allocator@D@2@@std@@PEAX@std@@PEAU12@@std@@YAXAEAPEAU?$_List_node@V?$basic_string@DU?$char_traits@D@std@@V?$allocator@D@2@@std@@PEAX@0@$$QEAPEAU10@@Z
	??$_Construct_in_place@PEAU?$_Tree_node@GPEAX@std@@AEAPEAU12@@std@@YAXAEAPEAU?$_Tree_node@GPEAX@0@0@Z
	??$_Construct_in_place@PEAU?$_Tree_node@GPEAX@std@@AEBQEAU12@@std@@YAXAEAPEAU?$_Tree_node@GPEAX@0@AEBQEAU10@@Z
	??$_Construct_in_place@PEAU?$_Tree_node@U?$pair@$$CBV?$basic_string@DU?$char_traits@D@std@@V?$allocator@D@2@@std@@V12@@std@@PEAX@std@@AEAPEAU12@@std@@YAXAEAPEAU?$_Tree_node@U?$pair@$$CBV?$basic_string@DU?$char_traits@D@std@@V?$allocator@D@2@@std@@V12@@std@@PEAX@0@0@Z
	??$_Construct_in_place@PEAU?$_Tree_node@U?$pair@$$CBV?$basic_string@DU?$char_traits@D@std@@V?$allocator@D@2@@std@@V12@@std@@PEAX@std@@AEBQEAU12@@std@@YAXAEAPEAU?$_Tree_node@U?$pair@$$CBV?$basic_string@DU?$char_traits@D@std@@V?$allocator@D@2@@std@@V12@@std@@PEAX@0@AEBQEAU10@@Z
	??$_Construct_in_place@PEAU?$_Tree_node@U?$pair@$$CBV?$basic_string@DU?$char_traits@D@std@@V?$allocator@D@2@@std@@VEncodedAuthentication@cpr@@@std@@PEAX@std@@AEAPEAU12@@std@@YAXAEAPEAU?$_Tree_node@U?$pair@$$CBV?$basic_string@DU?$char_traits@D@std@@V?$allocator@D@2@@std@@VEncodedAuthentication@cpr@@@std@@PEAX@0@0@Z
	??$_Construct_in_place@PEAU?$_Tree_node@U?$pair@$$CBV?$basic_string@DU?$char_traits@D@std@@V?$allocator@D@2@@std@@VEncodedAuthentication@cpr@@@std@@PEAX@std@@AEBQEAU12@@std@@YAXAEAPEAU?$_Tree_node@U?$pair@$$CBV?$basic_string@DU?$char_traits@D@std@@V?$allocator@D@2@@std@@VEncodedAuthentication@cpr@@@std@@PEAX@0@AEBQEAU10@@Z
	??$_Construct_in_place@PEAU?$_Tree_node@U?$pair@$$CBW4AcceptEncodingMethods@cpr@@V?$basic_string@DU?$char_traits@D@std@@V?$allocator@D@2@@std@@@std@@PEAX@std@@AEAPEAU12@@std@@YAXAEAPEAU?$_Tree_node@U?$pair@$$CBW4AcceptEncodingMethods@cpr@@V?$basic_string@DU?$char_traits@D@std@@V?$allocator@D@2@@std@@@std@@PEAX@0@0@Z
	??$_Construct_in_place@PEAU?$_Tree_node@U?$pair@$$CBW4AcceptEncodingMethods@cpr@@V?$basic_string@DU?$char_traits@D@std@@V?$allocator@D@2@@std@@@std@@PEAX@std@@AEBQEAU12@@std@@YAXAEAPEAU?$_Tree_node@U?$pair@$$CBW4AcceptEncodingMethods@cpr@@V?$basic_string@DU?$char_traits@D@std@@V?$allocator@D@2@@std@@@std@@PEAX@0@AEBQEAU10@@Z
	??$_Construct_in_place@PEAV?$function@$$A6AXXZ@std@@AEAPEAV12@@std@@YAXAEAPEAV?$function@$$A6AXXZ@0@0@Z
	??$_Construct_in_place@PEAV?$shared_ptr@VInterceptor@cpr@@@std@@AEAPEAV12@@std@@YAXAEAPEAV?$shared_ptr@VInterceptor@cpr@@@0@0@Z
	??$_Construct_in_place@PEAV?$shared_ptr@VInterceptorMulti@cpr@@@std@@AEAPEAV12@@std@@YAXAEAPEAV?$shared_ptr@VInterceptorMulti@cpr@@@0@0@Z
	??$_Construct_in_place@U?$pair@V?$shared_ptr@VSession@cpr@@@std@@W4HttpMethod@MultiPerform@cpr@@@std@@AEAV?$shared_ptr@VSession@cpr@@@2@AEAW4HttpMethod@MultiPerform@cpr@@@std@@YAXAEAU?$pair@V?$shared_ptr@VSession@cpr@@@std@@W4HttpMethod@MultiPerform@cpr@@@0@AEAV?$shared_ptr@VSession@cpr@@@0@AEAW4HttpMethod@MultiPerform@cpr@@@Z
	??$_Construct_in_place@UPair@cpr@@U12@@std@@YAXAEAUPair@cpr@@$$QEAU12@@Z
	??$_Construct_in_place@UParameter@cpr@@U12@@std@@YAXAEAUParameter@cpr@@$$QEAU12@@Z
	??$_Construct_in_place@U_Container_proxy@std@@PEAU_Container_base12@2@@std@@YAXAEAU_Container_proxy@0@$$QEAPEAU_Container_base12@0@@Z
	??$_Construct_in_place@V?$_List_unchecked_const_iterator@V?$_List_val@U?$_List_simple_types@V?$basic_string@DU?$char_traits@D@std@@V?$allocator@D@2@@std@@@std@@@std@@U_Iterator_base0@2@@std@@AEBV12@@std@@YAXAEAV?$_List_unchecked_const_iterator@V?$_List_val@U?$_List_simple_types@V?$basic_string@DU?$char_traits@D@std@@V?$allocator@D@2@@std@@@std@@@std@@U_Iterator_base0@2@@0@AEBV10@@Z
	??$_Construct_in_place@V?$reference_wrapper@VProgressCallback@cpr@@@std@@V12@@std@@YAXAEAV?$reference_wrapper@VProgressCallback@cpr@@@0@$$QEAV10@@Z
	??$_Construct_in_place@VResponse@cpr@@V12@@std@@YAXAEAVResponse@cpr@@$$QEAV12@@Z
	??$_Construct_n@AEBQEAUFile@cpr@@AEBQEAU12@@?$vector@UFile@cpr@@V?$allocator@UFile@cpr@@@std@@@std@@AEAAX_KAEBQEAUFile@cpr@@1@Z
	??$_Construct_n@AEBQEAV?$basic_string@DU?$char_traits@D@std@@V?$allocator@D@2@@std@@AEBQEAV12@@?$vector@V?$basic_string@DU?$char_traits@D@std@@V?$allocator@D@2@@std@@V?$allocator@V?$basic_string@DU?$char_traits@D@std@@V?$allocator@D@2@@std@@@2@@std@@AEAAX_KAEBQEAV?$basic_string@DU?$char_traits@D@std@@V?$allocator@D@2@@1@1@Z
	??$_Construct_n@AEBQEAVCookie@cpr@@AEBQEAV12@@?$vector@VCookie@cpr@@V?$allocator@VCookie@cpr@@@std@@@std@@AEAAX_KAEBQEAVCookie@cpr@@1@Z
	??$_Construct_n@PEBUPair@cpr@@PEBU12@@?$vector@UPair@cpr@@V?$allocator@UPair@cpr@@@std@@@std@@AEAAX_K$$QEAPEBUPair@cpr@@1@Z
	??$_Construct_n@PEBUParameter@cpr@@PEBU12@@?$vector@UParameter@cpr@@V?$allocator@UParameter@cpr@@@std@@@std@@AEAAX_K$$QEAPEBUParameter@cpr@@1@Z
	??$_Construct_n@PEBUPart@cpr@@PEBU12@@?$vector@UPart@cpr@@V?$allocator@UPart@cpr@@@std@@@std@@AEAAX_K$$QEAPEBUPart@cpr@@1@Z
	??$_Construct_n@PEBVResolve@cpr@@PEBV12@@?$vector@VResolve@cpr@@V?$allocator@VResolve@cpr@@@std@@@std@@AEAAX_K$$QEAPEBVResolve@cpr@@1@Z
	??$_Convert_size@_K_K@std@@YA_K_K@Z
	??$_Copy@$0A@@?$_Tree@V?$_Tmap_traits@V?$basic_string@DU?$char_traits@D@std@@V?$allocator@D@2@@std@@V12@U?$less@V?$basic_string@DU?$char_traits@D@std@@V?$allocator@D@2@@std@@@2@V?$allocator@U?$pair@$$CBV?$basic_string@DU?$char_traits@D@std@@V?$allocator@D@2@@std@@V12@@std@@@2@$0A@@std@@@std@@IEAAXAEBV01@@Z
	??$_Copy@$0A@@?$_Tree@V?$_Tmap_traits@V?$basic_string@DU?$char_traits@D@std@@V?$allocator@D@2@@std@@V12@UCaseInsensitiveCompare@cpr@@V?$allocator@U?$pair@$$CBV?$basic_string@DU?$char_traits@D@std@@V?$allocator@D@2@@std@@V12@@std@@@2@$0A@@std@@@std@@IEAAXAEBV01@@Z
	??$_Copy@$0A@@?$_Tree@V?$_Tmap_traits@V?$basic_string@DU?$char_traits@D@std@@V?$allocator@D@2@@std@@VEncodedAuthentication@cpr@@U?$less@V?$basic_string@DU?$char_traits@D@std@@V?$allocator@D@2@@std@@@2@V?$allocator@U?$pair@$$CBV?$basic_string@DU?$char_traits@D@std@@V?$allocator@D@2@@std@@VEncodedAuthentication@cpr@@@std@@@2@$0A@@std@@@std@@IEAAXAEBV01@@Z
	??$_Copy@$0A@@?$_Tree@V?$_Tset_traits@GU?$less@G@std@@V?$allocator@G@2@$0A@@std@@@std@@IEAAXAEBV01@@Z
	??$_Copy_construct_from@UCurlHolder@cpr@@@?$_Ptr_base@UCurlHolder@cpr@@@std@@IEAAXAEBV?$shared_ptr@UCurlHolder@cpr@@@1@@Z
	??$_Copy_construct_from@V?$packaged_task@$$A6A?AVResponse@cpr@@XZ@std@@@?$_Ptr_base@V?$packaged_task@$$A6A?AVResponse@cpr@@XZ@std@@@std@@IEAAXAEBV?$shared_ptr@V?$packaged_task@$$A6A?AVResponse@cpr@@XZ@std@@@1@@Z
	??$_Copy_construct_from@VInterceptor@cpr@@@?$_Ptr_base@VInterceptor@cpr@@@std@@IEAAXAEBV?$shared_ptr@VInterceptor@cpr@@@1@@Z
	??$_Copy_construct_from@VInterceptorMulti@cpr@@@?$_Ptr_base@VInterceptorMulti@cpr@@@std@@IEAAXAEBV?$shared_ptr@VInterceptorMulti@cpr@@@1@@Z
	??$_Copy_construct_from@VSession@cpr@@@?$_Ptr_base@VSession@cpr@@@std@@IEAAXAEBV?$shared_ptr@VSession@cpr@@@1@@Z
	??$_Copy_construct_from@Vthread@std@@@?$_Ptr_base@Vthread@std@@@std@@IEAAXAEBV?$shared_ptr@Vthread@std@@@1@@Z
	??$_Copy_memmove@PEAPEAV?$function@$$A6AXXZ@std@@PEAPEAV12@@std@@YAPEAPEAV?$function@$$A6AXXZ@0@PEAPEAV10@00@Z
	??$_Copy_memmove@PEAPEAV?$shared_ptr@VInterceptor@cpr@@@std@@PEAPEAV12@@std@@YAPEAPEAV?$shared_ptr@VInterceptor@cpr@@@0@PEAPEAV10@00@Z
	??$_Copy_memmove@PEAPEAV?$shared_ptr@VInterceptorMulti@cpr@@@std@@PEAPEAV12@@std@@YAPEAPEAV?$shared_ptr@VInterceptorMulti@cpr@@@0@PEAPEAV10@00@Z
	??$_Copy_n_unchecked4@PEAUFile@cpr@@_KPEAU12@@std@@YAPEAUFile@cpr@@PEAU12@_K0@Z
	??$_Copy_n_unchecked4@PEAUParameter@cpr@@_KPEAU12@@std@@YAPEAUParameter@cpr@@PEAU12@_K0@Z
	??$_Copy_nodes@$0A@@?$_Tree@V?$_Tmap_traits@V?$basic_string@DU?$char_traits@D@std@@V?$allocator@D@2@@std@@V12@U?$less@V?$basic_string@DU?$char_traits@D@std@@V?$allocator@D@2@@std@@@2@V?$allocator@U?$pair@$$CBV?$basic_string@DU?$char_traits@D@std@@V?$allocator@D@2@@std@@V12@@std@@@2@$0A@@std@@@std@@IEAAPEAU?$_Tree_node@U?$pair@$$CBV?$basic_string@DU?$char_traits@D@std@@V?$allocator@D@2@@std@@V12@@std@@PEAX@1@PEAU21@0@Z
	??$_Copy_nodes@$0A@@?$_Tree@V?$_Tmap_traits@V?$basic_string@DU?$char_traits@D@std@@V?$allocator@D@2@@std@@V12@UCaseInsensitiveCompare@cpr@@V?$allocator@U?$pair@$$CBV?$basic_string@DU?$char_traits@D@std@@V?$allocator@D@2@@std@@V12@@std@@@2@$0A@@std@@@std@@IEAAPEAU?$_Tree_node@U?$pair@$$CBV?$basic_string@DU?$char_traits@D@std@@V?$allocator@D@2@@std@@V12@@std@@PEAX@1@PEAU21@0@Z
	??$_Copy_nodes@$0A@@?$_Tree@V?$_Tmap_traits@V?$basic_string@DU?$char_traits@D@std@@V?$allocator@D@2@@std@@VEncodedAuthentication@cpr@@U?$less@V?$basic_string@DU?$char_traits@D@std@@V?$allocator@D@2@@std@@@2@V?$allocator@U?$pair@$$CBV?$basic_string@DU?$char_traits@D@std@@V?$allocator@D@2@@std@@VEncodedAuthentication@cpr@@@std@@@2@$0A@@std@@@std@@IEAAPEAU?$_Tree_node@U?$pair@$$CBV?$basic_string@DU?$char_traits@D@std@@V?$allocator@D@2@@std@@VEncodedAuthentication@cpr@@@std@@PEAX@1@PEAU21@0@Z
	??$_Copy_nodes@$0A@@?$_Tree@V?$_Tset_traits@GU?$less@G@std@@V?$allocator@G@2@$0A@@std@@@std@@IEAAPEAU?$_Tree_node@GPEAX@1@PEAU21@0@Z
	??$_Copy_or_move@$0A@G@?$_Tree@V?$_Tset_traits@GU?$less@G@std@@V?$allocator@G@2@$0A@@std@@@std@@IEAAPEAU?$_Tree_node@GPEAX@1@AEAG@Z
	??$_Copy_or_move@$0A@U?$pair@$$CBV?$basic_string@DU?$char_traits@D@std@@V?$allocator@D@2@@std@@V12@@std@@@?$_Tree@V?$_Tmap_traits@V?$basic_string@DU?$char_traits@D@std@@V?$allocator@D@2@@std@@V12@U?$less@V?$basic_string@DU?$char_traits@D@std@@V?$allocator@D@2@@std@@@2@V?$allocator@U?$pair@$$CBV?$basic_string@DU?$char_traits@D@std@@V?$allocator@D@2@@std@@V12@@std@@@2@$0A@@std@@@std@@IEAAPEAU?$_Tree_node@U?$pair@$$CBV?$basic_string@DU?$char_traits@D@std@@V?$allocator@D@2@@std@@V12@@std@@PEAX@1@AEAU?$pair@$$CBV?$basic_string@DU?$char_traits@D@std@@V?$allocator@D@2@@std@@V12@@1@@Z
	??$_Copy_or_move@$0A@U?$pair@$$CBV?$basic_string@DU?$char_traits@D@std@@V?$allocator@D@2@@std@@V12@@std@@@?$_Tree@V?$_Tmap_traits@V?$basic_string@DU?$char_traits@D@std@@V?$allocator@D@2@@std@@V12@UCaseInsensitiveCompare@cpr@@V?$allocator@U?$pair@$$CBV?$basic_string@DU?$char_traits@D@std@@V?$allocator@D@2@@std@@V12@@std@@@2@$0A@@std@@@std@@IEAAPEAU?$_Tree_node@U?$pair@$$CBV?$basic_string@DU?$char_traits@D@std@@V?$allocator@D@2@@std@@V12@@std@@PEAX@1@AEAU?$pair@$$CBV?$basic_string@DU?$char_traits@D@std@@V?$allocator@D@2@@std@@V12@@1@@Z
	??$_Copy_or_move@$0A@U?$pair@$$CBV?$basic_string@DU?$char_traits@D@std@@V?$allocator@D@2@@std@@VEncodedAuthentication@cpr@@@std@@@?$_Tree@V?$_Tmap_traits@V?$basic_string@DU?$char_traits@D@std@@V?$allocator@D@2@@std@@VEncodedAuthentication@cpr@@U?$less@V?$basic_string@DU?$char_traits@D@std@@V?$allocator@D@2@@std@@@2@V?$allocator@U?$pair@$$CBV?$basic_string@DU?$char_traits@D@std@@V?$allocator@D@2@@std@@VEncodedAuthentication@cpr@@@std@@@2@$0A@@std@@@std@@IEAAPEAU?$_Tree_node@U?$pair@$$CBV?$basic_string@DU?$char_traits@D@std@@V?$allocator@D@2@@std@@VEncodedAuthentication@cpr@@@std@@PEAX@1@AEAU?$pair@$$CBV?$basic_string@DU?$char_traits@D@std@@V?$allocator@D@2@@std@@VEncodedAuthentication@cpr@@@1@@Z
	??$_Deallocate@$07$0A@@std@@YAXPEAX_K@Z
	??$_Deallocate@$0BA@$0A@@std@@YAXPEAX_K@Z
	??$_Deallocate_plain@V?$allocator@U_Container_proxy@std@@@std@@@std@@YAXAEAV?$allocator@U_Container_proxy@std@@@0@QEAU_Container_proxy@0@@Z
	??$_Debug_lt_pred@AEBU?$less@V?$basic_string@DU?$char_traits@D@std@@V?$allocator@D@2@@std@@@std@@AEBV?$basic_string@DU?$char_traits@D@std@@V?$allocator@D@2@@2@AEBV32@$0A@@std@@YA_NAEBU?$less@V?$basic_string@DU?$char_traits@D@std@@V?$allocator@D@2@@std@@@0@AEBV?$basic_string@DU?$char_traits@D@std@@V?$allocator@D@2@@0@1@Z
	??$_Debug_lt_pred@AEBU?$less@W4AcceptEncodingMethods@cpr@@@std@@AEBW4AcceptEncodingMethods@cpr@@AEBW434@$0A@@std@@YA_NAEBU?$less@W4AcceptEncodingMethods@cpr@@@0@AEBW4AcceptEncodingMethods@cpr@@1@Z
	??$_Debug_lt_pred@AEBUCaseInsensitiveCompare@cpr@@AEBV?$basic_string@DU?$char_traits@D@std@@V?$allocator@D@2@@std@@AEBV34@$0A@@std@@YA_NAEBUCaseInsensitiveCompare@cpr@@AEBV?$basic_string@DU?$char_traits@D@std@@V?$allocator@D@2@@0@1@Z
	??$_Delete_plain_internal@V?$allocator@U_Container_proxy@std@@@std@@@std@@YAXAEAV?$allocator@U_Container_proxy@std@@@0@QEAU_Container_proxy@0@@Z
	??$_Destroy_in_place@PEAD@std@@YAXAEAPEAD@Z
	??$_Destroy_in_place@PEAU?$_List_node@UThreadData@ThreadPool@cpr@@PEAX@std@@@std@@YAXAEAPEAU?$_List_node@UThreadData@ThreadPool@cpr@@PEAX@0@@Z
	??$_Destroy_in_place@PEAU?$_List_node@V?$basic_string@DU?$char_traits@D@std@@V?$allocator@D@2@@std@@PEAX@std@@@std@@YAXAEAPEAU?$_List_node@V?$basic_string@DU?$char_traits@D@std@@V?$allocator@D@2@@std@@PEAX@0@@Z
	??$_Destroy_in_place@PEAU?$_Tree_node@GPEAX@std@@@std@@YAXAEAPEAU?$_Tree_node@GPEAX@0@@Z
	??$_Destroy_in_place@PEAU?$_Tree_node@U?$pair@$$CBV?$basic_string@DU?$char_traits@D@std@@V?$allocator@D@2@@std@@V12@@std@@PEAX@std@@@std@@YAXAEAPEAU?$_Tree_node@U?$pair@$$CBV?$basic_string@DU?$char_traits@D@std@@V?$allocator@D@2@@std@@V12@@std@@PEAX@0@@Z
	??$_Destroy_in_place@PEAU?$_Tree_node@U?$pair@$$CBV?$basic_string@DU?$char_traits@D@std@@V?$allocator@D@2@@std@@VEncodedAuthentication@cpr@@@std@@PEAX@std@@@std@@YAXAEAPEAU?$_Tree_node@U?$pair@$$CBV?$basic_string@DU?$char_traits@D@std@@V?$allocator@D@2@@std@@VEncodedAuthentication@cpr@@@std@@PEAX@0@@Z
	??$_Destroy_in_place@PEAU?$_Tree_node@U?$pair@$$CBW4AcceptEncodingMethods@cpr@@V?$basic_string@DU?$char_traits@D@std@@V?$allocator@D@2@@std@@@std@@PEAX@std@@@std@@YAXAEAPEAU?$_Tree_node@U?$pair@$$CBW4AcceptEncodingMethods@cpr@@V?$basic_string@DU?$char_traits@D@std@@V?$allocator@D@2@@std@@@std@@PEAX@0@@Z
	??$_Destroy_in_place@PEAV?$function@$$A6AXXZ@std@@@std@@YAXAEAPEAV?$function@$$A6AXXZ@0@@Z
	??$_Destroy_in_place@PEAV?$shared_ptr@VInterceptor@cpr@@@std@@@std@@YAXAEAPEAV?$shared_ptr@VInterceptor@cpr@@@0@@Z
	??$_Destroy_in_place@PEAV?$shared_ptr@VInterceptorMulti@cpr@@@std@@@std@@YAXAEAPEAV?$shared_ptr@VInterceptorMulti@cpr@@@0@@Z
	??$_Destroy_in_place@V?$packaged_task@$$A6A?AVResponse@cpr@@XZ@std@@@std@@YAXAEAV?$packaged_task@$$A6A?AVResponse@cpr@@XZ@0@@Z
	??$_Destroy_range@PEAPEAV?$function@$$A6AXXZ@std@@PEAPEAV12@@std@@YAXPEAPEAV?$function@$$A6AXXZ@0@QEAPEAV10@@Z
	??$_Destroy_range@PEAPEAV?$shared_ptr@VInterceptor@cpr@@@std@@PEAPEAV12@@std@@YAXPEAPEAV?$shared_ptr@VInterceptor@cpr@@@0@QEAPEAV10@@Z
	??$_Destroy_range@PEAPEAV?$shared_ptr@VInterceptorMulti@cpr@@@std@@PEAPEAV12@@std@@YAXPEAPEAV?$shared_ptr@VInterceptorMulti@cpr@@@0@QEAPEAV10@@Z
	??$_Destroy_range@PEAV?$_List_unchecked_const_iterator@V?$_List_val@U?$_List_simple_types@V?$basic_string@DU?$char_traits@D@std@@V?$allocator@D@2@@std@@@std@@@std@@U_Iterator_base0@2@@std@@PEAV12@@std@@YAXPEAV?$_List_unchecked_const_iterator@V?$_List_val@U?$_List_simple_types@V?$basic_string@DU?$char_traits@D@std@@V?$allocator@D@2@@std@@@std@@@std@@U_Iterator_base0@2@@0@QEAV10@@Z
	??$_Destroy_range@V?$allocator@U?$pair@V?$shared_ptr@VSession@cpr@@@std@@W4HttpMethod@MultiPerform@cpr@@@std@@@std@@@std@@YAXPEAU?$pair@V?$shared_ptr@VSession@cpr@@@std@@W4HttpMethod@MultiPerform@cpr@@@0@QEAU10@AEAV?$allocator@U?$pair@V?$shared_ptr@VSession@cpr@@@std@@W4HttpMethod@MultiPerform@cpr@@@std@@@0@@Z
	??$_Destroy_range@V?$allocator@UFile@cpr@@@std@@@std@@YAXPEAUFile@cpr@@QEAU12@AEAV?$allocator@UFile@cpr@@@0@@Z
	??$_Destroy_range@V?$allocator@UPair@cpr@@@std@@@std@@YAXPEAUPair@cpr@@QEAU12@AEAV?$allocator@UPair@cpr@@@0@@Z
	??$_Destroy_range@V?$allocator@UParameter@cpr@@@std@@@std@@YAXPEAUParameter@cpr@@QEAU12@AEAV?$allocator@UParameter@cpr@@@0@@Z
	??$_Destroy_range@V?$allocator@UPart@cpr@@@std@@@std@@YAXPEAUPart@cpr@@QEAU12@AEAV?$allocator@UPart@cpr@@@0@@Z
	??$_Destroy_range@V?$allocator@V?$basic_string@DU?$char_traits@D@std@@V?$allocator@D@2@@std@@@std@@@std@@YAXPEAV?$basic_string@DU?$char_traits@D@std@@V?$allocator@D@2@@0@QEAV10@AEAV?$allocator@V?$basic_string@DU?$char_traits@D@std@@V?$allocator@D@2@@std@@@0@@Z
	??$_Destroy_range@V?$allocator@VCertInfo@cpr@@@std@@@std@@YAXPEAVCertInfo@cpr@@QEAV12@AEAV?$allocator@VCertInfo@cpr@@@0@@Z
	??$_Destroy_range@V?$allocator@VCookie@cpr@@@std@@@std@@YAXPEAVCookie@cpr@@QEAV12@AEAV?$allocator@VCookie@cpr@@@0@@Z
	??$_Destroy_range@V?$allocator@VResolve@cpr@@@std@@@std@@YAXPEAVResolve@cpr@@QEAV12@AEAV?$allocator@VResolve@cpr@@@0@@Z
	??$_Destroy_range@V?$allocator@VResponse@cpr@@@std@@@std@@YAXPEAVResponse@cpr@@QEAV12@AEAV?$allocator@VResponse@cpr@@@0@@Z
	??$_Emplace@AEAUThreadData@ThreadPool@cpr@@@?$list@UThreadData@ThreadPool@cpr@@V?$allocator@UThreadData@ThreadPool@cpr@@@std@@@std@@QEAAPEAU?$_List_node@UThreadData@ThreadPool@cpr@@PEAX@1@QEAU21@AEAUThreadData@ThreadPool@cpr@@@Z
	??$_Emplace_back@AEAPEAV?$function@$$A6AXXZ@std@@@?$_Uninitialized_backout@PEAPEAV?$function@$$A6AXXZ@std@@@std@@QEAAXAEAPEAV?$function@$$A6AXXZ@1@@Z
	??$_Emplace_back@AEAPEAV?$shared_ptr@VInterceptor@cpr@@@std@@@?$_Uninitialized_backout@PEAPEAV?$shared_ptr@VInterceptor@cpr@@@std@@@std@@QEAAXAEAPEAV?$shared_ptr@VInterceptor@cpr@@@1@@Z
	??$_Emplace_back@AEAPEAV?$shared_ptr@VInterceptorMulti@cpr@@@std@@@?$_Uninitialized_backout@PEAPEAV?$shared_ptr@VInterceptorMulti@cpr@@@std@@@std@@QEAAXAEAPEAV?$shared_ptr@VInterceptorMulti@cpr@@@1@@Z
	??$_Emplace_back@AEAUFile@cpr@@@?$_Uninitialized_backout_al@V?$allocator@UFile@cpr@@@std@@@std@@QEAAXAEAUFile@cpr@@@Z
	??$_Emplace_back@AEAUParameter@cpr@@@?$_Uninitialized_backout_al@V?$allocator@UParameter@cpr@@@std@@@std@@QEAAXAEAUParameter@cpr@@@Z
	??$_Emplace_back@AEAV?$basic_string@DU?$char_traits@D@std@@V?$allocator@D@2@@std@@@?$_Uninitialized_backout_al@V?$allocator@V?$basic_string@DU?$char_traits@D@std@@V?$allocator@D@2@@std@@@std@@@std@@QEAAXAEAV?$basic_string@DU?$char_traits@D@std@@V?$allocator@D@2@@1@@Z
	??$_Emplace_back@AEAVCertInfo@cpr@@@?$_Uninitialized_backout_al@V?$allocator@VCertInfo@cpr@@@std@@@std@@QEAAXAEAVCertInfo@cpr@@@Z
	??$_Emplace_back@AEAVCookie@cpr@@@?$_Uninitialized_backout_al@V?$allocator@VCookie@cpr@@@std@@@std@@QEAAXAEAVCookie@cpr@@@Z
	??$_Emplace_back@AEBUPair@cpr@@@?$_Uninitialized_backout_al@V?$allocator@UPair@cpr@@@std@@@std@@QEAAXAEBUPair@cpr@@@Z
	??$_Emplace_back@AEBUParameter@cpr@@@?$_Uninitialized_backout_al@V?$allocator@UParameter@cpr@@@std@@@std@@QEAAXAEBUParameter@cpr@@@Z
	??$_Emplace_back@AEBUPart@cpr@@@?$_Uninitialized_backout_al@V?$allocator@UPart@cpr@@@std@@@std@@QEAAXAEBUPart@cpr@@@Z
	??$_Emplace_back@AEBV?$_List_unchecked_const_iterator@V?$_List_val@U?$_List_simple_types@V?$basic_string@DU?$char_traits@D@std@@V?$allocator@D@2@@std@@@std@@@std@@U_Iterator_base0@2@@std@@@?$_Uninitialized_backout@PEAV?$_List_unchecked_const_iterator@V?$_List_val@U?$_List_simple_types@V?$basic_string@DU?$char_traits@D@std@@V?$allocator@D@2@@std@@@std@@@std@@U_Iterator_base0@2@@std@@@std@@QEAAXAEBV?$_List_unchecked_const_iterator@V?$_List_val@U?$_List_simple_types@V?$basic_string@DU?$char_traits@D@std@@V?$allocator@D@2@@std@@@std@@@std@@U_Iterator_base0@2@@1@@Z
	??$_Emplace_back@AEBVResolve@cpr@@@?$_Uninitialized_backout_al@V?$allocator@VResolve@cpr@@@std@@@std@@QEAAXAEBVResolve@cpr@@@Z
	??$_Emplace_back@U?$pair@V?$shared_ptr@VSession@cpr@@@std@@W4HttpMethod@MultiPerform@cpr@@@std@@@?$_Uninitialized_backout_al@V?$allocator@U?$pair@V?$shared_ptr@VSession@cpr@@@std@@W4HttpMethod@MultiPerform@cpr@@@std@@@std@@@std@@QEAAX$$QEAU?$pair@V?$shared_ptr@VSession@cpr@@@std@@W4HttpMethod@MultiPerform@cpr@@@1@@Z
	??$_Emplace_back@UFile@cpr@@@?$_Uninitialized_backout_al@V?$allocator@UFile@cpr@@@std@@@std@@QEAAX$$QEAUFile@cpr@@@Z
	??$_Emplace_back@UPair@cpr@@@?$_Uninitialized_backout_al@V?$allocator@UPair@cpr@@@std@@@std@@QEAAX$$QEAUPair@cpr@@@Z
	??$_Emplace_back@UParameter@cpr@@@?$_Uninitialized_backout_al@V?$allocator@UParameter@cpr@@@std@@@std@@QEAAX$$QEAUParameter@cpr@@@Z
	??$_Emplace_back@V?$basic_string@DU?$char_traits@D@std@@V?$allocator@D@2@@std@@@?$_Uninitialized_backout_al@V?$allocator@V?$basic_string@DU?$char_traits@D@std@@V?$allocator@D@2@@std@@@std@@@std@@QEAAX$$QEAV?$basic_string@DU?$char_traits@D@std@@V?$allocator@D@2@@1@@Z
	??$_Emplace_back@VCertInfo@cpr@@@?$_Uninitialized_backout_al@V?$allocator@VCertInfo@cpr@@@std@@@std@@QEAAX$$QEAVCertInfo@cpr@@@Z
	??$_Emplace_back@VCookie@cpr@@@?$_Uninitialized_backout_al@V?$allocator@VCookie@cpr@@@std@@@std@@QEAAX$$QEAVCookie@cpr@@@Z
	??$_Emplace_back@VResponse@cpr@@@?$_Uninitialized_backout_al@V?$allocator@VResponse@cpr@@@std@@@std@@QEAAX$$QEAVResponse@cpr@@@Z
	??$_Emplace_back_internal@AEBV?$shared_ptr@VInterceptor@cpr@@@std@@@?$deque@V?$shared_ptr@VInterceptor@cpr@@@std@@V?$allocator@V?$shared_ptr@VInterceptor@cpr@@@std@@@2@@std@@AEAAXAEBV?$shared_ptr@VInterceptor@cpr@@@1@@Z
	??$_Emplace_back_internal@AEBV?$shared_ptr@VInterceptorMulti@cpr@@@std@@@?$deque@V?$shared_ptr@VInterceptorMulti@cpr@@@std@@V?$allocator@V?$shared_ptr@VInterceptorMulti@cpr@@@std@@@2@@std@@AEAAXAEBV?$shared_ptr@VInterceptorMulti@cpr@@@1@@Z
	??$_Emplace_back_with_unused_capacity@AEAV?$shared_ptr@VSession@cpr@@@std@@AEAW4HttpMethod@MultiPerform@cpr@@@?$vector@U?$pair@V?$shared_ptr@VSession@cpr@@@std@@W4HttpMethod@MultiPerform@cpr@@@std@@V?$allocator@U?$pair@V?$shared_ptr@VSession@cpr@@@std@@W4HttpMethod@MultiPerform@cpr@@@std@@@2@@std@@AEAAAEAU?$pair@V?$shared_ptr@VSession@cpr@@@std@@W4HttpMethod@MultiPerform@cpr@@@1@AEAV?$shared_ptr@VSession@cpr@@@1@AEAW4HttpMethod@MultiPerform@cpr@@@Z
	??$_Emplace_back_with_unused_capacity@AEAVCertInfo@cpr@@@?$vector@VCertInfo@cpr@@V?$allocator@VCertInfo@cpr@@@std@@@std@@AEAAAEAVCertInfo@cpr@@AEAV23@@Z
	??$_Emplace_back_with_unused_capacity@AEAY00$$CBD@?$vector@V?$basic_string@DU?$char_traits@D@std@@V?$allocator@D@2@@std@@V?$allocator@V?$basic_string@DU?$char_traits@D@std@@V?$allocator@D@2@@std@@@2@@std@@AEAAAEAV?$basic_string@DU?$char_traits@D@std@@V?$allocator@D@2@@1@AEAY00$$CBD@Z
	??$_Emplace_back_with_unused_capacity@AEBUFile@cpr@@@?$vector@UFile@cpr@@V?$allocator@UFile@cpr@@@std@@@std@@AEAAAEAUFile@cpr@@AEBU23@@Z
	??$_Emplace_back_with_unused_capacity@AEBUPair@cpr@@@?$vector@UPair@cpr@@V?$allocator@UPair@cpr@@@std@@@std@@AEAAAEAUPair@cpr@@AEBU23@@Z
	??$_Emplace_back_with_unused_capacity@AEBUParameter@cpr@@@?$vector@UParameter@cpr@@V?$allocator@UParameter@cpr@@@std@@@std@@AEAAAEAUParameter@cpr@@AEBU23@@Z
	??$_Emplace_back_with_unused_capacity@AEBV?$basic_string@DU?$char_traits@D@std@@V?$allocator@D@2@@std@@@?$vector@UFile@cpr@@V?$allocator@UFile@cpr@@@std@@@std@@AEAAAEAUFile@cpr@@AEBV?$basic_string@DU?$char_traits@D@std@@V?$allocator@D@2@@1@@Z
	??$_Emplace_back_with_unused_capacity@AEBV?$basic_string@DU?$char_traits@D@std@@V?$allocator@D@2@@std@@@?$vector@V?$basic_string@DU?$char_traits@D@std@@V?$allocator@D@2@@std@@V?$allocator@V?$basic_string@DU?$char_traits@D@std@@V?$allocator@D@2@@std@@@2@@std@@AEAAAEAV?$basic_string@DU?$char_traits@D@std@@V?$allocator@D@2@@1@AEBV21@@Z
	??$_Emplace_back_with_unused_capacity@AEBVCookie@cpr@@@?$vector@VCookie@cpr@@V?$allocator@VCookie@cpr@@@std@@@std@@AEAAAEAVCookie@cpr@@AEBV23@@Z
	??$_Emplace_back_with_unused_capacity@AEBVResponse@cpr@@@?$vector@VResponse@cpr@@V?$allocator@VResponse@cpr@@@std@@@std@@AEAAAEAVResponse@cpr@@AEBV23@@Z
	??$_Emplace_back_with_unused_capacity@UPair@cpr@@@?$vector@UPair@cpr@@V?$allocator@UPair@cpr@@@std@@@std@@AEAAAEAUPair@cpr@@$$QEAU23@@Z
	??$_Emplace_back_with_unused_capacity@UParameter@cpr@@@?$vector@UParameter@cpr@@V?$allocator@UParameter@cpr@@@std@@@std@@AEAAAEAUParameter@cpr@@$$QEAU23@@Z
	??$_Emplace_back_with_unused_capacity@VResponse@cpr@@@?$vector@VResponse@cpr@@V?$allocator@VResponse@cpr@@@std@@@std@@AEAAAEAVResponse@cpr@@$$QEAV23@@Z
	??$_Emplace_hint@AEBU?$pair@$$CBV?$basic_string@DU?$char_traits@D@std@@V?$allocator@D@2@@std@@V12@@std@@@?$_Tree@V?$_Tmap_traits@V?$basic_string@DU?$char_traits@D@std@@V?$allocator@D@2@@std@@V12@U?$less@V?$basic_string@DU?$char_traits@D@std@@V?$allocator@D@2@@std@@@2@V?$allocator@U?$pair@$$CBV?$basic_string@DU?$char_traits@D@std@@V?$allocator@D@2@@std@@V12@@std@@@2@$0A@@std@@@std@@IEAAPEAU?$_Tree_node@U?$pair@$$CBV?$basic_string@DU?$char_traits@D@std@@V?$allocator@D@2@@std@@V12@@std@@PEAX@1@QEAU21@AEBU?$pair@$$CBV?$basic_string@DU?$char_traits@D@std@@V?$allocator@D@2@@std@@V12@@1@@Z
	??$_Emplace_hint@AEBU?$pair@$$CBW4AcceptEncodingMethods@cpr@@V?$basic_string@DU?$char_traits@D@std@@V?$allocator@D@2@@std@@@std@@@?$_Tree@V?$_Tmap_traits@W4AcceptEncodingMethods@cpr@@V?$basic_string@DU?$char_traits@D@std@@V?$allocator@D@2@@std@@U?$less@W4AcceptEncodingMethods@cpr@@@4@V?$allocator@U?$pair@$$CBW4AcceptEncodingMethods@cpr@@V?$basic_string@DU?$char_traits@D@std@@V?$allocator@D@2@@std@@@std@@@4@$0A@@std@@@std@@IEAAPEAU?$_Tree_node@U?$pair@$$CBW4AcceptEncodingMethods@cpr@@V?$basic_string@DU?$char_traits@D@std@@V?$allocator@D@2@@std@@@std@@PEAX@1@QEAU21@AEBU?$pair@$$CBW4AcceptEncodingMethods@cpr@@V?$basic_string@DU?$char_traits@D@std@@V?$allocator@D@2@@std@@@1@@Z
	??$_Emplace_one_at_back@AEAV?$shared_ptr@VSession@cpr@@@std@@AEAW4HttpMethod@MultiPerform@cpr@@@?$vector@U?$pair@V?$shared_ptr@VSession@cpr@@@std@@W4HttpMethod@MultiPerform@cpr@@@std@@V?$allocator@U?$pair@V?$shared_ptr@VSession@cpr@@@std@@W4HttpMethod@MultiPerform@cpr@@@std@@@2@@std@@AEAAAEAU?$pair@V?$shared_ptr@VSession@cpr@@@std@@W4HttpMethod@MultiPerform@cpr@@@1@AEAV?$shared_ptr@VSession@cpr@@@1@AEAW4HttpMethod@MultiPerform@cpr@@@Z
	??$_Emplace_one_at_back@AEAVCertInfo@cpr@@@?$vector@VCertInfo@cpr@@V?$allocator@VCertInfo@cpr@@@std@@@std@@AEAAAEAVCertInfo@cpr@@AEAV23@@Z
	??$_Emplace_one_at_back@AEAY00$$CBD@?$vector@V?$basic_string@DU?$char_traits@D@std@@V?$allocator@D@2@@std@@V?$allocator@V?$basic_string@DU?$char_traits@D@std@@V?$allocator@D@2@@std@@@2@@std@@AEAAAEAV?$basic_string@DU?$char_traits@D@std@@V?$allocator@D@2@@1@AEAY00$$CBD@Z
	??$_Emplace_one_at_back@AEBUFile@cpr@@@?$vector@UFile@cpr@@V?$allocator@UFile@cpr@@@std@@@std@@AEAAAEAUFile@cpr@@AEBU23@@Z
	??$_Emplace_one_at_back@AEBUPair@cpr@@@?$vector@UPair@cpr@@V?$allocator@UPair@cpr@@@std@@@std@@AEAAAEAUPair@cpr@@AEBU23@@Z
	??$_Emplace_one_at_back@AEBUParameter@cpr@@@?$vector@UParameter@cpr@@V?$allocator@UParameter@cpr@@@std@@@std@@AEAAAEAUParameter@cpr@@AEBU23@@Z
	??$_Emplace_one_at_back@AEBV?$basic_string@DU?$char_traits@D@std@@V?$allocator@D@2@@std@@@?$vector@UFile@cpr@@V?$allocator@UFile@cpr@@@std@@@std@@AEAAAEAUFile@cpr@@AEBV?$basic_string@DU?$char_traits@D@std@@V?$allocator@D@2@@1@@Z
	??$_Emplace_one_at_back@AEBV?$basic_string@DU?$char_traits@D@std@@V?$allocator@D@2@@std@@@?$vector@V?$basic_string@DU?$char_traits@D@std@@V?$allocator@D@2@@std@@V?$allocator@V?$basic_string@DU?$char_traits@D@std@@V?$allocator@D@2@@std@@@2@@std@@AEAAAEAV?$basic_string@DU?$char_traits@D@std@@V?$allocator@D@2@@1@AEBV21@@Z
	??$_Emplace_one_at_back@AEBVCookie@cpr@@@?$vector@VCookie@cpr@@V?$allocator@VCookie@cpr@@@std@@@std@@AEAAAEAVCookie@cpr@@AEBV23@@Z
	??$_Emplace_one_at_back@AEBVResponse@cpr@@@?$vector@VResponse@cpr@@V?$allocator@VResponse@cpr@@@std@@@std@@AEAAAEAVResponse@cpr@@AEBV23@@Z
	??$_Emplace_one_at_back@UPair@cpr@@@?$vector@UPair@cpr@@V?$allocator@UPair@cpr@@@std@@@std@@AEAAAEAUPair@cpr@@$$QEAU23@@Z
	??$_Emplace_one_at_back@UParameter@cpr@@@?$vector@UParameter@cpr@@V?$allocator@UParameter@cpr@@@std@@@std@@AEAAAEAUParameter@cpr@@$$QEAU23@@Z
	??$_Emplace_one_at_back@VResponse@cpr@@@?$vector@VResponse@cpr@@V?$allocator@VResponse@cpr@@@std@@@std@@AEAAAEAVResponse@cpr@@$$QEAV23@@Z
	??$_Emplace_reallocate@AEAV?$shared_ptr@VSession@cpr@@@std@@AEAW4HttpMethod@MultiPerform@cpr@@@?$vector@U?$pair@V?$shared_ptr@VSession@cpr@@@std@@W4HttpMethod@MultiPerform@cpr@@@std@@V?$allocator@U?$pair@V?$shared_ptr@VSession@cpr@@@std@@W4HttpMethod@MultiPerform@cpr@@@std@@@2@@std@@AEAAPEAU?$pair@V?$shared_ptr@VSession@cpr@@@std@@W4HttpMethod@MultiPerform@cpr@@@1@QEAU21@AEAV?$shared_ptr@VSession@cpr@@@1@AEAW4HttpMethod@MultiPerform@cpr@@@Z
	??$_Emplace_reallocate@AEAVCertInfo@cpr@@@?$vector@VCertInfo@cpr@@V?$allocator@VCertInfo@cpr@@@std@@@std@@AEAAPEAVCertInfo@cpr@@QEAV23@AEAV23@@Z
	??$_Emplace_reallocate@AEAY00$$CBD@?$vector@V?$basic_string@DU?$char_traits@D@std@@V?$allocator@D@2@@std@@V?$allocator@V?$basic_string@DU?$char_traits@D@std@@V?$allocator@D@2@@std@@@2@@std@@AEAAPEAV?$basic_string@DU?$char_traits@D@std@@V?$allocator@D@2@@1@QEAV21@AEAY00$$CBD@Z
	??$_Emplace_reallocate@AEBUFile@cpr@@@?$vector@UFile@cpr@@V?$allocator@UFile@cpr@@@std@@@std@@AEAAPEAUFile@cpr@@QEAU23@AEBU23@@Z
	??$_Emplace_reallocate@AEBUPair@cpr@@@?$vector@UPair@cpr@@V?$allocator@UPair@cpr@@@std@@@std@@AEAAPEAUPair@cpr@@QEAU23@AEBU23@@Z
	??$_Emplace_reallocate@AEBUParameter@cpr@@@?$vector@UParameter@cpr@@V?$allocator@UParameter@cpr@@@std@@@std@@AEAAPEAUParameter@cpr@@QEAU23@AEBU23@@Z
	??$_Emplace_reallocate@AEBV?$basic_string@DU?$char_traits@D@std@@V?$allocator@D@2@@std@@@?$vector@UFile@cpr@@V?$allocator@UFile@cpr@@@std@@@std@@AEAAPEAUFile@cpr@@QEAU23@AEBV?$basic_string@DU?$char_traits@D@std@@V?$allocator@D@2@@1@@Z
	??$_Emplace_reallocate@AEBV?$basic_string@DU?$char_traits@D@std@@V?$allocator@D@2@@std@@@?$vector@V?$basic_string@DU?$char_traits@D@std@@V?$allocator@D@2@@std@@V?$allocator@V?$basic_string@DU?$char_traits@D@std@@V?$allocator@D@2@@std@@@2@@std@@AEAAPEAV?$basic_string@DU?$char_traits@D@std@@V?$allocator@D@2@@1@QEAV21@AEBV21@@Z
	??$_Emplace_reallocate@AEBVCookie@cpr@@@?$vector@VCookie@cpr@@V?$allocator@VCookie@cpr@@@std@@@std@@AEAAPEAVCookie@cpr@@QEAV23@AEBV23@@Z
	??$_Emplace_reallocate@AEBVResponse@cpr@@@?$vector@VResponse@cpr@@V?$allocator@VResponse@cpr@@@std@@@std@@AEAAPEAVResponse@cpr@@QEAV23@AEBV23@@Z
	??$_Emplace_reallocate@UPair@cpr@@@?$vector@UPair@cpr@@V?$allocator@UPair@cpr@@@std@@@std@@AEAAPEAUPair@cpr@@QEAU23@$$QEAU23@@Z
	??$_Emplace_reallocate@UParameter@cpr@@@?$vector@UParameter@cpr@@V?$allocator@UParameter@cpr@@@std@@@std@@AEAAPEAUParameter@cpr@@QEAU23@$$QEAU23@@Z
	??$_Emplace_reallocate@VResponse@cpr@@@?$vector@VResponse@cpr@@V?$allocator@VResponse@cpr@@@std@@@std@@AEAAPEAVResponse@cpr@@QEAV23@$$QEAV23@@Z
	??$_Emplace_result@VResponse@cpr@@@?$_Associated_state@VResponse@cpr@@@std@@QEAAX$$QEAVResponse@cpr@@@Z
	??$_Erase_head@V?$allocator@U?$_Tree_node@GPEAX@std@@@std@@@?$_Tree_val@U?$_Tree_simple_types@G@std@@@std@@QEAAXAEAV?$allocator@U?$_Tree_node@GPEAX@std@@@1@@Z
	??$_Erase_head@V?$allocator@U?$_Tree_node@U?$pair@$$CBV?$basic_string@DU?$char_traits@D@std@@V?$allocator@D@2@@std@@V12@@std@@PEAX@std@@@std@@@?$_Tree_val@U?$_Tree_simple_types@U?$pair@$$CBV?$basic_string@DU?$char_traits@D@std@@V?$allocator@D@2@@std@@V12@@std@@@std@@@std@@QEAAXAEAV?$allocator@U?$_Tree_node@U?$pair@$$CBV?$basic_string@DU?$char_traits@D@std@@V?$allocator@D@2@@std@@V12@@std@@PEAX@std@@@1@@Z
	??$_Erase_head@V?$allocator@U?$_Tree_node@U?$pair@$$CBV?$basic_string@DU?$char_traits@D@std@@V?$allocator@D@2@@std@@VEncodedAuthentication@cpr@@@std@@PEAX@std@@@std@@@?$_Tree_val@U?$_Tree_simple_types@U?$pair@$$CBV?$basic_string@DU?$char_traits@D@std@@V?$allocator@D@2@@std@@VEncodedAuthentication@cpr@@@std@@@std@@@std@@QEAAXAEAV?$allocator@U?$_Tree_node@U?$pair@$$CBV?$basic_string@DU?$char_traits@D@std@@V?$allocator@D@2@@std@@VEncodedAuthentication@cpr@@@std@@PEAX@std@@@1@@Z
	??$_Erase_head@V?$allocator@U?$_Tree_node@U?$pair@$$CBW4AcceptEncodingMethods@cpr@@V?$basic_string@DU?$char_traits@D@std@@V?$allocator@D@2@@std@@@std@@PEAX@std@@@std@@@?$_Tree_val@U?$_Tree_simple_types@U?$pair@$$CBW4AcceptEncodingMethods@cpr@@V?$basic_string@DU?$char_traits@D@std@@V?$allocator@D@2@@std@@@std@@@std@@@std@@QEAAXAEAV?$allocator@U?$_Tree_node@U?$pair@$$CBW4AcceptEncodingMethods@cpr@@V?$basic_string@DU?$char_traits@D@std@@V?$allocator@D@2@@std@@@std@@PEAX@std@@@1@@Z
	??$_Erase_tree@V?$allocator@U?$_Tree_node@GPEAX@std@@@std@@@?$_Tree_val@U?$_Tree_simple_types@G@std@@@std@@QEAAXAEAV?$allocator@U?$_Tree_node@GPEAX@std@@@1@PEAU?$_Tree_node@GPEAX@1@@Z
	??$_Erase_tree@V?$allocator@U?$_Tree_node@U?$pair@$$CBV?$basic_string@DU?$char_traits@D@std@@V?$allocator@D@2@@std@@V12@@std@@PEAX@std@@@std@@@?$_Tree_val@U?$_Tree_simple_types@U?$pair@$$CBV?$basic_string@DU?$char_traits@D@std@@V?$allocator@D@2@@std@@V12@@std@@@std@@@std@@QEAAXAEAV?$allocator@U?$_Tree_node@U?$pair@$$CBV?$basic_string@DU?$char_traits@D@std@@V?$allocator@D@2@@std@@V12@@std@@PEAX@std@@@1@PEAU?$_Tree_node@U?$pair@$$CBV?$basic_string@DU?$char_traits@D@std@@V?$allocator@D@2@@std@@V12@@std@@PEAX@1@@Z
	??$_Erase_tree@V?$allocator@U?$_Tree_node@U?$pair@$$CBV?$basic_string@DU?$char_traits@D@std@@V?$allocator@D@2@@std@@VEncodedAuthentication@cpr@@@std@@PEAX@std@@@std@@@?$_Tree_val@U?$_Tree_simple_types@U?$pair@$$CBV?$basic_string@DU?$char_traits@D@std@@V?$allocator@D@2@@std@@VEncodedAuthentication@cpr@@@std@@@std@@@std@@QEAAXAEAV?$allocator@U?$_Tree_node@U?$pair@$$CBV?$basic_string@DU?$char_traits@D@std@@V?$allocator@D@2@@std@@VEncodedAuthentication@cpr@@@std@@PEAX@std@@@1@PEAU?$_Tree_node@U?$pair@$$CBV?$basic_string@DU?$char_traits@D@std@@V?$allocator@D@2@@std@@VEncodedAuthentication@cpr@@@std@@PEAX@1@@Z
	??$_Erase_tree@V?$allocator@U?$_Tree_node@U?$pair@$$CBW4AcceptEncodingMethods@cpr@@V?$basic_string@DU?$char_traits@D@std@@V?$allocator@D@2@@std@@@std@@PEAX@std@@@std@@@?$_Tree_val@U?$_Tree_simple_types@U?$pair@$$CBW4AcceptEncodingMethods@cpr@@V?$basic_string@DU?$char_traits@D@std@@V?$allocator@D@2@@std@@@std@@@std@@@std@@QEAAXAEAV?$allocator@U?$_Tree_node@U?$pair@$$CBW4AcceptEncodingMethods@cpr@@V?$basic_string@DU?$char_traits@D@std@@V?$allocator@D@2@@std@@@std@@PEAX@std@@@1@PEAU?$_Tree_node@U?$pair@$$CBW4AcceptEncodingMethods@cpr@@V?$basic_string@DU?$char_traits@D@std@@V?$allocator@D@2@@std@@@std@@PEAX@1@@Z
	??$_Erase_tree_and_orphan@V?$allocator@U?$_Tree_node@GPEAX@std@@@std@@@?$_Tree_val@U?$_Tree_simple_types@G@std@@@std@@QEAAXAEAV?$allocator@U?$_Tree_node@GPEAX@std@@@1@PEAU?$_Tree_node@GPEAX@1@@Z
	??$_Erase_tree_and_orphan@V?$allocator@U?$_Tree_node@U?$pair@$$CBV?$basic_string@DU?$char_traits@D@std@@V?$allocator@D@2@@std@@V12@@std@@PEAX@std@@@std@@@?$_Tree_val@U?$_Tree_simple_types@U?$pair@$$CBV?$basic_string@DU?$char_traits@D@std@@V?$allocator@D@2@@std@@V12@@std@@@std@@@std@@QEAAXAEAV?$allocator@U?$_Tree_node@U?$pair@$$CBV?$basic_string@DU?$char_traits@D@std@@V?$allocator@D@2@@std@@V12@@std@@PEAX@std@@@1@PEAU?$_Tree_node@U?$pair@$$CBV?$basic_string@DU?$char_traits@D@std@@V?$allocator@D@2@@std@@V12@@std@@PEAX@1@@Z
	??$_Erase_tree_and_orphan@V?$allocator@U?$_Tree_node@U?$pair@$$CBV?$basic_string@DU?$char_traits@D@std@@V?$allocator@D@2@@std@@VEncodedAuthentication@cpr@@@std@@PEAX@std@@@std@@@?$_Tree_val@U?$_Tree_simple_types@U?$pair@$$CBV?$basic_string@DU?$char_traits@D@std@@V?$allocator@D@2@@std@@VEncodedAuthentication@cpr@@@std@@@std@@@std@@QEAAXAEAV?$allocator@U?$_Tree_node@U?$pair@$$CBV?$basic_string@DU?$char_traits@D@std@@V?$allocator@D@2@@std@@VEncodedAuthentication@cpr@@@std@@PEAX@std@@@1@PEAU?$_Tree_node@U?$pair@$$CBV?$basic_string@DU?$char_traits@D@std@@V?$allocator@D@2@@std@@VEncodedAuthentication@cpr@@@std@@PEAX@1@@Z
	??$_Find@V?$basic_string@DU?$char_traits@D@std@@V?$allocator@D@2@@std@@@?$_Hash@V?$_Uset_traits@V?$basic_string@DU?$char_traits@D@std@@V?$allocator@D@2@@std@@V?$_Uhash_compare@V?$basic_string@DU?$char_traits@D@std@@V?$allocator@D@2@@std@@U?$hash@V?$basic_string@DU?$char_traits@D@std@@V?$allocator@D@2@@std@@@2@U?$equal_to@V?$basic_string@DU?$char_traits@D@std@@V?$allocator@D@2@@std@@@2@@2@V?$allocator@V?$basic_string@DU?$char_traits@D@std@@V?$allocator@D@2@@std@@@2@$0A@@std@@@std@@AEBAPEAU?$_List_node@V?$basic_string@DU?$char_traits@D@std@@V?$allocator@D@2@@std@@PEAX@1@AEBV?$basic_string@DU?$char_traits@D@std@@V?$allocator@D@2@@1@_K@Z
	??$_Find@V?$basic_string@DU?$char_traits@D@std@@V?$allocator@D@2@@std@@@?$_Tree@V?$_Tmap_traits@V?$basic_string@DU?$char_traits@D@std@@V?$allocator@D@2@@std@@V12@UCaseInsensitiveCompare@cpr@@V?$allocator@U?$pair@$$CBV?$basic_string@DU?$char_traits@D@std@@V?$allocator@D@2@@std@@V12@@std@@@2@$0A@@std@@@std@@AEBAPEAU?$_Tree_node@U?$pair@$$CBV?$basic_string@DU?$char_traits@D@std@@V?$allocator@D@2@@std@@V12@@std@@PEAX@1@AEBV?$basic_string@DU?$char_traits@D@std@@V?$allocator@D@2@@1@@Z
	??$_Find_hint@V?$basic_string@DU?$char_traits@D@std@@V?$allocator@D@2@@std@@@?$_Hash@V?$_Uset_traits@V?$basic_string@DU?$char_traits@D@std@@V?$allocator@D@2@@std@@V?$_Uhash_compare@V?$basic_string@DU?$char_traits@D@std@@V?$allocator@D@2@@std@@U?$hash@V?$basic_string@DU?$char_traits@D@std@@V?$allocator@D@2@@std@@@2@U?$equal_to@V?$basic_string@DU?$char_traits@D@std@@V?$allocator@D@2@@std@@@2@@2@V?$allocator@V?$basic_string@DU?$char_traits@D@std@@V?$allocator@D@2@@std@@@2@$0A@@std@@@std@@IEBA?AU?$_Hash_find_last_result@PEAU?$_List_node@V?$basic_string@DU?$char_traits@D@std@@V?$allocator@D@2@@std@@PEAX@std@@@1@QEAU?$_List_node@V?$basic_string@DU?$char_traits@D@std@@V?$allocator@D@2@@std@@PEAX@1@AEBV?$basic_string@DU?$char_traits@D@std@@V?$allocator@D@2@@1@_K@Z
	??$_Find_hint@V?$basic_string@DU?$char_traits@D@std@@V?$allocator@D@2@@std@@@?$_Tree@V?$_Tmap_traits@V?$basic_string@DU?$char_traits@D@std@@V?$allocator@D@2@@std@@V12@U?$less@V?$basic_string@DU?$char_traits@D@std@@V?$allocator@D@2@@std@@@2@V?$allocator@U?$pair@$$CBV?$basic_string@DU?$char_traits@D@std@@V?$allocator@D@2@@std@@V12@@std@@@2@$0A@@std@@@std@@IEBA?AU?$_Tree_find_hint_result@PEAU?$_Tree_node@U?$pair@$$CBV?$basic_string@DU?$char_traits@D@std@@V?$allocator@D@2@@std@@V12@@std@@PEAX@std@@@1@QEAU?$_Tree_node@U?$pair@$$CBV?$basic_string@DU?$char_traits@D@std@@V?$allocator@D@2@@std@@V12@@std@@PEAX@1@AEBV?$basic_string@DU?$char_traits@D@std@@V?$allocator@D@2@@1@@Z
	??$_Find_hint@W4AcceptEncodingMethods@cpr@@@?$_Tree@V?$_Tmap_traits@W4AcceptEncodingMethods@cpr@@V?$basic_string@DU?$char_traits@D@std@@V?$allocator@D@2@@std@@U?$less@W4AcceptEncodingMethods@cpr@@@4@V?$allocator@U?$pair@$$CBW4AcceptEncodingMethods@cpr@@V?$basic_string@DU?$char_traits@D@std@@V?$allocator@D@2@@std@@@std@@@4@$0A@@std@@@std@@IEBA?AU?$_Tree_find_hint_result@PEAU?$_Tree_node@U?$pair@$$CBW4AcceptEncodingMethods@cpr@@V?$basic_string@DU?$char_traits@D@std@@V?$allocator@D@2@@std@@@std@@PEAX@std@@@1@QEAU?$_Tree_node@U?$pair@$$CBW4AcceptEncodingMethods@cpr@@V?$basic_string@DU?$char_traits@D@std@@V?$allocator@D@2@@std@@@std@@PEAX@1@AEBW4AcceptEncodingMethods@cpr@@@Z
	??$_Find_last@V?$basic_string@DU?$char_traits@D@std@@V?$allocator@D@2@@std@@@?$_Hash@V?$_Uset_traits@V?$basic_string@DU?$char_traits@D@std@@V?$allocator@D@2@@std@@V?$_Uhash_compare@V?$basic_string@DU?$char_traits@D@std@@V?$allocator@D@2@@std@@U?$hash@V?$basic_string@DU?$char_traits@D@std@@V?$allocator@D@2@@std@@@2@U?$equal_to@V?$basic_string@DU?$char_traits@D@std@@V?$allocator@D@2@@std@@@2@@2@V?$allocator@V?$basic_string@DU?$char_traits@D@std@@V?$allocator@D@2@@std@@@2@$0A@@std@@@std@@IEBA?AU?$_Hash_find_last_result@PEAU?$_List_node@V?$basic_string@DU?$char_traits@D@std@@V?$allocator@D@2@@std@@PEAX@std@@@1@AEBV?$basic_string@DU?$char_traits@D@std@@V?$allocator@D@2@@1@_K@Z
	??$_Find_lower_bound@V?$basic_string@DU?$char_traits@D@std@@V?$allocator@D@2@@std@@@?$_Tree@V?$_Tmap_traits@V?$basic_string@DU?$char_traits@D@std@@V?$allocator@D@2@@std@@V12@U?$less@V?$basic_string@DU?$char_traits@D@std@@V?$allocator@D@2@@std@@@2@V?$allocator@U?$pair@$$CBV?$basic_string@DU?$char_traits@D@std@@V?$allocator@D@2@@std@@V12@@std@@@2@$0A@@std@@@std@@IEBA?AU?$_Tree_find_result@PEAU?$_Tree_node@U?$pair@$$CBV?$basic_string@DU?$char_traits@D@std@@V?$allocator@D@2@@std@@V12@@std@@PEAX@std@@@1@AEBV?$basic_string@DU?$char_traits@D@std@@V?$allocator@D@2@@1@@Z
	??$_Find_lower_bound@V?$basic_string@DU?$char_traits@D@std@@V?$allocator@D@2@@std@@@?$_Tree@V?$_Tmap_traits@V?$basic_string@DU?$char_traits@D@std@@V?$allocator@D@2@@std@@V12@UCaseInsensitiveCompare@cpr@@V?$allocator@U?$pair@$$CBV?$basic_string@DU?$char_traits@D@std@@V?$allocator@D@2@@std@@V12@@std@@@2@$0A@@std@@@std@@IEBA?AU?$_Tree_find_result@PEAU?$_Tree_node@U?$pair@$$CBV?$basic_string@DU?$char_traits@D@std@@V?$allocator@D@2@@std@@V12@@std@@PEAX@std@@@1@AEBV?$basic_string@DU?$char_traits@D@std@@V?$allocator@D@2@@1@@Z
	??$_Find_lower_bound@V?$basic_string@DU?$char_traits@D@std@@V?$allocator@D@2@@std@@@?$_Tree@V?$_Tmap_traits@V?$basic_string@DU?$char_traits@D@std@@V?$allocator@D@2@@std@@VEncodedAuthentication@cpr@@U?$less@V?$basic_string@DU?$char_traits@D@std@@V?$allocator@D@2@@std@@@2@V?$allocator@U?$pair@$$CBV?$basic_string@DU?$char_traits@D@std@@V?$allocator@D@2@@std@@VEncodedAuthentication@cpr@@@std@@@2@$0A@@std@@@std@@IEBA?AU?$_Tree_find_result@PEAU?$_Tree_node@U?$pair@$$CBV?$basic_string@DU?$char_traits@D@std@@V?$allocator@D@2@@std@@VEncodedAuthentication@cpr@@@std@@PEAX@std@@@1@AEBV?$basic_string@DU?$char_traits@D@std@@V?$allocator@D@2@@1@@Z
	??$_Find_lower_bound@W4AcceptEncodingMethods@cpr@@@?$_Tree@V?$_Tmap_traits@W4AcceptEncodingMethods@cpr@@V?$basic_string@DU?$char_traits@D@std@@V?$allocator@D@2@@std@@U?$less@W4AcceptEncodingMethods@cpr@@@4@V?$allocator@U?$pair@$$CBW4AcceptEncodingMethods@cpr@@V?$basic_string@DU?$char_traits@D@std@@V?$allocator@D@2@@std@@@std@@@4@$0A@@std@@@std@@IEBA?AU?$_Tree_find_result@PEAU?$_Tree_node@U?$pair@$$CBW4AcceptEncodingMethods@cpr@@V?$basic_string@DU?$char_traits@D@std@@V?$allocator@D@2@@std@@@std@@PEAX@std@@@1@AEBW4AcceptEncodingMethods@cpr@@@Z
	??$_Free_non_head@V?$allocator@U?$_List_node@UThreadData@ThreadPool@cpr@@PEAX@std@@@std@@@?$_List_node@UThreadData@ThreadPool@cpr@@PEAX@std@@SAXAEAV?$allocator@U?$_List_node@UThreadData@ThreadPool@cpr@@PEAX@std@@@1@PEAU01@@Z
	??$_Free_non_head@V?$allocator@U?$_List_node@V?$basic_string@DU?$char_traits@D@std@@V?$allocator@D@2@@std@@PEAX@std@@@std@@@?$_List_node@V?$basic_string@DU?$char_traits@D@std@@V?$allocator@D@2@@std@@PEAX@std@@SAXAEAV?$allocator@U?$_List_node@V?$basic_string@DU?$char_traits@D@std@@V?$allocator@D@2@@std@@PEAX@std@@@1@PEAU01@@Z
	??$_Freenode0@V?$allocator@U?$_List_node@UThreadData@ThreadPool@cpr@@PEAX@std@@@std@@@?$_List_node@UThreadData@ThreadPool@cpr@@PEAX@std@@SAXAEAV?$allocator@U?$_List_node@UThreadData@ThreadPool@cpr@@PEAX@std@@@1@PEAU01@@Z
	??$_Freenode0@V?$allocator@U?$_List_node@V?$basic_string@DU?$char_traits@D@std@@V?$allocator@D@2@@std@@PEAX@std@@@std@@@?$_List_node@V?$basic_string@DU?$char_traits@D@std@@V?$allocator@D@2@@std@@PEAX@std@@SAXAEAV?$allocator@U?$_List_node@V?$basic_string@DU?$char_traits@D@std@@V?$allocator@D@2@@std@@PEAX@std@@@1@PEAU01@@Z
	??$_Freenode0@V?$allocator@U?$_Tree_node@GPEAX@std@@@std@@@?$_Tree_node@GPEAX@std@@SAXAEAV?$allocator@U?$_Tree_node@GPEAX@std@@@1@PEAU01@@Z
	??$_Freenode0@V?$allocator@U?$_Tree_node@U?$pair@$$CBV?$basic_string@DU?$char_traits@D@std@@V?$allocator@D@2@@std@@V12@@std@@PEAX@std@@@std@@@?$_Tree_node@U?$pair@$$CBV?$basic_string@DU?$char_traits@D@std@@V?$allocator@D@2@@std@@V12@@std@@PEAX@std@@SAXAEAV?$allocator@U?$_Tree_node@U?$pair@$$CBV?$basic_string@DU?$char_traits@D@std@@V?$allocator@D@2@@std@@V12@@std@@PEAX@std@@@1@PEAU01@@Z
	??$_Freenode0@V?$allocator@U?$_Tree_node@U?$pair@$$CBV?$basic_string@DU?$char_traits@D@std@@V?$allocator@D@2@@std@@VEncodedAuthentication@cpr@@@std@@PEAX@std@@@std@@@?$_Tree_node@U?$pair@$$CBV?$basic_string@DU?$char_traits@D@std@@V?$allocator@D@2@@std@@VEncodedAuthentication@cpr@@@std@@PEAX@std@@SAXAEAV?$allocator@U?$_Tree_node@U?$pair@$$CBV?$basic_string@DU?$char_traits@D@std@@V?$allocator@D@2@@std@@VEncodedAuthentication@cpr@@@std@@PEAX@std@@@1@PEAU01@@Z
	??$_Freenode0@V?$allocator@U?$_Tree_node@U?$pair@$$CBW4AcceptEncodingMethods@cpr@@V?$basic_string@DU?$char_traits@D@std@@V?$allocator@D@2@@std@@@std@@PEAX@std@@@std@@@?$_Tree_node@U?$pair@$$CBW4AcceptEncodingMethods@cpr@@V?$basic_string@DU?$char_traits@D@std@@V?$allocator@D@2@@std@@@std@@PEAX@std@@SAXAEAV?$allocator@U?$_Tree_node@U?$pair@$$CBW4AcceptEncodingMethods@cpr@@V?$basic_string@DU?$char_traits@D@std@@V?$allocator@D@2@@std@@@std@@PEAX@std@@@1@PEAU01@@Z
	??$_Freenode@V?$allocator@U?$_List_node@UThreadData@ThreadPool@cpr@@PEAX@std@@@std@@@?$_List_node@UThreadData@ThreadPool@cpr@@PEAX@std@@SAXAEAV?$allocator@U?$_List_node@UThreadData@ThreadPool@cpr@@PEAX@std@@@1@PEAU01@@Z
	??$_Freenode@V?$allocator@U?$_List_node@V?$basic_string@DU?$char_traits@D@std@@V?$allocator@D@2@@std@@PEAX@std@@@std@@@?$_List_node@V?$basic_string@DU?$char_traits@D@std@@V?$allocator@D@2@@std@@PEAX@std@@SAXAEAV?$allocator@U?$_List_node@V?$basic_string@DU?$char_traits@D@std@@V?$allocator@D@2@@std@@PEAX@std@@@1@PEAU01@@Z
	??$_Freenode@V?$allocator@U?$_Tree_node@GPEAX@std@@@std@@@?$_Tree_node@GPEAX@std@@SAXAEAV?$allocator@U?$_Tree_node@GPEAX@std@@@1@PEAU01@@Z
	??$_Freenode@V?$allocator@U?$_Tree_node@U?$pair@$$CBV?$basic_string@DU?$char_traits@D@std@@V?$allocator@D@2@@std@@V12@@std@@PEAX@std@@@std@@@?$_Tree_node@U?$pair@$$CBV?$basic_string@DU?$char_traits@D@std@@V?$allocator@D@2@@std@@V12@@std@@PEAX@std@@SAXAEAV?$allocator@U?$_Tree_node@U?$pair@$$CBV?$basic_string@DU?$char_traits@D@std@@V?$allocator@D@2@@std@@V12@@std@@PEAX@std@@@1@PEAU01@@Z
	??$_Freenode@V?$allocator@U?$_Tree_node@U?$pair@$$CBV?$basic_string@DU?$char_traits@D@std@@V?$allocator@D@2@@std@@VEncodedAuthentication@cpr@@@std@@PEAX@std@@@std@@@?$_Tree_node@U?$pair@$$CBV?$basic_string@DU?$char_traits@D@std@@V?$allocator@D@2@@std@@VEncodedAuthentication@cpr@@@std@@PEAX@std@@SAXAEAV?$allocator@U?$_Tree_node@U?$pair@$$CBV?$basic_string@DU?$char_traits@D@std@@V?$allocator@D@2@@std@@VEncodedAuthentication@cpr@@@std@@PEAX@std@@@1@PEAU01@@Z
	??$_Freenode@V?$allocator@U?$_Tree_node@U?$pair@$$CBW4AcceptEncodingMethods@cpr@@V?$basic_string@DU?$char_traits@D@std@@V?$allocator@D@2@@std@@@std@@PEAX@std@@@std@@@?$_Tree_node@U?$pair@$$CBW4AcceptEncodingMethods@cpr@@V?$basic_string@DU?$char_traits@D@std@@V?$allocator@D@2@@std@@@std@@PEAX@std@@SAXAEAV?$allocator@U?$_Tree_node@U?$pair@$$CBW4AcceptEncodingMethods@cpr@@V?$basic_string@DU?$char_traits@D@std@@V?$allocator@D@2@@std@@@std@@PEAX@std@@@1@PEAU01@@Z
	??$_Get_size_of_n@$00@std@@YA_K_K@Z
	??$_Get_size_of_n@$07@std@@YA_K_K@Z
	??$_Get_size_of_n@$0BA@@std@@YA_K_K@Z
	??$_Get_size_of_n@$0BHI@@std@@YA_K_K@Z
	??$_Get_size_of_n@$0BI@@std@@YA_K_K@Z
	??$_Get_size_of_n@$0CA@@std@@YA_K_K@Z
	??$_Get_size_of_n@$0CI@@std@@YA_K_K@Z
	??$_Get_size_of_n@$0DI@@std@@YA_K_K@Z
	??$_Get_size_of_n@$0EA@@std@@YA_K_K@Z
	??$_Get_size_of_n@$0FA@@std@@YA_K_K@Z
	??$_Get_size_of_n@$0GI@@std@@YA_K_K@Z
	??$_Get_size_of_n@$0HA@@std@@YA_K_K@Z
	??$_Get_size_of_n@$0HI@@std@@YA_K_K@Z
	??$_Get_size_of_n@$0LA@@std@@YA_K_K@Z
	??$_Get_size_of_n@$0LI@@std@@YA_K_K@Z
	??$_Get_unwrapped@AEAPEAD@std@@YA?A_TAEAPEAD@Z
	??$_Get_unwrapped@AEAV?$_Vector_iterator@V?$_Vector_val@U?$_Simple_types@U?$pair@V?$shared_ptr@VSession@cpr@@@std@@W4HttpMethod@MultiPerform@cpr@@@std@@@std@@@std@@@std@@@std@@YA?A_TAEAV?$_Vector_iterator@V?$_Vector_val@U?$_Simple_types@U?$pair@V?$shared_ptr@VSession@cpr@@@std@@W4HttpMethod@MultiPerform@cpr@@@std@@@std@@@std@@@0@@Z
	??$_Get_unwrapped@AEAV?$_Vector_iterator@V?$_Vector_val@U?$_Simple_types@VResponse@cpr@@@std@@@std@@@std@@@std@@YA?A_TAEAV?$_Vector_iterator@V?$_Vector_val@U?$_Simple_types@VResponse@cpr@@@std@@@std@@@0@@Z
	??$_Get_unwrapped@AEBQEAPEAV?$function@$$A6AXXZ@std@@@std@@YA?A_TAEBQEAPEAV?$function@$$A6AXXZ@0@@Z
	??$_Get_unwrapped@AEBQEAPEAV?$shared_ptr@VInterceptor@cpr@@@std@@@std@@YA?A_TAEBQEAPEAV?$shared_ptr@VInterceptor@cpr@@@0@@Z
	??$_Get_unwrapped@AEBQEAPEAV?$shared_ptr@VInterceptorMulti@cpr@@@std@@@std@@YA?A_TAEBQEAPEAV?$shared_ptr@VInterceptorMulti@cpr@@@0@@Z
	??$_Get_unwrapped@AEBQEAU?$pair@V?$shared_ptr@VSession@cpr@@@std@@W4HttpMethod@MultiPerform@cpr@@@std@@@std@@YA?A_TAEBQEAU?$pair@V?$shared_ptr@VSession@cpr@@@std@@W4HttpMethod@MultiPerform@cpr@@@0@@Z
	??$_Get_unwrapped@AEBQEAUFile@cpr@@@std@@YA?A_TAEBQEAUFile@cpr@@@Z
	??$_Get_unwrapped@AEBQEAUPair@cpr@@@std@@YA?A_TAEBQEAUPair@cpr@@@Z
	??$_Get_unwrapped@AEBQEAUParameter@cpr@@@std@@YA?A_TAEBQEAUParameter@cpr@@@Z
	??$_Get_unwrapped@AEBQEAV?$_List_unchecked_const_iterator@V?$_List_val@U?$_List_simple_types@V?$basic_string@DU?$char_traits@D@std@@V?$allocator@D@2@@std@@@std@@@std@@U_Iterator_base0@2@@std@@@std@@YA?A_TAEBQEAV?$_List_unchecked_const_iterator@V?$_List_val@U?$_List_simple_types@V?$basic_string@DU?$char_traits@D@std@@V?$allocator@D@2@@std@@@std@@@std@@U_Iterator_base0@2@@0@@Z
	??$_Get_unwrapped@AEBQEAV?$basic_string@DU?$char_traits@D@std@@V?$allocator@D@2@@std@@@std@@YA?A_TAEBQEAV?$basic_string@DU?$char_traits@D@std@@V?$allocator@D@2@@0@@Z
	??$_Get_unwrapped@AEBQEAVCertInfo@cpr@@@std@@YA?A_TAEBQEAVCertInfo@cpr@@@Z
	??$_Get_unwrapped@AEBQEAVCookie@cpr@@@std@@YA?A_TAEBQEAVCookie@cpr@@@Z
	??$_Get_unwrapped@AEBQEAVResponse@cpr@@@std@@YA?A_TAEBQEAVResponse@cpr@@@Z
	??$_Get_unwrapped@AEBQEBUPair@cpr@@@std@@YA?A_TAEBQEBUPair@cpr@@@Z
	??$_Get_unwrapped@AEBQEBUParameter@cpr@@@std@@YA?A_TAEBQEBUParameter@cpr@@@Z
	??$_Get_unwrapped@AEBQEBW4AcceptEncodingMethods@cpr@@@std@@YA?A_TAEBQEBW4AcceptEncodingMethods@cpr@@@Z
	??$_Get_unwrapped@AEBV?$_List_const_iterator@V?$_List_val@U?$_List_simple_types@V?$basic_string@DU?$char_traits@D@std@@V?$allocator@D@2@@std@@@std@@@std@@@std@@@std@@YA?A_TAEBV?$_List_const_iterator@V?$_List_val@U?$_List_simple_types@V?$basic_string@DU?$char_traits@D@std@@V?$allocator@D@2@@std@@@std@@@std@@@0@@Z
	??$_Get_unwrapped@AEBV?$_String_const_iterator@V?$_String_val@U?$_Simple_types@D@std@@@std@@@std@@@std@@YA?A_TAEBV?$_String_const_iterator@V?$_String_val@U?$_Simple_types@D@std@@@std@@@0@@Z
	??$_Get_unwrapped@AEBV?$_String_iterator@V?$_String_val@U?$_Simple_types@D@std@@@std@@@std@@@std@@YA?A_TAEBV?$_String_iterator@V?$_String_val@U?$_Simple_types@D@std@@@std@@@0@@Z
	??$_Get_unwrapped@AEBV?$_Vector_iterator@V?$_Vector_val@U?$_Simple_types@U?$pair@V?$shared_ptr@VSession@cpr@@@std@@W4HttpMethod@MultiPerform@cpr@@@std@@@std@@@std@@@std@@@std@@YA?A_TAEBV?$_Vector_iterator@V?$_Vector_val@U?$_Simple_types@U?$pair@V?$shared_ptr@VSession@cpr@@@std@@W4HttpMethod@MultiPerform@cpr@@@std@@@std@@@std@@@0@@Z
	??$_Get_unwrapped@AEBV?$_Vector_iterator@V?$_Vector_val@U?$_Simple_types@VResponse@cpr@@@std@@@std@@@std@@@std@@YA?A_TAEBV?$_Vector_iterator@V?$_Vector_val@U?$_Simple_types@VResponse@cpr@@@std@@@std@@@0@@Z
	??$_Get_unwrapped@PEAUFile@cpr@@@std@@YA?A_T$$QEAPEAUFile@cpr@@@Z
	??$_Get_unwrapped@PEAUParameter@cpr@@@std@@YA?A_T$$QEAPEAUParameter@cpr@@@Z
	??$_Get_unwrapped@PEAV?$basic_string@DU?$char_traits@D@std@@V?$allocator@D@2@@std@@@std@@YA?A_T$$QEAPEAV?$basic_string@DU?$char_traits@D@std@@V?$allocator@D@2@@0@@Z
	??$_Get_unwrapped@PEAVCertInfo@cpr@@@std@@YA?A_T$$QEAPEAVCertInfo@cpr@@@Z
	??$_Get_unwrapped@PEAVCookie@cpr@@@std@@YA?A_T$$QEAPEAVCookie@cpr@@@Z
	??$_Get_unwrapped@PEBUPair@cpr@@@std@@YA?A_T$$QEAPEBUPair@cpr@@@Z
	??$_Get_unwrapped@PEBUParameter@cpr@@@std@@YA?A_T$$QEAPEBUParameter@cpr@@@Z
	??$_Get_unwrapped@PEBUPart@cpr@@@std@@YA?A_T$$QEAPEBUPart@cpr@@@Z
	??$_Get_unwrapped@PEBVResolve@cpr@@@std@@YA?A_T$$QEAPEBVResolve@cpr@@@Z
	??$_Get_unwrapped_n@AEAPEAPEAV?$function@$$A6AXXZ@std@@_J@std@@YA?A_TAEAPEAPEAV?$function@$$A6AXXZ@0@_J@Z
	??$_Get_unwrapped_n@AEAPEAPEAV?$shared_ptr@VInterceptor@cpr@@@std@@_J@std@@YA?A_TAEAPEAPEAV?$shared_ptr@VInterceptor@cpr@@@0@_J@Z
	??$_Get_unwrapped_n@AEAPEAPEAV?$shared_ptr@VInterceptorMulti@cpr@@@std@@_J@std@@YA?A_TAEAPEAPEAV?$shared_ptr@VInterceptorMulti@cpr@@@0@_J@Z
	??$_Get_unwrapped_n@AEAV?$_String_iterator@V?$_String_val@U?$_Simple_types@D@std@@@std@@@std@@_J@std@@YA?A_TAEAV?$_String_iterator@V?$_String_val@U?$_Simple_types@D@std@@@std@@@0@_J@Z
	??$_Get_unwrapped_n@AEAV?$back_insert_iterator@V?$vector@UPair@cpr@@V?$allocator@UPair@cpr@@@std@@@std@@@std@@_J@std@@YA?A_TAEAV?$back_insert_iterator@V?$vector@UPair@cpr@@V?$allocator@UPair@cpr@@@std@@@std@@@0@_J@Z
	??$_Get_unwrapped_n@AEAV?$back_insert_iterator@V?$vector@UParameter@cpr@@V?$allocator@UParameter@cpr@@@std@@@std@@@std@@_J@std@@YA?A_TAEAV?$back_insert_iterator@V?$vector@UParameter@cpr@@V?$allocator@UParameter@cpr@@@std@@@std@@@0@_J@Z
	??$_Get_unwrapped_n@AEAV?$insert_iterator@V?$unordered_set@V?$basic_string@DU?$char_traits@D@std@@V?$allocator@D@2@@std@@U?$hash@V?$basic_string@DU?$char_traits@D@std@@V?$allocator@D@2@@std@@@2@U?$equal_to@V?$basic_string@DU?$char_traits@D@std@@V?$allocator@D@2@@std@@@2@V?$allocator@V?$basic_string@DU?$char_traits@D@std@@V?$allocator@D@2@@std@@@2@@std@@@std@@_J@std@@YA?A_TAEAV?$insert_iterator@V?$unordered_set@V?$basic_string@DU?$char_traits@D@std@@V?$allocator@D@2@@std@@U?$hash@V?$basic_string@DU?$char_traits@D@std@@V?$allocator@D@2@@std@@@2@U?$equal_to@V?$basic_string@DU?$char_traits@D@std@@V?$allocator@D@2@@std@@@2@V?$allocator@V?$basic_string@DU?$char_traits@D@std@@V?$allocator@D@2@@std@@@2@@std@@@0@_J@Z
	??$_Get_unwrapped_n@V?$_List_const_iterator@V?$_List_val@U?$_List_simple_types@V?$basic_string@DU?$char_traits@D@std@@V?$allocator@D@2@@std@@@std@@@std@@@std@@_J@std@@YA?A_T$$QEAV?$_List_const_iterator@V?$_List_val@U?$_List_simple_types@V?$basic_string@DU?$char_traits@D@std@@V?$allocator@D@2@@std@@@std@@@std@@@0@_J@Z
	??$_Getvals@_W@?$time_get@DV?$istreambuf_iterator@DU?$char_traits@D@std@@@std@@@std@@IEAAX_WAEBV_Locinfo@1@@Z
	??$_Getvals@_W@?$time_get@_WV?$istreambuf_iterator@_WU?$char_traits@_W@std@@@std@@@std@@IEAAX_WAEBV_Locinfo@1@@Z
	??$_Hash_array_representation@D@std@@YA_KQEBD_K@Z
	??$_Idl_distance@PEAPEAV?$function@$$A6AXXZ@std@@PEAPEAV12@@std@@YA?A_PAEBQEAPEAV?$function@$$A6AXXZ@0@0@Z
	??$_Idl_distance@PEAPEAV?$shared_ptr@VInterceptor@cpr@@@std@@PEAPEAV12@@std@@YA?A_PAEBQEAPEAV?$shared_ptr@VInterceptor@cpr@@@0@0@Z
	??$_Idl_distance@PEAPEAV?$shared_ptr@VInterceptorMulti@cpr@@@std@@PEAPEAV12@@std@@YA?A_PAEBQEAPEAV?$shared_ptr@VInterceptorMulti@cpr@@@0@0@Z
	??$_Idl_distance@PEBUPair@cpr@@PEBU12@@std@@YA?A_PAEBQEBUPair@cpr@@0@Z
	??$_Idl_distance@PEBUParameter@cpr@@PEBU12@@std@@YA?A_PAEBQEBUParameter@cpr@@0@Z
	??$_Idl_distance@PEBW4AcceptEncodingMethods@cpr@@PEBW412@@std@@YA?A_PAEBQEBW4AcceptEncodingMethods@cpr@@0@Z
	??$_Idl_distance@V?$_String_iterator@V?$_String_val@U?$_Simple_types@D@std@@@std@@@std@@PEAD@std@@YA?A_PAEBQEAD0@Z
	??$_Immortalize_memcpy_image@V_Future_error_category2@std@@@std@@YAAEBV_Future_error_category2@0@XZ
	??$_Insert_range_unchecked@PEBU?$pair@$$CBV?$basic_string@DU?$char_traits@D@std@@V?$allocator@D@2@@std@@V12@@std@@PEBU12@@?$_Tree@V?$_Tmap_traits@V?$basic_string@DU?$char_traits@D@std@@V?$allocator@D@2@@std@@V12@U?$less@V?$basic_string@DU?$char_traits@D@std@@V?$allocator@D@2@@std@@@2@V?$allocator@U?$pair@$$CBV?$basic_string@DU?$char_traits@D@std@@V?$allocator@D@2@@std@@V12@@std@@@2@$0A@@std@@@std@@IEAAXPEBU?$pair@$$CBV?$basic_string@DU?$char_traits@D@std@@V?$allocator@D@2@@std@@V12@@1@QEBU21@@Z
	??$_Insert_range_unchecked@PEBU?$pair@$$CBW4AcceptEncodingMethods@cpr@@V?$basic_string@DU?$char_traits@D@std@@V?$allocator@D@2@@std@@@std@@PEBU12@@?$_Tree@V?$_Tmap_traits@W4AcceptEncodingMethods@cpr@@V?$basic_string@DU?$char_traits@D@std@@V?$allocator@D@2@@std@@U?$less@W4AcceptEncodingMethods@cpr@@@4@V?$allocator@U?$pair@$$CBW4AcceptEncodingMethods@cpr@@V?$basic_string@DU?$char_traits@D@std@@V?$allocator@D@2@@std@@@std@@@4@$0A@@std@@@std@@IEAAXPEBU?$pair@$$CBW4AcceptEncodingMethods@cpr@@V?$basic_string@DU?$char_traits@D@std@@V?$allocator@D@2@@std@@@1@QEBU21@@Z
	??$_Insert_range_unchecked@PEBV?$basic_string@DU?$char_traits@D@std@@V?$allocator@D@2@@std@@PEBV12@@?$_Hash@V?$_Uset_traits@V?$basic_string@DU?$char_traits@D@std@@V?$allocator@D@2@@std@@V?$_Uhash_compare@V?$basic_string@DU?$char_traits@D@std@@V?$allocator@D@2@@std@@U?$hash@V?$basic_string@DU?$char_traits@D@std@@V?$allocator@D@2@@std@@@2@U?$equal_to@V?$basic_string@DU?$char_traits@D@std@@V?$allocator@D@2@@std@@@2@@2@V?$allocator@V?$basic_string@DU?$char_traits@D@std@@V?$allocator@D@2@@std@@@2@$0A@@std@@@std@@IEAAXPEBV?$basic_string@DU?$char_traits@D@std@@V?$allocator@D@2@@1@QEBV21@@Z
	??$_Insert_string@DU?$char_traits@D@std@@_K@std@@YAAEAV?$basic_ostream@DU?$char_traits@D@std@@@0@AEAV10@QEBD_K@Z
	??$_Integral_to_string@DH@std@@YA?AV?$basic_string@DU?$char_traits@D@std@@V?$allocator@D@2@@0@H@Z
	??$_Integral_to_string@D_J@std@@YA?AV?$basic_string@DU?$char_traits@D@std@@V?$allocator@D@2@@0@_J@Z
	??$_Kfn@$$CBV?$basic_string@DU?$char_traits@D@std@@V?$allocator@D@2@@std@@V12@@?$_Tmap_traits@V?$basic_string@DU?$char_traits@D@std@@V?$allocator@D@2@@std@@V12@U?$less@V?$basic_string@DU?$char_traits@D@std@@V?$allocator@D@2@@std@@@2@V?$allocator@U?$pair@$$CBV?$basic_string@DU?$char_traits@D@std@@V?$allocator@D@2@@std@@V12@@std@@@2@$0A@@std@@SAAEBV?$basic_string@DU?$char_traits@D@std@@V?$allocator@D@2@@1@AEBU?$pair@$$CBV?$basic_string@DU?$char_traits@D@std@@V?$allocator@D@2@@std@@V12@@1@@Z
	??$_Kfn@$$CBV?$basic_string@DU?$char_traits@D@std@@V?$allocator@D@2@@std@@V12@@?$_Tmap_traits@V?$basic_string@DU?$char_traits@D@std@@V?$allocator@D@2@@std@@V12@UCaseInsensitiveCompare@cpr@@V?$allocator@U?$pair@$$CBV?$basic_string@DU?$char_traits@D@std@@V?$allocator@D@2@@std@@V12@@std@@@2@$0A@@std@@SAAEBV?$basic_string@DU?$char_traits@D@std@@V?$allocator@D@2@@1@AEBU?$pair@$$CBV?$basic_string@DU?$char_traits@D@std@@V?$allocator@D@2@@std@@V12@@1@@Z
	??$_Kfn@$$CBV?$basic_string@DU?$char_traits@D@std@@V?$allocator@D@2@@std@@VEncodedAuthentication@cpr@@@?$_Tmap_traits@V?$basic_string@DU?$char_traits@D@std@@V?$allocator@D@2@@std@@VEncodedAuthentication@cpr@@U?$less@V?$basic_string@DU?$char_traits@D@std@@V?$allocator@D@2@@std@@@2@V?$allocator@U?$pair@$$CBV?$basic_string@DU?$char_traits@D@std@@V?$allocator@D@2@@std@@VEncodedAuthentication@cpr@@@std@@@2@$0A@@std@@SAAEBV?$basic_string@DU?$char_traits@D@std@@V?$allocator@D@2@@1@AEBU?$pair@$$CBV?$basic_string@DU?$char_traits@D@std@@V?$allocator@D@2@@std@@VEncodedAuthentication@cpr@@@1@@Z
	??$_Kfn@$$CBW4AcceptEncodingMethods@cpr@@V?$basic_string@DU?$char_traits@D@std@@V?$allocator@D@2@@std@@@?$_Tmap_traits@W4AcceptEncodingMethods@cpr@@V?$basic_string@DU?$char_traits@D@std@@V?$allocator@D@2@@std@@U?$less@W4AcceptEncodingMethods@cpr@@@4@V?$allocator@U?$pair@$$CBW4AcceptEncodingMethods@cpr@@V?$basic_string@DU?$char_traits@D@std@@V?$allocator@D@2@@std@@@std@@@4@$0A@@std@@SAAEBW4AcceptEncodingMethods@cpr@@AEBU?$pair@$$CBW4AcceptEncodingMethods@cpr@@V?$basic_string@DU?$char_traits@D@std@@V?$allocator@D@2@@std@@@1@@Z
	??$_Lower_bound_duplicate@V?$basic_string@DU?$char_traits@D@std@@V?$allocator@D@2@@std@@@?$_Tree@V?$_Tmap_traits@V?$basic_string@DU?$char_traits@D@std@@V?$allocator@D@2@@std@@V12@U?$less@V?$basic_string@DU?$char_traits@D@std@@V?$allocator@D@2@@std@@@2@V?$allocator@U?$pair@$$CBV?$basic_string@DU?$char_traits@D@std@@V?$allocator@D@2@@std@@V12@@std@@@2@$0A@@std@@@std@@IEBA_NQEAU?$_Tree_node@U?$pair@$$CBV?$basic_string@DU?$char_traits@D@std@@V?$allocator@D@2@@std@@V12@@std@@PEAX@1@AEBV?$basic_string@DU?$char_traits@D@std@@V?$allocator@D@2@@1@@Z
	??$_Lower_bound_duplicate@V?$basic_string@DU?$char_traits@D@std@@V?$allocator@D@2@@std@@@?$_Tree@V?$_Tmap_traits@V?$basic_string@DU?$char_traits@D@std@@V?$allocator@D@2@@std@@V12@UCaseInsensitiveCompare@cpr@@V?$allocator@U?$pair@$$CBV?$basic_string@DU?$char_traits@D@std@@V?$allocator@D@2@@std@@V12@@std@@@2@$0A@@std@@@std@@IEBA_NQEAU?$_Tree_node@U?$pair@$$CBV?$basic_string@DU?$char_traits@D@std@@V?$allocator@D@2@@std@@V12@@std@@PEAX@1@AEBV?$basic_string@DU?$char_traits@D@std@@V?$allocator@D@2@@1@@Z
	??$_Lower_bound_duplicate@V?$basic_string@DU?$char_traits@D@std@@V?$allocator@D@2@@std@@@?$_Tree@V?$_Tmap_traits@V?$basic_string@DU?$char_traits@D@std@@V?$allocator@D@2@@std@@VEncodedAuthentication@cpr@@U?$less@V?$basic_string@DU?$char_traits@D@std@@V?$allocator@D@2@@std@@@2@V?$allocator@U?$pair@$$CBV?$basic_string@DU?$char_traits@D@std@@V?$allocator@D@2@@std@@VEncodedAuthentication@cpr@@@std@@@2@$0A@@std@@@std@@IEBA_NQEAU?$_Tree_node@U?$pair@$$CBV?$basic_string@DU?$char_traits@D@std@@V?$allocator@D@2@@std@@VEncodedAuthentication@cpr@@@std@@PEAX@1@AEBV?$basic_string@DU?$char_traits@D@std@@V?$allocator@D@2@@1@@Z
	??$_Lower_bound_duplicate@W4AcceptEncodingMethods@cpr@@@?$_Tree@V?$_Tmap_traits@W4AcceptEncodingMethods@cpr@@V?$basic_string@DU?$char_traits@D@std@@V?$allocator@D@2@@std@@U?$less@W4AcceptEncodingMethods@cpr@@@4@V?$allocator@U?$pair@$$CBW4AcceptEncodingMethods@cpr@@V?$basic_string@DU?$char_traits@D@std@@V?$allocator@D@2@@std@@@std@@@4@$0A@@std@@@std@@IEBA_NQEAU?$_Tree_node@U?$pair@$$CBW4AcceptEncodingMethods@cpr@@V?$basic_string@DU?$char_traits@D@std@@V?$allocator@D@2@@std@@@std@@PEAX@1@AEBW4AcceptEncodingMethods@cpr@@@Z
	??$_Maklocstr@D@std@@YAPEADPEBDPEADAEBU_Cvtvec@@@Z
	??$_Maklocstr@_W@std@@YAPEA_WPEBDPEA_WAEBU_Cvtvec@@@Z
	??$_Move_construct_from@U?$atomic@_N@std@@@?$_Ptr_base@U?$atomic@_N@std@@@std@@IEAAX$$QEAV01@@Z
	??$_Move_construct_from@UCurlHolder@cpr@@@?$_Ptr_base@UCurlHolder@cpr@@@std@@IEAAX$$QEAV01@@Z
	??$_Move_construct_from@V?$packaged_task@$$A6A?AVResponse@cpr@@XZ@std@@@?$_Ptr_base@V?$packaged_task@$$A6A?AVResponse@cpr@@XZ@std@@@std@@IEAAX$$QEAV01@@Z
	??$_Move_construct_from@VSession@cpr@@@?$_Ptr_base@VSession@cpr@@@std@@IEAAX$$QEAV01@@Z
	??$_Move_construct_from@Vthread@std@@@?$_Ptr_base@Vthread@std@@@std@@IEAAX$$QEAV01@@Z
	??$_Move_unchecked@PEAU?$pair@V?$shared_ptr@VSession@cpr@@@std@@W4HttpMethod@MultiPerform@cpr@@@std@@PEAU12@@std@@YAPEAU?$pair@V?$shared_ptr@VSession@cpr@@@std@@W4HttpMethod@MultiPerform@cpr@@@0@PEAU10@00@Z
	??$_Move_unchecked@PEAVResponse@cpr@@PEAV12@@std@@YAPEAVResponse@cpr@@PEAV12@00@Z
	??$_Pocca@V?$allocator@D@std@@@std@@YAXAEAV?$allocator@D@0@AEBV10@@Z
	??$_Pocca@V?$allocator@U?$_List_node@V?$basic_string@DU?$char_traits@D@std@@V?$allocator@D@2@@std@@PEAX@std@@@std@@@std@@YAXAEAV?$allocator@U?$_List_node@V?$basic_string@DU?$char_traits@D@std@@V?$allocator@D@2@@std@@PEAX@std@@@0@AEBV10@@Z
	??$_Pocca@V?$allocator@U?$_Tree_node@U?$pair@$$CBV?$basic_string@DU?$char_traits@D@std@@V?$allocator@D@2@@std@@V12@@std@@PEAX@std@@@std@@@std@@YAXAEAV?$allocator@U?$_Tree_node@U?$pair@$$CBV?$basic_string@DU?$char_traits@D@std@@V?$allocator@D@2@@std@@V12@@std@@PEAX@std@@@0@AEBV10@@Z
	??$_Pocca@V?$allocator@U?$_Tree_node@U?$pair@$$CBV?$basic_string@DU?$char_traits@D@std@@V?$allocator@D@2@@std@@VEncodedAuthentication@cpr@@@std@@PEAX@std@@@std@@@std@@YAXAEAV?$allocator@U?$_Tree_node@U?$pair@$$CBV?$basic_string@DU?$char_traits@D@std@@V?$allocator@D@2@@std@@VEncodedAuthentication@cpr@@@std@@PEAX@std@@@0@AEBV10@@Z
	??$_Pocca@V?$allocator@UFile@cpr@@@std@@@std@@YAXAEAV?$allocator@UFile@cpr@@@0@AEBV10@@Z
	??$_Pocca@V?$allocator@UParameter@cpr@@@std@@@std@@YAXAEAV?$allocator@UParameter@cpr@@@0@AEBV10@@Z
	??$_Pocca@V?$allocator@V?$_List_unchecked_const_iterator@V?$_List_val@U?$_List_simple_types@V?$basic_string@DU?$char_traits@D@std@@V?$allocator@D@2@@std@@@std@@@std@@U_Iterator_base0@2@@std@@@std@@@std@@YAXAEAV?$allocator@V?$_List_unchecked_const_iterator@V?$_List_val@U?$_List_simple_types@V?$basic_string@DU?$char_traits@D@std@@V?$allocator@D@2@@std@@@std@@@std@@U_Iterator_base0@2@@std@@@0@AEBV10@@Z
	??$_Pocma@V?$allocator@D@std@@@std@@YAXAEAV?$allocator@D@0@0@Z
	??$_Pocma@V?$allocator@U?$_List_node@V?$basic_string@DU?$char_traits@D@std@@V?$allocator@D@2@@std@@PEAX@std@@@std@@@std@@YAXAEAV?$allocator@U?$_List_node@V?$basic_string@DU?$char_traits@D@std@@V?$allocator@D@2@@std@@PEAX@std@@@0@0@Z
	??$_Pocma@V?$allocator@U?$_Tree_node@U?$pair@$$CBV?$basic_string@DU?$char_traits@D@std@@V?$allocator@D@2@@std@@V12@@std@@PEAX@std@@@std@@@std@@YAXAEAV?$allocator@U?$_Tree_node@U?$pair@$$CBV?$basic_string@DU?$char_traits@D@std@@V?$allocator@D@2@@std@@V12@@std@@PEAX@std@@@0@0@Z
	??$_Pocma@V?$allocator@U?$_Tree_node@U?$pair@$$CBV?$basic_string@DU?$char_traits@D@std@@V?$allocator@D@2@@std@@VEncodedAuthentication@cpr@@@std@@PEAX@std@@@std@@@std@@YAXAEAV?$allocator@U?$_Tree_node@U?$pair@$$CBV?$basic_string@DU?$char_traits@D@std@@V?$allocator@D@2@@std@@VEncodedAuthentication@cpr@@@std@@PEAX@std@@@0@0@Z
	??$_Pocma@V?$allocator@UFile@cpr@@@std@@@std@@YAXAEAV?$allocator@UFile@cpr@@@0@0@Z
	??$_Pocma@V?$allocator@UParameter@cpr@@@std@@@std@@YAXAEAV?$allocator@UParameter@cpr@@@0@0@Z
	??$_Pocma@V?$allocator@V?$_List_unchecked_const_iterator@V?$_List_val@U?$_List_simple_types@V?$basic_string@DU?$char_traits@D@std@@V?$allocator@D@2@@std@@@std@@@std@@U_Iterator_base0@2@@std@@@std@@@std@@YAXAEAV?$allocator@V?$_List_unchecked_const_iterator@V?$_List_val@U?$_List_simple_types@V?$basic_string@DU?$char_traits@D@std@@V?$allocator@D@2@@std@@@std@@@std@@U_Iterator_base0@2@@std@@@0@0@Z
	??$_Pocma@V?$allocator@VCookie@cpr@@@std@@@std@@YAXAEAV?$allocator@VCookie@cpr@@@0@0@Z
	??$_Prev_iter@V?$_Deque_unchecked_iterator@V?$_Deque_val@U?$_Deque_simple_types@V?$function@$$A6AXXZ@std@@@std@@@std@@@std@@@std@@YA?AV?$_Deque_unchecked_iterator@V?$_Deque_val@U?$_Deque_simple_types@V?$function@$$A6AXXZ@std@@@std@@@std@@@0@V10@@Z
	??$_Reallocate_for@V<lambda_66f57f934f28d61049862f64df852ff0>@@PEBD@?$basic_string@DU?$char_traits@D@std@@V?$allocator@D@2@@std@@AEAAAEAV01@_KV<lambda_66f57f934f28d61049862f64df852ff0>@@PEBD@Z
	??$_Reallocate_grow_by@V<lambda_319d5e083f45f90dcdce5dce53cbb275>@@D@?$basic_string@DU?$char_traits@D@std@@V?$allocator@D@2@@std@@AEAAAEAV01@_KV<lambda_319d5e083f45f90dcdce5dce53cbb275>@@D@Z
	??$_Reallocate_grow_by@V<lambda_65e615be2a453ca0576c979606f46740>@@PEBD_K@?$basic_string@DU?$char_traits@D@std@@V?$allocator@D@2@@std@@AEAAAEAV01@_KV<lambda_65e615be2a453ca0576c979606f46740>@@PEBD_K@Z
	??$_Reallocate_grow_by@V<lambda_9013ee9e23efe4882b67eff5b0ecf103>@@$$V@?$basic_string@DU?$char_traits@D@std@@V?$allocator@D@2@@std@@AEAAAEAV01@_KV<lambda_9013ee9e23efe4882b67eff5b0ecf103>@@@Z
	??$_Reallocate_grow_by@V<lambda_e1befb086ad3257e3f042a63030725f7>@@_KD@?$basic_string@DU?$char_traits@D@std@@V?$allocator@D@2@@std@@AEAAAEAV01@_KV<lambda_e1befb086ad3257e3f042a63030725f7>@@_KD@Z
	??$_Reallocate_grow_by@V<lambda_f3a66ab6a0570788f31503db83886f49>@@_KPEBD_K@?$basic_string@DU?$char_traits@D@std@@V?$allocator@D@2@@std@@AEAAAEAV01@_KV<lambda_f3a66ab6a0570788f31503db83886f49>@@_KPEBD2@Z
	??$_Refancy@PEAD$0A@@std@@YAPEADPEAD@Z
	??$_Refancy@PEAU?$pair@V?$shared_ptr@VSession@cpr@@@std@@W4HttpMethod@MultiPerform@cpr@@@std@@$0A@@std@@YAPEAU?$pair@V?$shared_ptr@VSession@cpr@@@std@@W4HttpMethod@MultiPerform@cpr@@@0@PEAU10@@Z
	??$_Refancy@PEAVResponse@cpr@@$0A@@std@@YAPEAVResponse@cpr@@PEAV12@@Z
	??$_Refancy@PEBD$0A@@std@@YAPEBDPEBD@Z
	??$_Seek_wrapped@PEAPEAV?$function@$$A6AXXZ@std@@PEAPEAV12@@std@@YAXAEAPEAPEAV?$function@$$A6AXXZ@0@$$QEAPEAPEAV10@@Z
	??$_Seek_wrapped@PEAPEAV?$shared_ptr@VInterceptor@cpr@@@std@@PEAPEAV12@@std@@YAXAEAPEAPEAV?$shared_ptr@VInterceptor@cpr@@@0@$$QEAPEAPEAV10@@Z
	??$_Seek_wrapped@PEAPEAV?$shared_ptr@VInterceptorMulti@cpr@@@std@@PEAPEAV12@@std@@YAXAEAPEAPEAV?$shared_ptr@VInterceptorMulti@cpr@@@0@$$QEAPEAPEAV10@@Z
	??$_Seek_wrapped@V?$_String_iterator@V?$_String_val@U?$_Simple_types@D@std@@@std@@@std@@AEAPEAD@std@@YAXAEAV?$_String_iterator@V?$_String_val@U?$_Simple_types@D@std@@@std@@@0@AEAPEAD@Z
	??$_Seek_wrapped@V?$_Vector_iterator@V?$_Vector_val@U?$_Simple_types@U?$pair@V?$shared_ptr@VSession@cpr@@@std@@W4HttpMethod@MultiPerform@cpr@@@std@@@std@@@std@@@std@@AEAPEAU?$pair@V?$shared_ptr@VSession@cpr@@@std@@W4HttpMethod@MultiPerform@cpr@@@2@@std@@YAXAEAV?$_Vector_iterator@V?$_Vector_val@U?$_Simple_types@U?$pair@V?$shared_ptr@VSession@cpr@@@std@@W4HttpMethod@MultiPerform@cpr@@@std@@@std@@@std@@@0@AEAPEAU?$pair@V?$shared_ptr@VSession@cpr@@@std@@W4HttpMethod@MultiPerform@cpr@@@0@@Z
	??$_Seek_wrapped@V?$_Vector_iterator@V?$_Vector_val@U?$_Simple_types@VResponse@cpr@@@std@@@std@@@std@@AEAPEAVResponse@cpr@@@std@@YAXAEAV?$_Vector_iterator@V?$_Vector_val@U?$_Simple_types@VResponse@cpr@@@std@@@std@@@0@AEAPEAVResponse@cpr@@@Z
	??$_Seek_wrapped@V?$back_insert_iterator@V?$vector@UPair@cpr@@V?$allocator@UPair@cpr@@@std@@@std@@@std@@AEAV12@@std@@YAXAEAV?$back_insert_iterator@V?$vector@UPair@cpr@@V?$allocator@UPair@cpr@@@std@@@std@@@0@0@Z
	??$_Seek_wrapped@V?$back_insert_iterator@V?$vector@UParameter@cpr@@V?$allocator@UParameter@cpr@@@std@@@std@@@std@@AEAV12@@std@@YAXAEAV?$back_insert_iterator@V?$vector@UParameter@cpr@@V?$allocator@UParameter@cpr@@@std@@@std@@@0@0@Z
	??$_Seek_wrapped@V?$insert_iterator@V?$unordered_set@V?$basic_string@DU?$char_traits@D@std@@V?$allocator@D@2@@std@@U?$hash@V?$basic_string@DU?$char_traits@D@std@@V?$allocator@D@2@@std@@@2@U?$equal_to@V?$basic_string@DU?$char_traits@D@std@@V?$allocator@D@2@@std@@@2@V?$allocator@V?$basic_string@DU?$char_traits@D@std@@V?$allocator@D@2@@std@@@2@@std@@@std@@AEAV12@@std@@YAXAEAV?$insert_iterator@V?$unordered_set@V?$basic_string@DU?$char_traits@D@std@@V?$allocator@D@2@@std@@U?$hash@V?$basic_string@DU?$char_traits@D@std@@V?$allocator@D@2@@std@@@2@U?$equal_to@V?$basic_string@DU?$char_traits@D@std@@V?$allocator@D@2@@std@@@2@V?$allocator@V?$basic_string@DU?$char_traits@D@std@@V?$allocator@D@2@@std@@@2@@std@@@0@0@Z
	??$_Set_ptr_rep_and_enable_shared@UCurlHolder@cpr@@@?$shared_ptr@UCurlHolder@cpr@@@std@@AEAAXQEAUCurlHolder@cpr@@QEAV_Ref_count_base@1@@Z
	??$_Set_ptr_rep_and_enable_shared@V?$packaged_task@$$A6A?AVResponse@cpr@@XZ@std@@@?$shared_ptr@V?$packaged_task@$$A6A?AVResponse@cpr@@XZ@std@@@std@@AEAAXQEAV?$packaged_task@$$A6A?AVResponse@cpr@@XZ@1@QEAV_Ref_count_base@1@@Z
	??$_Set_ptr_rep_and_enable_shared@Vthread@std@@@?$shared_ptr@Vthread@std@@@std@@AEAAXQEAVthread@1@QEAV_Ref_count_base@1@@Z
	??$_To_absolute_time@_JU?$ratio@$00$0DOI@@std@@@std@@YA?A_PAEBV?$duration@_JU?$ratio@$00$0DOI@@std@@@chrono@0@@Z
	??$_To_address@PEAPEAV?$function@$$A6AXXZ@std@@@std@@YA?A_PAEBQEAPEAV?$function@$$A6AXXZ@0@@Z
	??$_To_address@PEAPEAV?$shared_ptr@VInterceptor@cpr@@@std@@@std@@YA?A_PAEBQEAPEAV?$shared_ptr@VInterceptor@cpr@@@0@@Z
	??$_To_address@PEAPEAV?$shared_ptr@VInterceptorMulti@cpr@@@std@@@std@@YA?A_PAEBQEAPEAV?$shared_ptr@VInterceptorMulti@cpr@@@0@@Z
	??$_To_timespec64_sys_10_day_clamped@_JU?$ratio@$00$0DLJKMKAA@@std@@@std@@YA_NAEAU_timespec64@@AEBV?$duration@_JU?$ratio@$00$0DLJKMKAA@@std@@@chrono@0@@Z
	??$_Traits_compare@U?$char_traits@D@std@@@std@@YAHQEBD_K01@Z
	??$_Traits_equal@U?$char_traits@D@std@@@std@@YA_NQEBD_K01@Z
	??$_Traits_find_ch@U?$char_traits@D@std@@@std@@YA_KQEBD_K1D@Z
	??$_Traits_find_first_not_of@U?$char_traits@D@std@@$00@std@@YA_KQEBD_K101@Z
	??$_Traits_find_first_not_of@U?$char_traits@D@std@@$0A@@std@@YA_KQEBD_K101@Z
	??$_Traits_find_first_of@U?$char_traits@D@std@@$00@std@@YA_KQEBD_K101@Z
	??$_Traits_find_first_of@U?$char_traits@D@std@@$0A@@std@@YA_KQEBD_K101@Z
	??$_Traits_find_last_not_of@U?$char_traits@D@std@@$00@std@@YA_KQEBD_K101@Z
	??$_Traits_find_last_not_of@U?$char_traits@D@std@@$0A@@std@@YA_KQEBD_K101@Z
	??$_Try_emplace@AEBV?$basic_string@DU?$char_traits@D@std@@V?$allocator@D@2@@std@@$$V@?$map@V?$basic_string@DU?$char_traits@D@std@@V?$allocator@D@2@@std@@V12@U?$less@V?$basic_string@DU?$char_traits@D@std@@V?$allocator@D@2@@std@@@2@V?$allocator@U?$pair@$$CBV?$basic_string@DU?$char_traits@D@std@@V?$allocator@D@2@@std@@V12@@std@@@2@@std@@AEAA?AU?$pair@PEAU?$_Tree_node@U?$pair@$$CBV?$basic_string@DU?$char_traits@D@std@@V?$allocator@D@2@@std@@V12@@std@@PEAX@std@@_N@1@AEBV?$basic_string@DU?$char_traits@D@std@@V?$allocator@D@2@@1@@Z
	??$_Try_emplace@AEBV?$basic_string@DU?$char_traits@D@std@@V?$allocator@D@2@@std@@$$V@?$map@V?$basic_string@DU?$char_traits@D@std@@V?$allocator@D@2@@std@@V12@UCaseInsensitiveCompare@cpr@@V?$allocator@U?$pair@$$CBV?$basic_string@DU?$char_traits@D@std@@V?$allocator@D@2@@std@@V12@@std@@@2@@std@@AEAA?AU?$pair@PEAU?$_Tree_node@U?$pair@$$CBV?$basic_string@DU?$char_traits@D@std@@V?$allocator@D@2@@std@@V12@@std@@PEAX@std@@_N@1@AEBV?$basic_string@DU?$char_traits@D@std@@V?$allocator@D@2@@1@@Z
	??$_Try_emplace@AEBV?$basic_string@DU?$char_traits@D@std@@V?$allocator@D@2@@std@@$$V@?$map@V?$basic_string@DU?$char_traits@D@std@@V?$allocator@D@2@@std@@VEncodedAuthentication@cpr@@U?$less@V?$basic_string@DU?$char_traits@D@std@@V?$allocator@D@2@@std@@@2@V?$allocator@U?$pair@$$CBV?$basic_string@DU?$char_traits@D@std@@V?$allocator@D@2@@std@@VEncodedAuthentication@cpr@@@std@@@2@@std@@AEAA?AU?$pair@PEAU?$_Tree_node@U?$pair@$$CBV?$basic_string@DU?$char_traits@D@std@@V?$allocator@D@2@@std@@VEncodedAuthentication@cpr@@@std@@PEAX@std@@_N@1@AEBV?$basic_string@DU?$char_traits@D@std@@V?$allocator@D@2@@1@@Z
	??$_Try_emplace@V?$basic_string@DU?$char_traits@D@std@@V?$allocator@D@2@@std@@$$V@?$map@V?$basic_string@DU?$char_traits@D@std@@V?$allocator@D@2@@std@@V12@UCaseInsensitiveCompare@cpr@@V?$allocator@U?$pair@$$CBV?$basic_string@DU?$char_traits@D@std@@V?$allocator@D@2@@std@@V12@@std@@@2@@std@@AEAA?AU?$pair@PEAU?$_Tree_node@U?$pair@$$CBV?$basic_string@DU?$char_traits@D@std@@V?$allocator@D@2@@std@@V12@@std@@PEAX@std@@_N@1@$$QEAV?$basic_string@DU?$char_traits@D@std@@V?$allocator@D@2@@1@@Z
	??$_Tuple_get@$0A@$$QEAV?$basic_string@DU?$char_traits@D@std@@V?$allocator@D@2@@std@@@std@@YA$$QEA_P$$QEAV?$tuple@$$QEAV?$basic_string@DU?$char_traits@D@std@@V?$allocator@D@2@@std@@@0@@Z
	??$_Tuple_get@$0A@AEBV?$basic_string@DU?$char_traits@D@std@@V?$allocator@D@2@@std@@@std@@YA$$QEA_P$$QEAV?$tuple@AEBV?$basic_string@DU?$char_traits@D@std@@V?$allocator@D@2@@std@@@0@@Z
	??$_UIntegral_to_buff@DI@std@@YAPEADPEADI@Z
	??$_UIntegral_to_buff@D_K@std@@YAPEADPEAD_K@Z
	??$_Unfancy@$$CBD@std@@YAPEBDPEBD@Z
	??$_Unfancy@D@std@@YAPEADPEAD@Z
	??$_Unfancy@U?$pair@V?$shared_ptr@VSession@cpr@@@std@@W4HttpMethod@MultiPerform@cpr@@@std@@@std@@YAPEAU?$pair@V?$shared_ptr@VSession@cpr@@@std@@W4HttpMethod@MultiPerform@cpr@@@0@PEAU10@@Z
	??$_Unfancy@UFile@cpr@@@std@@YAPEAUFile@cpr@@PEAU12@@Z
	??$_Unfancy@UPair@cpr@@@std@@YAPEAUPair@cpr@@PEAU12@@Z
	??$_Unfancy@UParameter@cpr@@@std@@YAPEAUParameter@cpr@@PEAU12@@Z
	??$_Unfancy@UPart@cpr@@@std@@YAPEAUPart@cpr@@PEAU12@@Z
	??$_Unfancy@U_Container_proxy@std@@@std@@YAPEAU_Container_proxy@0@PEAU10@@Z
	??$_Unfancy@V?$basic_string@DU?$char_traits@D@std@@V?$allocator@D@2@@std@@@std@@YAPEAV?$basic_string@DU?$char_traits@D@std@@V?$allocator@D@2@@0@PEAV10@@Z
	??$_Unfancy@V?$function@$$A6AXXZ@std@@@std@@YAPEAV?$function@$$A6AXXZ@0@PEAV10@@Z
	??$_Unfancy@V?$shared_ptr@VInterceptor@cpr@@@std@@@std@@YAPEAV?$shared_ptr@VInterceptor@cpr@@@0@PEAV10@@Z
	??$_Unfancy@V?$shared_ptr@VInterceptorMulti@cpr@@@std@@@std@@YAPEAV?$shared_ptr@VInterceptorMulti@cpr@@@0@PEAV10@@Z
	??$_Unfancy@VCertInfo@cpr@@@std@@YAPEAVCertInfo@cpr@@PEAV12@@Z
	??$_Unfancy@VCookie@cpr@@@std@@YAPEAVCookie@cpr@@PEAV12@@Z
	??$_Unfancy@VResolve@cpr@@@std@@YAPEAVResolve@cpr@@PEAV12@@Z
	??$_Unfancy@VResponse@cpr@@@std@@YAPEAVResponse@cpr@@PEAV12@@Z
	??$_Uninitialized_copy@PEAUFile@cpr@@PEAU12@V?$allocator@UFile@cpr@@@std@@@std@@YAPEAUFile@cpr@@PEAU12@00AEAV?$allocator@UFile@cpr@@@0@@Z
	??$_Uninitialized_copy@PEAV?$basic_string@DU?$char_traits@D@std@@V?$allocator@D@2@@std@@PEAV12@V?$allocator@V?$basic_string@DU?$char_traits@D@std@@V?$allocator@D@2@@std@@@2@@std@@YAPEAV?$basic_string@DU?$char_traits@D@std@@V?$allocator@D@2@@0@PEAV10@00AEAV?$allocator@V?$basic_string@DU?$char_traits@D@std@@V?$allocator@D@2@@std@@@0@@Z
	??$_Uninitialized_copy@PEAVCertInfo@cpr@@PEAV12@V?$allocator@VCertInfo@cpr@@@std@@@std@@YAPEAVCertInfo@cpr@@PEAV12@00AEAV?$allocator@VCertInfo@cpr@@@0@@Z
	??$_Uninitialized_copy@PEAVCookie@cpr@@PEAV12@V?$allocator@VCookie@cpr@@@std@@@std@@YAPEAVCookie@cpr@@PEAV12@00AEAV?$allocator@VCookie@cpr@@@0@@Z
	??$_Uninitialized_copy@PEBUPair@cpr@@PEBU12@V?$allocator@UPair@cpr@@@std@@@std@@YAPEAUPair@cpr@@PEBU12@0PEAU12@AEAV?$allocator@UPair@cpr@@@0@@Z
	??$_Uninitialized_copy@PEBUParameter@cpr@@PEBU12@V?$allocator@UParameter@cpr@@@std@@@std@@YAPEAUParameter@cpr@@PEBU12@0PEAU12@AEAV?$allocator@UParameter@cpr@@@0@@Z
	??$_Uninitialized_copy@PEBUPart@cpr@@PEBU12@V?$allocator@UPart@cpr@@@std@@@std@@YAPEAUPart@cpr@@PEBU12@0PEAU12@AEAV?$allocator@UPart@cpr@@@0@@Z
	??$_Uninitialized_copy@PEBVResolve@cpr@@PEBV12@V?$allocator@VResolve@cpr@@@std@@@std@@YAPEAVResolve@cpr@@PEBV12@0PEAV12@AEAV?$allocator@VResolve@cpr@@@0@@Z
	??$_Uninitialized_copy_n@PEAUFile@cpr@@V?$allocator@UFile@cpr@@@std@@@std@@YAPEAUFile@cpr@@PEAU12@_K0AEAV?$allocator@UFile@cpr@@@0@@Z
	??$_Uninitialized_copy_n@PEAUParameter@cpr@@V?$allocator@UParameter@cpr@@@std@@@std@@YAPEAUParameter@cpr@@PEAU12@_K0AEAV?$allocator@UParameter@cpr@@@0@@Z
	??$_Uninitialized_copy_unchecked@PEAPEAV?$function@$$A6AXXZ@std@@PEAPEAV12@@std@@YAPEAPEAV?$function@$$A6AXXZ@0@PEAPEAV10@QEAPEAV10@0@Z
	??$_Uninitialized_copy_unchecked@PEAPEAV?$shared_ptr@VInterceptor@cpr@@@std@@PEAPEAV12@@std@@YAPEAPEAV?$shared_ptr@VInterceptor@cpr@@@0@PEAPEAV10@QEAPEAV10@0@Z
	??$_Uninitialized_copy_unchecked@PEAPEAV?$shared_ptr@VInterceptorMulti@cpr@@@std@@PEAPEAV12@@std@@YAPEAPEAV?$shared_ptr@VInterceptorMulti@cpr@@@0@PEAPEAV10@QEAPEAV10@0@Z
	??$_Uninitialized_move@PEAU?$pair@V?$shared_ptr@VSession@cpr@@@std@@W4HttpMethod@MultiPerform@cpr@@@std@@V?$allocator@U?$pair@V?$shared_ptr@VSession@cpr@@@std@@W4HttpMethod@MultiPerform@cpr@@@std@@@2@@std@@YAPEAU?$pair@V?$shared_ptr@VSession@cpr@@@std@@W4HttpMethod@MultiPerform@cpr@@@0@QEAU10@0PEAU10@AEAV?$allocator@U?$pair@V?$shared_ptr@VSession@cpr@@@std@@W4HttpMethod@MultiPerform@cpr@@@std@@@0@@Z
	??$_Uninitialized_move@PEAUFile@cpr@@V?$allocator@UFile@cpr@@@std@@@std@@YAPEAUFile@cpr@@QEAU12@0PEAU12@AEAV?$allocator@UFile@cpr@@@0@@Z
	??$_Uninitialized_move@PEAUPair@cpr@@V?$allocator@UPair@cpr@@@std@@@std@@YAPEAUPair@cpr@@QEAU12@0PEAU12@AEAV?$allocator@UPair@cpr@@@0@@Z
	??$_Uninitialized_move@PEAUParameter@cpr@@V?$allocator@UParameter@cpr@@@std@@@std@@YAPEAUParameter@cpr@@QEAU12@0PEAU12@AEAV?$allocator@UParameter@cpr@@@0@@Z
	??$_Uninitialized_move@PEAV?$basic_string@DU?$char_traits@D@std@@V?$allocator@D@2@@std@@V?$allocator@V?$basic_string@DU?$char_traits@D@std@@V?$allocator@D@2@@std@@@2@@std@@YAPEAV?$basic_string@DU?$char_traits@D@std@@V?$allocator@D@2@@0@QEAV10@0PEAV10@AEAV?$allocator@V?$basic_string@DU?$char_traits@D@std@@V?$allocator@D@2@@std@@@0@@Z
	??$_Uninitialized_move@PEAVCertInfo@cpr@@V?$allocator@VCertInfo@cpr@@@std@@@std@@YAPEAVCertInfo@cpr@@QEAV12@0PEAV12@AEAV?$allocator@VCertInfo@cpr@@@0@@Z
	??$_Uninitialized_move@PEAVCookie@cpr@@V?$allocator@VCookie@cpr@@@std@@@std@@YAPEAVCookie@cpr@@QEAV12@0PEAV12@AEAV?$allocator@VCookie@cpr@@@0@@Z
	??$_Uninitialized_move@PEAVResponse@cpr@@V?$allocator@VResponse@cpr@@@std@@@std@@YAPEAVResponse@cpr@@QEAV12@0PEAV12@AEAV?$allocator@VResponse@cpr@@@0@@Z
	??$_Uninitialized_value_construct_n_unchecked1@PEAPEAV?$function@$$A6AXXZ@std@@_K@std@@YAPEAPEAV?$function@$$A6AXXZ@0@PEAPEAV10@_K@Z
	??$_Uninitialized_value_construct_n_unchecked1@PEAPEAV?$shared_ptr@VInterceptor@cpr@@@std@@_K@std@@YAPEAPEAV?$shared_ptr@VInterceptor@cpr@@@0@PEAPEAV10@_K@Z
	??$_Uninitialized_value_construct_n_unchecked1@PEAPEAV?$shared_ptr@VInterceptorMulti@cpr@@@std@@_K@std@@YAPEAPEAV?$shared_ptr@VInterceptorMulti@cpr@@@0@PEAPEAV10@_K@Z
	??$_Verify_range@D@std@@YAXQEBD0@Z
	??$_Verify_range@PEAV?$function@$$A6AXXZ@std@@@std@@YAXQEBQEAV?$function@$$A6AXXZ@0@0@Z
	??$_Verify_range@PEAV?$shared_ptr@VInterceptor@cpr@@@std@@@std@@YAXQEBQEAV?$shared_ptr@VInterceptor@cpr@@@0@0@Z
	??$_Verify_range@PEAV?$shared_ptr@VInterceptorMulti@cpr@@@std@@@std@@YAXQEBQEAV?$shared_ptr@VInterceptorMulti@cpr@@@0@0@Z
	??$_Verify_range@UPair@cpr@@@std@@YAXQEBUPair@cpr@@0@Z
	??$_Verify_range@UParameter@cpr@@@std@@YAXQEBUParameter@cpr@@0@Z
	??$_Verify_range@V?$_List_unchecked_const_iterator@V?$_List_val@U?$_List_simple_types@V?$basic_string@DU?$char_traits@D@std@@V?$allocator@D@2@@std@@@std@@@std@@U_Iterator_base0@2@@std@@@std@@YAXQEBV?$_List_unchecked_const_iterator@V?$_List_val@U?$_List_simple_types@V?$basic_string@DU?$char_traits@D@std@@V?$allocator@D@2@@std@@@std@@@std@@U_Iterator_base0@2@@0@0@Z
	??$_Verify_range@W4AcceptEncodingMethods@cpr@@@std@@YAXQEBW4AcceptEncodingMethods@cpr@@0@Z
	??$_Zero_range@PEAPEAV?$function@$$A6AXXZ@std@@@std@@YAPEAPEAV?$function@$$A6AXXZ@0@QEAPEAV10@0@Z
	??$_Zero_range@PEAPEAV?$shared_ptr@VInterceptor@cpr@@@std@@@std@@YAPEAPEAV?$shared_ptr@VInterceptor@cpr@@@0@QEAPEAV10@0@Z
	??$_Zero_range@PEAPEAV?$shared_ptr@VInterceptorMulti@cpr@@@std@@@std@@YAPEAPEAV?$shared_ptr@VInterceptorMulti@cpr@@@0@QEAPEAV10@0@Z
	??$addressof@$$CBV?$_Hash@V?$_Uset_traits@V?$basic_string@DU?$char_traits@D@std@@V?$allocator@D@2@@std@@V?$_Uhash_compare@V?$basic_string@DU?$char_traits@D@std@@V?$allocator@D@2@@std@@U?$hash@V?$basic_string@DU?$char_traits@D@std@@V?$allocator@D@2@@std@@@2@U?$equal_to@V?$basic_string@DU?$char_traits@D@std@@V?$allocator@D@2@@std@@@2@@2@V?$allocator@V?$basic_string@DU?$char_traits@D@std@@V?$allocator@D@2@@std@@@2@$0A@@std@@@std@@@std@@YAPEBV?$_Hash@V?$_Uset_traits@V?$basic_string@DU?$char_traits@D@std@@V?$allocator@D@2@@std@@V?$_Uhash_compare@V?$basic_string@DU?$char_traits@D@std@@V?$allocator@D@2@@std@@U?$hash@V?$basic_string@DU?$char_traits@D@std@@V?$allocator@D@2@@std@@@2@U?$equal_to@V?$basic_string@DU?$char_traits@D@std@@V?$allocator@D@2@@std@@@2@@2@V?$allocator@V?$basic_string@DU?$char_traits@D@std@@V?$allocator@D@2@@std@@@2@$0A@@std@@@0@AEBV10@@Z
	??$addressof@$$CBV?$_List_val@U?$_List_simple_types@UThreadData@ThreadPool@cpr@@@std@@@std@@@std@@YAPEBV?$_List_val@U?$_List_simple_types@UThreadData@ThreadPool@cpr@@@std@@@0@AEBV10@@Z
	??$addressof@$$CBV?$_List_val@U?$_List_simple_types@V?$basic_string@DU?$char_traits@D@std@@V?$allocator@D@2@@std@@@std@@@std@@@std@@YAPEBV?$_List_val@U?$_List_simple_types@V?$basic_string@DU?$char_traits@D@std@@V?$allocator@D@2@@std@@@std@@@0@AEBV10@@Z
	??$addressof@$$CBV?$_String_val@U?$_Simple_types@D@std@@@std@@@std@@YAPEBV?$_String_val@U?$_Simple_types@D@std@@@0@AEBV10@@Z
	??$addressof@$$CBV?$_Tree@V?$_Tmap_traits@V?$basic_string@DU?$char_traits@D@std@@V?$allocator@D@2@@std@@V12@U?$less@V?$basic_string@DU?$char_traits@D@std@@V?$allocator@D@2@@std@@@2@V?$allocator@U?$pair@$$CBV?$basic_string@DU?$char_traits@D@std@@V?$allocator@D@2@@std@@V12@@std@@@2@$0A@@std@@@std@@@std@@YAPEBV?$_Tree@V?$_Tmap_traits@V?$basic_string@DU?$char_traits@D@std@@V?$allocator@D@2@@std@@V12@U?$less@V?$basic_string@DU?$char_traits@D@std@@V?$allocator@D@2@@std@@@2@V?$allocator@U?$pair@$$CBV?$basic_string@DU?$char_traits@D@std@@V?$allocator@D@2@@std@@V12@@std@@@2@$0A@@std@@@0@AEBV10@@Z
	??$addressof@$$CBV?$_Tree@V?$_Tmap_traits@V?$basic_string@DU?$char_traits@D@std@@V?$allocator@D@2@@std@@V12@UCaseInsensitiveCompare@cpr@@V?$allocator@U?$pair@$$CBV?$basic_string@DU?$char_traits@D@std@@V?$allocator@D@2@@std@@V12@@std@@@2@$0A@@std@@@std@@@std@@YAPEBV?$_Tree@V?$_Tmap_traits@V?$basic_string@DU?$char_traits@D@std@@V?$allocator@D@2@@std@@V12@UCaseInsensitiveCompare@cpr@@V?$allocator@U?$pair@$$CBV?$basic_string@DU?$char_traits@D@std@@V?$allocator@D@2@@std@@V12@@std@@@2@$0A@@std@@@0@AEBV10@@Z
	??$addressof@$$CBV?$_Tree@V?$_Tmap_traits@V?$basic_string@DU?$char_traits@D@std@@V?$allocator@D@2@@std@@VEncodedAuthentication@cpr@@U?$less@V?$basic_string@DU?$char_traits@D@std@@V?$allocator@D@2@@std@@@2@V?$allocator@U?$pair@$$CBV?$basic_string@DU?$char_traits@D@std@@V?$allocator@D@2@@std@@VEncodedAuthentication@cpr@@@std@@@2@$0A@@std@@@std@@@std@@YAPEBV?$_Tree@V?$_Tmap_traits@V?$basic_string@DU?$char_traits@D@std@@V?$allocator@D@2@@std@@VEncodedAuthentication@cpr@@U?$less@V?$basic_string@DU?$char_traits@D@std@@V?$allocator@D@2@@std@@@2@V?$allocator@U?$pair@$$CBV?$basic_string@DU?$char_traits@D@std@@V?$allocator@D@2@@std@@VEncodedAuthentication@cpr@@@std@@@2@$0A@@std@@@0@AEBV10@@Z
	??$addressof@$$CBV?$_Tree_val@U?$_Tree_simple_types@G@std@@@std@@@std@@YAPEBV?$_Tree_val@U?$_Tree_simple_types@G@std@@@0@AEBV10@@Z
	??$addressof@$$CBV?$_Tree_val@U?$_Tree_simple_types@U?$pair@$$CBV?$basic_string@DU?$char_traits@D@std@@V?$allocator@D@2@@std@@V12@@std@@@std@@@std@@@std@@YAPEBV?$_Tree_val@U?$_Tree_simple_types@U?$pair@$$CBV?$basic_string@DU?$char_traits@D@std@@V?$allocator@D@2@@std@@V12@@std@@@std@@@0@AEBV10@@Z
	??$addressof@$$CBV?$_Tree_val@U?$_Tree_simple_types@U?$pair@$$CBV?$basic_string@DU?$char_traits@D@std@@V?$allocator@D@2@@std@@VEncodedAuthentication@cpr@@@std@@@std@@@std@@@std@@YAPEBV?$_Tree_val@U?$_Tree_simple_types@U?$pair@$$CBV?$basic_string@DU?$char_traits@D@std@@V?$allocator@D@2@@std@@VEncodedAuthentication@cpr@@@std@@@std@@@0@AEBV10@@Z
	??$addressof@$$CBV?$_Tree_val@U?$_Tree_simple_types@U?$pair@$$CBW4AcceptEncodingMethods@cpr@@V?$basic_string@DU?$char_traits@D@std@@V?$allocator@D@2@@std@@@std@@@std@@@std@@@std@@YAPEBV?$_Tree_val@U?$_Tree_simple_types@U?$pair@$$CBW4AcceptEncodingMethods@cpr@@V?$basic_string@DU?$char_traits@D@std@@V?$allocator@D@2@@std@@@std@@@std@@@0@AEBV10@@Z
	??$addressof@$$CBV?$_Vector_val@U?$_Simple_types@UFile@cpr@@@std@@@std@@@std@@YAPEBV?$_Vector_val@U?$_Simple_types@UFile@cpr@@@std@@@0@AEBV10@@Z
	??$addressof@$$CBV?$_Vector_val@U?$_Simple_types@V?$basic_string@DU?$char_traits@D@std@@V?$allocator@D@2@@std@@@std@@@std@@@std@@YAPEBV?$_Vector_val@U?$_Simple_types@V?$basic_string@DU?$char_traits@D@std@@V?$allocator@D@2@@std@@@std@@@0@AEBV10@@Z
	??$addressof@$$CBV?$_Vector_val@U?$_Simple_types@VCookie@cpr@@@std@@@std@@@std@@YAPEBV?$_Vector_val@U?$_Simple_types@VCookie@cpr@@@std@@@0@AEBV10@@Z
	??$addressof@$$CBV?$basic_string@DU?$char_traits@D@std@@V?$allocator@D@2@@std@@@std@@YAPEBV?$basic_string@DU?$char_traits@D@std@@V?$allocator@D@2@@0@AEBV10@@Z
	??$addressof@$$CBV?$vector@UFile@cpr@@V?$allocator@UFile@cpr@@@std@@@std@@@std@@YAPEBV?$vector@UFile@cpr@@V?$allocator@UFile@cpr@@@std@@@0@AEBV10@@Z
	??$addressof@$$CBV?$vector@UParameter@cpr@@V?$allocator@UParameter@cpr@@@std@@@std@@@std@@YAPEBV?$vector@UParameter@cpr@@V?$allocator@UParameter@cpr@@@std@@@0@AEBV10@@Z
	??$addressof@$$CBW4Status@ThreadPool@cpr@@@std@@YAPEBW4Status@ThreadPool@cpr@@AEBW4123@@Z
	??$addressof@D@std@@YAPEADAEAD@Z
	??$addressof@G@std@@YAPEAGAEAG@Z
	??$addressof@PEAD@std@@YAPEAPEADAEAPEAD@Z
	??$addressof@PEAU?$_List_node@UThreadData@ThreadPool@cpr@@PEAX@std@@@std@@YAPEAPEAU?$_List_node@UThreadData@ThreadPool@cpr@@PEAX@0@AEAPEAU10@@Z
	??$addressof@PEAU?$_List_node@V?$basic_string@DU?$char_traits@D@std@@V?$allocator@D@2@@std@@PEAX@std@@@std@@YAPEAPEAU?$_List_node@V?$basic_string@DU?$char_traits@D@std@@V?$allocator@D@2@@std@@PEAX@0@AEAPEAU10@@Z
	??$addressof@PEAU?$_Tree_node@GPEAX@std@@@std@@YAPEAPEAU?$_Tree_node@GPEAX@0@AEAPEAU10@@Z
	??$addressof@PEAU?$_Tree_node@U?$pair@$$CBV?$basic_string@DU?$char_traits@D@std@@V?$allocator@D@2@@std@@V12@@std@@PEAX@std@@@std@@YAPEAPEAU?$_Tree_node@U?$pair@$$CBV?$basic_string@DU?$char_traits@D@std@@V?$allocator@D@2@@std@@V12@@std@@PEAX@0@AEAPEAU10@@Z
	??$addressof@PEAU?$_Tree_node@U?$pair@$$CBV?$basic_string@DU?$char_traits@D@std@@V?$allocator@D@2@@std@@VEncodedAuthentication@cpr@@@std@@PEAX@std@@@std@@YAPEAPEAU?$_Tree_node@U?$pair@$$CBV?$basic_string@DU?$char_traits@D@std@@V?$allocator@D@2@@std@@VEncodedAuthentication@cpr@@@std@@PEAX@0@AEAPEAU10@@Z
	??$addressof@PEAU?$_Tree_node@U?$pair@$$CBW4AcceptEncodingMethods@cpr@@V?$basic_string@DU?$char_traits@D@std@@V?$allocator@D@2@@std@@@std@@PEAX@std@@@std@@YAPEAPEAU?$_Tree_node@U?$pair@$$CBW4AcceptEncodingMethods@cpr@@V?$basic_string@DU?$char_traits@D@std@@V?$allocator@D@2@@std@@@std@@PEAX@0@AEAPEAU10@@Z
	??$addressof@PEAV?$function@$$A6AXXZ@std@@@std@@YAPEAPEAV?$function@$$A6AXXZ@0@AEAPEAV10@@Z
	??$addressof@PEAV?$shared_ptr@VInterceptor@cpr@@@std@@@std@@YAPEAPEAV?$shared_ptr@VInterceptor@cpr@@@0@AEAPEAV10@@Z
	??$addressof@PEAV?$shared_ptr@VInterceptorMulti@cpr@@@std@@@std@@YAPEAPEAV?$shared_ptr@VInterceptorMulti@cpr@@@0@AEAPEAV10@@Z
	??$addressof@U?$pair@$$CBV?$basic_string@DU?$char_traits@D@std@@V?$allocator@D@2@@std@@V12@@std@@@std@@YAPEAU?$pair@$$CBV?$basic_string@DU?$char_traits@D@std@@V?$allocator@D@2@@std@@V12@@0@AEAU10@@Z
	??$addressof@U?$pair@$$CBV?$basic_string@DU?$char_traits@D@std@@V?$allocator@D@2@@std@@VEncodedAuthentication@cpr@@@std@@@std@@YAPEAU?$pair@$$CBV?$basic_string@DU?$char_traits@D@std@@V?$allocator@D@2@@std@@VEncodedAuthentication@cpr@@@0@AEAU10@@Z
	??$addressof@U?$pair@$$CBW4AcceptEncodingMethods@cpr@@V?$basic_string@DU?$char_traits@D@std@@V?$allocator@D@2@@std@@@std@@@std@@YAPEAU?$pair@$$CBW4AcceptEncodingMethods@cpr@@V?$basic_string@DU?$char_traits@D@std@@V?$allocator@D@2@@std@@@0@AEAU10@@Z
	??$addressof@U?$pair@V?$shared_ptr@VSession@cpr@@@std@@W4HttpMethod@MultiPerform@cpr@@@std@@@std@@YAPEAU?$pair@V?$shared_ptr@VSession@cpr@@@std@@W4HttpMethod@MultiPerform@cpr@@@0@AEAU10@@Z
	??$addressof@UPair@cpr@@@std@@YAPEAUPair@cpr@@AEAU12@@Z
	??$addressof@UParameter@cpr@@@std@@YAPEAUParameter@cpr@@AEAU12@@Z
	??$addressof@UThreadData@ThreadPool@cpr@@@std@@YAPEAUThreadData@ThreadPool@cpr@@AEAU123@@Z
	??$addressof@U_Container_base12@std@@@std@@YAPEAU_Container_base12@0@AEAU10@@Z
	??$addressof@U_Container_proxy@std@@@std@@YAPEAU_Container_proxy@0@AEAU10@@Z
	??$addressof@V?$_Deque_val@U?$_Deque_simple_types@V?$function@$$A6AXXZ@std@@@std@@@std@@@std@@YAPEAV?$_Deque_val@U?$_Deque_simple_types@V?$function@$$A6AXXZ@std@@@std@@@0@AEAV10@@Z
	??$addressof@V?$_Deque_val@U?$_Deque_simple_types@V?$shared_ptr@VInterceptor@cpr@@@std@@@std@@@std@@@std@@YAPEAV?$_Deque_val@U?$_Deque_simple_types@V?$shared_ptr@VInterceptor@cpr@@@std@@@std@@@0@AEAV10@@Z
	??$addressof@V?$_Deque_val@U?$_Deque_simple_types@V?$shared_ptr@VInterceptorMulti@cpr@@@std@@@std@@@std@@@std@@YAPEAV?$_Deque_val@U?$_Deque_simple_types@V?$shared_ptr@VInterceptorMulti@cpr@@@std@@@std@@@0@AEAV10@@Z
	??$addressof@V?$_Hash@V?$_Uset_traits@V?$basic_string@DU?$char_traits@D@std@@V?$allocator@D@2@@std@@V?$_Uhash_compare@V?$basic_string@DU?$char_traits@D@std@@V?$allocator@D@2@@std@@U?$hash@V?$basic_string@DU?$char_traits@D@std@@V?$allocator@D@2@@std@@@2@U?$equal_to@V?$basic_string@DU?$char_traits@D@std@@V?$allocator@D@2@@std@@@2@@2@V?$allocator@V?$basic_string@DU?$char_traits@D@std@@V?$allocator@D@2@@std@@@2@$0A@@std@@@std@@@std@@YAPEAV?$_Hash@V?$_Uset_traits@V?$basic_string@DU?$char_traits@D@std@@V?$allocator@D@2@@std@@V?$_Uhash_compare@V?$basic_string@DU?$char_traits@D@std@@V?$allocator@D@2@@std@@U?$hash@V?$basic_string@DU?$char_traits@D@std@@V?$allocator@D@2@@std@@@2@U?$equal_to@V?$basic_string@DU?$char_traits@D@std@@V?$allocator@D@2@@std@@@2@@2@V?$allocator@V?$basic_string@DU?$char_traits@D@std@@V?$allocator@D@2@@std@@@2@$0A@@std@@@0@AEAV10@@Z
	??$addressof@V?$_List_unchecked_const_iterator@V?$_List_val@U?$_List_simple_types@V?$basic_string@DU?$char_traits@D@std@@V?$allocator@D@2@@std@@@std@@@std@@U_Iterator_base0@2@@std@@@std@@YAPEAV?$_List_unchecked_const_iterator@V?$_List_val@U?$_List_simple_types@V?$basic_string@DU?$char_traits@D@std@@V?$allocator@D@2@@std@@@std@@@std@@U_Iterator_base0@2@@0@AEAV10@@Z
	??$addressof@V?$_List_val@U?$_List_simple_types@UThreadData@ThreadPool@cpr@@@std@@@std@@@std@@YAPEAV?$_List_val@U?$_List_simple_types@UThreadData@ThreadPool@cpr@@@std@@@0@AEAV10@@Z
	??$addressof@V?$_List_val@U?$_List_simple_types@V?$basic_string@DU?$char_traits@D@std@@V?$allocator@D@2@@std@@@std@@@std@@@std@@YAPEAV?$_List_val@U?$_List_simple_types@V?$basic_string@DU?$char_traits@D@std@@V?$allocator@D@2@@std@@@std@@@0@AEAV10@@Z
	??$addressof@V?$_String_val@U?$_Simple_types@D@std@@@std@@@std@@YAPEAV?$_String_val@U?$_Simple_types@D@std@@@0@AEAV10@@Z
	??$addressof@V?$_Tree@V?$_Tmap_traits@V?$basic_string@DU?$char_traits@D@std@@V?$allocator@D@2@@std@@V12@U?$less@V?$basic_string@DU?$char_traits@D@std@@V?$allocator@D@2@@std@@@2@V?$allocator@U?$pair@$$CBV?$basic_string@DU?$char_traits@D@std@@V?$allocator@D@2@@std@@V12@@std@@@2@$0A@@std@@@std@@@std@@YAPEAV?$_Tree@V?$_Tmap_traits@V?$basic_string@DU?$char_traits@D@std@@V?$allocator@D@2@@std@@V12@U?$less@V?$basic_string@DU?$char_traits@D@std@@V?$allocator@D@2@@std@@@2@V?$allocator@U?$pair@$$CBV?$basic_string@DU?$char_traits@D@std@@V?$allocator@D@2@@std@@V12@@std@@@2@$0A@@std@@@0@AEAV10@@Z
	??$addressof@V?$_Tree@V?$_Tmap_traits@V?$basic_string@DU?$char_traits@D@std@@V?$allocator@D@2@@std@@V12@UCaseInsensitiveCompare@cpr@@V?$allocator@U?$pair@$$CBV?$basic_string@DU?$char_traits@D@std@@V?$allocator@D@2@@std@@V12@@std@@@2@$0A@@std@@@std@@@std@@YAPEAV?$_Tree@V?$_Tmap_traits@V?$basic_string@DU?$char_traits@D@std@@V?$allocator@D@2@@std@@V12@UCaseInsensitiveCompare@cpr@@V?$allocator@U?$pair@$$CBV?$basic_string@DU?$char_traits@D@std@@V?$allocator@D@2@@std@@V12@@std@@@2@$0A@@std@@@0@AEAV10@@Z
	??$addressof@V?$_Tree@V?$_Tmap_traits@V?$basic_string@DU?$char_traits@D@std@@V?$allocator@D@2@@std@@VEncodedAuthentication@cpr@@U?$less@V?$basic_string@DU?$char_traits@D@std@@V?$allocator@D@2@@std@@@2@V?$allocator@U?$pair@$$CBV?$basic_string@DU?$char_traits@D@std@@V?$allocator@D@2@@std@@VEncodedAuthentication@cpr@@@std@@@2@$0A@@std@@@std@@@std@@YAPEAV?$_Tree@V?$_Tmap_traits@V?$basic_string@DU?$char_traits@D@std@@V?$allocator@D@2@@std@@VEncodedAuthentication@cpr@@U?$less@V?$basic_string@DU?$char_traits@D@std@@V?$allocator@D@2@@std@@@2@V?$allocator@U?$pair@$$CBV?$basic_string@DU?$char_traits@D@std@@V?$allocator@D@2@@std@@VEncodedAuthentication@cpr@@@std@@@2@$0A@@std@@@0@AEAV10@@Z
	??$addressof@V?$_Tree_val@U?$_Tree_simple_types@G@std@@@std@@@std@@YAPEAV?$_Tree_val@U?$_Tree_simple_types@G@std@@@0@AEAV10@@Z
	??$addressof@V?$_Tree_val@U?$_Tree_simple_types@U?$pair@$$CBV?$basic_string@DU?$char_traits@D@std@@V?$allocator@D@2@@std@@V12@@std@@@std@@@std@@@std@@YAPEAV?$_Tree_val@U?$_Tree_simple_types@U?$pair@$$CBV?$basic_string@DU?$char_traits@D@std@@V?$allocator@D@2@@std@@V12@@std@@@std@@@0@AEAV10@@Z
	??$addressof@V?$_Tree_val@U?$_Tree_simple_types@U?$pair@$$CBV?$basic_string@DU?$char_traits@D@std@@V?$allocator@D@2@@std@@VEncodedAuthentication@cpr@@@std@@@std@@@std@@@std@@YAPEAV?$_Tree_val@U?$_Tree_simple_types@U?$pair@$$CBV?$basic_string@DU?$char_traits@D@std@@V?$allocator@D@2@@std@@VEncodedAuthentication@cpr@@@std@@@std@@@0@AEAV10@@Z
	??$addressof@V?$_Tree_val@U?$_Tree_simple_types@U?$pair@$$CBW4AcceptEncodingMethods@cpr@@V?$basic_string@DU?$char_traits@D@std@@V?$allocator@D@2@@std@@@std@@@std@@@std@@@std@@YAPEAV?$_Tree_val@U?$_Tree_simple_types@U?$pair@$$CBW4AcceptEncodingMethods@cpr@@V?$basic_string@DU?$char_traits@D@std@@V?$allocator@D@2@@std@@@std@@@std@@@0@AEAV10@@Z
	??$addressof@V?$_Vector_val@U?$_Simple_types@U?$pair@V?$shared_ptr@VSession@cpr@@@std@@W4HttpMethod@MultiPerform@cpr@@@std@@@std@@@std@@@std@@YAPEAV?$_Vector_val@U?$_Simple_types@U?$pair@V?$shared_ptr@VSession@cpr@@@std@@W4HttpMethod@MultiPerform@cpr@@@std@@@std@@@0@AEAV10@@Z
	??$addressof@V?$_Vector_val@U?$_Simple_types@UFile@cpr@@@std@@@std@@@std@@YAPEAV?$_Vector_val@U?$_Simple_types@UFile@cpr@@@std@@@0@AEAV10@@Z
	??$addressof@V?$_Vector_val@U?$_Simple_types@V?$basic_string@DU?$char_traits@D@std@@V?$allocator@D@2@@std@@@std@@@std@@@std@@YAPEAV?$_Vector_val@U?$_Simple_types@V?$basic_string@DU?$char_traits@D@std@@V?$allocator@D@2@@std@@@std@@@0@AEAV10@@Z
	??$addressof@V?$_Vector_val@U?$_Simple_types@VCookie@cpr@@@std@@@std@@@std@@YAPEAV?$_Vector_val@U?$_Simple_types@VCookie@cpr@@@std@@@0@AEAV10@@Z
	??$addressof@V?$_Vector_val@U?$_Simple_types@VResponse@cpr@@@std@@@std@@@std@@YAPEAV?$_Vector_val@U?$_Simple_types@VResponse@cpr@@@std@@@0@AEAV10@@Z
	??$addressof@V?$basic_string@DU?$char_traits@D@std@@V?$allocator@D@2@@std@@@std@@YAPEAV?$basic_string@DU?$char_traits@D@std@@V?$allocator@D@2@@0@AEAV10@@Z
	??$addressof@V?$basic_stringbuf@DU?$char_traits@D@std@@V?$allocator@D@2@@std@@@std@@YAPEAV?$basic_stringbuf@DU?$char_traits@D@std@@V?$allocator@D@2@@0@AEAV10@@Z
	??$addressof@V?$function@$$A6AXXZ@std@@@std@@YAPEAV?$function@$$A6AXXZ@0@AEAV10@@Z
	??$addressof@V?$packaged_task@$$A6A?AVResponse@cpr@@XZ@std@@@std@@YAPEAV?$packaged_task@$$A6A?AVResponse@cpr@@XZ@0@AEAV10@@Z
	??$addressof@V?$reference_wrapper@VProgressCallback@cpr@@@std@@@std@@YAPEAV?$reference_wrapper@VProgressCallback@cpr@@@0@AEAV10@@Z
	??$addressof@V?$unordered_set@V?$basic_string@DU?$char_traits@D@std@@V?$allocator@D@2@@std@@U?$hash@V?$basic_string@DU?$char_traits@D@std@@V?$allocator@D@2@@std@@@2@U?$equal_to@V?$basic_string@DU?$char_traits@D@std@@V?$allocator@D@2@@std@@@2@V?$allocator@V?$basic_string@DU?$char_traits@D@std@@V?$allocator@D@2@@std@@@2@@std@@@std@@YAPEAV?$unordered_set@V?$basic_string@DU?$char_traits@D@std@@V?$allocator@D@2@@std@@U?$hash@V?$basic_string@DU?$char_traits@D@std@@V?$allocator@D@2@@std@@@2@U?$equal_to@V?$basic_string@DU?$char_traits@D@std@@V?$allocator@D@2@@std@@@2@V?$allocator@V?$basic_string@DU?$char_traits@D@std@@V?$allocator@D@2@@std@@@2@@0@AEAV10@@Z
	??$addressof@V?$vector@UFile@cpr@@V?$allocator@UFile@cpr@@@std@@@std@@@std@@YAPEAV?$vector@UFile@cpr@@V?$allocator@UFile@cpr@@@std@@@0@AEAV10@@Z
	??$addressof@V?$vector@UPair@cpr@@V?$allocator@UPair@cpr@@@std@@@std@@@std@@YAPEAV?$vector@UPair@cpr@@V?$allocator@UPair@cpr@@@std@@@0@AEAV10@@Z
	??$addressof@V?$vector@UParameter@cpr@@V?$allocator@UParameter@cpr@@@std@@@std@@@std@@YAPEAV?$vector@UParameter@cpr@@V?$allocator@UParameter@cpr@@@std@@@0@AEAV10@@Z
	??$addressof@V?$vector@VCookie@cpr@@V?$allocator@VCookie@cpr@@@std@@@std@@@std@@YAPEAV?$vector@VCookie@cpr@@V?$allocator@VCookie@cpr@@@std@@@0@AEAV10@@Z
	??$addressof@VProgressCallback@cpr@@@std@@YAPEAVProgressCallback@cpr@@AEAV12@@Z
	??$addressof@VResponse@cpr@@@std@@YAPEAVResponse@cpr@@AEAV12@@Z
	??$addressof@Vfuture_error@std@@@std@@YAPEAVfuture_error@0@AEAV10@@Z
	??$addressof@Vmutex@std@@@std@@YAPEAVmutex@0@AEAV10@@Z
	??$advance@V?$_List_const_iterator@V?$_List_val@U?$_List_simple_types@V?$basic_string@DU?$char_traits@D@std@@V?$allocator@D@2@@std@@@std@@@std@@@std@@_J@std@@YAXAEAV?$_List_const_iterator@V?$_List_val@U?$_List_simple_types@V?$basic_string@DU?$char_traits@D@std@@V?$allocator@D@2@@std@@@std@@@std@@@0@_J@Z
	??$back_inserter@V?$vector@UPair@cpr@@V?$allocator@UPair@cpr@@@std@@@std@@@std@@YA?AV?$back_insert_iterator@V?$vector@UPair@cpr@@V?$allocator@UPair@cpr@@@std@@@std@@@0@AEAV?$vector@UPair@cpr@@V?$allocator@UPair@cpr@@@std@@@0@@Z
	??$back_inserter@V?$vector@UParameter@cpr@@V?$allocator@UParameter@cpr@@@std@@@std@@@std@@YA?AV?$back_insert_iterator@V?$vector@UParameter@cpr@@V?$allocator@UParameter@cpr@@@std@@@std@@@0@AEAV?$vector@UParameter@cpr@@V?$allocator@UParameter@cpr@@@std@@@0@@Z
	??$construct@GAEAG@?$_Default_allocator_traits@V?$allocator@U?$_Tree_node@GPEAX@std@@@std@@@std@@SAXAEAV?$allocator@U?$_Tree_node@GPEAX@std@@@1@QEAGAEAG@Z
	??$construct@U?$pair@$$CBV?$basic_string@DU?$char_traits@D@std@@V?$allocator@D@2@@std@@V12@@std@@AEAU12@@?$_Default_allocator_traits@V?$allocator@U?$_Tree_node@U?$pair@$$CBV?$basic_string@DU?$char_traits@D@std@@V?$allocator@D@2@@std@@V12@@std@@PEAX@std@@@std@@@std@@SAXAEAV?$allocator@U?$_Tree_node@U?$pair@$$CBV?$basic_string@DU?$char_traits@D@std@@V?$allocator@D@2@@std@@V12@@std@@PEAX@std@@@1@QEAU?$pair@$$CBV?$basic_string@DU?$char_traits@D@std@@V?$allocator@D@2@@std@@V12@@1@AEAU31@@Z
	??$construct@U?$pair@$$CBV?$basic_string@DU?$char_traits@D@std@@V?$allocator@D@2@@std@@V12@@std@@AEBU12@@?$_Default_allocator_traits@V?$allocator@U?$_Tree_node@U?$pair@$$CBV?$basic_string@DU?$char_traits@D@std@@V?$allocator@D@2@@std@@V12@@std@@PEAX@std@@@std@@@std@@SAXAEAV?$allocator@U?$_Tree_node@U?$pair@$$CBV?$basic_string@DU?$char_traits@D@std@@V?$allocator@D@2@@std@@V12@@std@@PEAX@std@@@1@QEAU?$pair@$$CBV?$basic_string@DU?$char_traits@D@std@@V?$allocator@D@2@@std@@V12@@1@AEBU31@@Z
	??$construct@U?$pair@$$CBV?$basic_string@DU?$char_traits@D@std@@V?$allocator@D@2@@std@@V12@@std@@AEBUpiecewise_construct_t@2@V?$tuple@$$QEAV?$basic_string@DU?$char_traits@D@std@@V?$allocator@D@2@@std@@@2@V?$tuple@$$V@2@@?$_Default_allocator_traits@V?$allocator@U?$_Tree_node@U?$pair@$$CBV?$basic_string@DU?$char_traits@D@std@@V?$allocator@D@2@@std@@V12@@std@@PEAX@std@@@std@@@std@@SAXAEAV?$allocator@U?$_Tree_node@U?$pair@$$CBV?$basic_string@DU?$char_traits@D@std@@V?$allocator@D@2@@std@@V12@@std@@PEAX@std@@@1@QEAU?$pair@$$CBV?$basic_string@DU?$char_traits@D@std@@V?$allocator@D@2@@std@@V12@@1@AEBUpiecewise_construct_t@1@$$QEAV?$tuple@$$QEAV?$basic_string@DU?$char_traits@D@std@@V?$allocator@D@2@@std@@@1@$$QEAV?$tuple@$$V@1@@Z
	??$construct@U?$pair@$$CBV?$basic_string@DU?$char_traits@D@std@@V?$allocator@D@2@@std@@V12@@std@@AEBUpiecewise_construct_t@2@V?$tuple@AEBV?$basic_string@DU?$char_traits@D@std@@V?$allocator@D@2@@std@@@2@V?$tuple@$$V@2@@?$_Default_allocator_traits@V?$allocator@U?$_Tree_node@U?$pair@$$CBV?$basic_string@DU?$char_traits@D@std@@V?$allocator@D@2@@std@@V12@@std@@PEAX@std@@@std@@@std@@SAXAEAV?$allocator@U?$_Tree_node@U?$pair@$$CBV?$basic_string@DU?$char_traits@D@std@@V?$allocator@D@2@@std@@V12@@std@@PEAX@std@@@1@QEAU?$pair@$$CBV?$basic_string@DU?$char_traits@D@std@@V?$allocator@D@2@@std@@V12@@1@AEBUpiecewise_construct_t@1@$$QEAV?$tuple@AEBV?$basic_string@DU?$char_traits@D@std@@V?$allocator@D@2@@std@@@1@$$QEAV?$tuple@$$V@1@@Z
	??$construct@U?$pair@$$CBV?$basic_string@DU?$char_traits@D@std@@V?$allocator@D@2@@std@@VEncodedAuthentication@cpr@@@std@@AEAU12@@?$_Default_allocator_traits@V?$allocator@U?$_Tree_node@U?$pair@$$CBV?$basic_string@DU?$char_traits@D@std@@V?$allocator@D@2@@std@@VEncodedAuthentication@cpr@@@std@@PEAX@std@@@std@@@std@@SAXAEAV?$allocator@U?$_Tree_node@U?$pair@$$CBV?$basic_string@DU?$char_traits@D@std@@V?$allocator@D@2@@std@@VEncodedAuthentication@cpr@@@std@@PEAX@std@@@1@QEAU?$pair@$$CBV?$basic_string@DU?$char_traits@D@std@@V?$allocator@D@2@@std@@VEncodedAuthentication@cpr@@@1@AEAU31@@Z
	??$construct@U?$pair@$$CBV?$basic_string@DU?$char_traits@D@std@@V?$allocator@D@2@@std@@VEncodedAuthentication@cpr@@@std@@AEBUpiecewise_construct_t@2@V?$tuple@AEBV?$basic_string@DU?$char_traits@D@std@@V?$allocator@D@2@@std@@@2@V?$tuple@$$V@2@@?$_Default_allocator_traits@V?$allocator@U?$_Tree_node@U?$pair@$$CBV?$basic_string@DU?$char_traits@D@std@@V?$allocator@D@2@@std@@VEncodedAuthentication@cpr@@@std@@PEAX@std@@@std@@@std@@SAXAEAV?$allocator@U?$_Tree_node@U?$pair@$$CBV?$basic_string@DU?$char_traits@D@std@@V?$allocator@D@2@@std@@VEncodedAuthentication@cpr@@@std@@PEAX@std@@@1@QEAU?$pair@$$CBV?$basic_string@DU?$char_traits@D@std@@V?$allocator@D@2@@std@@VEncodedAuthentication@cpr@@@1@AEBUpiecewise_construct_t@1@$$QEAV?$tuple@AEBV?$basic_string@DU?$char_traits@D@std@@V?$allocator@D@2@@std@@@1@$$QEAV?$tuple@$$V@1@@Z
	??$construct@U?$pair@$$CBW4AcceptEncodingMethods@cpr@@V?$basic_string@DU?$char_traits@D@std@@V?$allocator@D@2@@std@@@std@@AEBU12@@?$_Default_allocator_traits@V?$allocator@U?$_Tree_node@U?$pair@$$CBW4AcceptEncodingMethods@cpr@@V?$basic_string@DU?$char_traits@D@std@@V?$allocator@D@2@@std@@@std@@PEAX@std@@@std@@@std@@SAXAEAV?$allocator@U?$_Tree_node@U?$pair@$$CBW4AcceptEncodingMethods@cpr@@V?$basic_string@DU?$char_traits@D@std@@V?$allocator@D@2@@std@@@std@@PEAX@std@@@1@QEAU?$pair@$$CBW4AcceptEncodingMethods@cpr@@V?$basic_string@DU?$char_traits@D@std@@V?$allocator@D@2@@std@@@1@AEBU31@@Z
	??$construct@U?$pair@V?$shared_ptr@VSession@cpr@@@std@@W4HttpMethod@MultiPerform@cpr@@@std@@AEAV?$shared_ptr@VSession@cpr@@@2@AEAW4HttpMethod@MultiPerform@cpr@@@?$_Default_allocator_traits@V?$allocator@U?$pair@V?$shared_ptr@VSession@cpr@@@std@@W4HttpMethod@MultiPerform@cpr@@@std@@@std@@@std@@SAXAEAV?$allocator@U?$pair@V?$shared_ptr@VSession@cpr@@@std@@W4HttpMethod@MultiPerform@cpr@@@std@@@1@QEAU?$pair@V?$shared_ptr@VSession@cpr@@@std@@W4HttpMethod@MultiPerform@cpr@@@1@AEAV?$shared_ptr@VSession@cpr@@@1@AEAW4HttpMethod@MultiPerform@cpr@@@Z
	??$construct@U?$pair@V?$shared_ptr@VSession@cpr@@@std@@W4HttpMethod@MultiPerform@cpr@@@std@@U12@@?$_Default_allocator_traits@V?$allocator@U?$pair@V?$shared_ptr@VSession@cpr@@@std@@W4HttpMethod@MultiPerform@cpr@@@std@@@std@@@std@@SAXAEAV?$allocator@U?$pair@V?$shared_ptr@VSession@cpr@@@std@@W4HttpMethod@MultiPerform@cpr@@@std@@@1@QEAU?$pair@V?$shared_ptr@VSession@cpr@@@std@@W4HttpMethod@MultiPerform@cpr@@@1@$$QEAU31@@Z
	??$construct@UFile@cpr@@AEAU12@@?$_Default_allocator_traits@V?$allocator@UFile@cpr@@@std@@@std@@SAXAEAV?$allocator@UFile@cpr@@@1@QEAUFile@cpr@@AEAU34@@Z
	??$construct@UFile@cpr@@AEBU12@@?$_Default_allocator_traits@V?$allocator@UFile@cpr@@@std@@@std@@SAXAEAV?$allocator@UFile@cpr@@@1@QEAUFile@cpr@@AEBU34@@Z
	??$construct@UFile@cpr@@AEBV?$basic_string@DU?$char_traits@D@std@@V?$allocator@D@2@@std@@@?$_Default_allocator_traits@V?$allocator@UFile@cpr@@@std@@@std@@SAXAEAV?$allocator@UFile@cpr@@@1@QEAUFile@cpr@@AEBV?$basic_string@DU?$char_traits@D@std@@V?$allocator@D@2@@1@@Z
	??$construct@UFile@cpr@@U12@@?$_Default_allocator_traits@V?$allocator@UFile@cpr@@@std@@@std@@SAXAEAV?$allocator@UFile@cpr@@@1@QEAUFile@cpr@@$$QEAU34@@Z
	??$construct@UPair@cpr@@AEBU12@@?$_Default_allocator_traits@V?$allocator@UPair@cpr@@@std@@@std@@SAXAEAV?$allocator@UPair@cpr@@@1@QEAUPair@cpr@@AEBU34@@Z
	??$construct@UPair@cpr@@U12@@?$_Default_allocator_traits@V?$allocator@UPair@cpr@@@std@@@std@@SAXAEAV?$allocator@UPair@cpr@@@1@QEAUPair@cpr@@$$QEAU34@@Z
	??$construct@UParameter@cpr@@AEAU12@@?$_Default_allocator_traits@V?$allocator@UParameter@cpr@@@std@@@std@@SAXAEAV?$allocator@UParameter@cpr@@@1@QEAUParameter@cpr@@AEAU34@@Z
	??$construct@UParameter@cpr@@AEBU12@@?$_Default_allocator_traits@V?$allocator@UParameter@cpr@@@std@@@std@@SAXAEAV?$allocator@UParameter@cpr@@@1@QEAUParameter@cpr@@AEBU34@@Z
	??$construct@UParameter@cpr@@U12@@?$_Default_allocator_traits@V?$allocator@UParameter@cpr@@@std@@@std@@SAXAEAV?$allocator@UParameter@cpr@@@1@QEAUParameter@cpr@@$$QEAU34@@Z
	??$construct@UPart@cpr@@AEBU12@@?$_Default_allocator_traits@V?$allocator@UPart@cpr@@@std@@@std@@SAXAEAV?$allocator@UPart@cpr@@@1@QEAUPart@cpr@@AEBU34@@Z
	??$construct@UThreadData@ThreadPool@cpr@@AEAU123@@?$_Default_allocator_traits@V?$allocator@U?$_List_node@UThreadData@ThreadPool@cpr@@PEAX@std@@@std@@@std@@SAXAEAV?$allocator@U?$_List_node@UThreadData@ThreadPool@cpr@@PEAX@std@@@1@QEAUThreadData@ThreadPool@cpr@@AEAU345@@Z
	??$construct@V?$basic_string@DU?$char_traits@D@std@@V?$allocator@D@2@@std@@AEAV12@@?$_Default_allocator_traits@V?$allocator@V?$basic_string@DU?$char_traits@D@std@@V?$allocator@D@2@@std@@@std@@@std@@SAXAEAV?$allocator@V?$basic_string@DU?$char_traits@D@std@@V?$allocator@D@2@@std@@@1@QEAV?$basic_string@DU?$char_traits@D@std@@V?$allocator@D@2@@1@AEAV31@@Z
	??$construct@V?$basic_string@DU?$char_traits@D@std@@V?$allocator@D@2@@std@@AEAY00$$CBD@?$_Default_allocator_traits@V?$allocator@V?$basic_string@DU?$char_traits@D@std@@V?$allocator@D@2@@std@@@std@@@std@@SAXAEAV?$allocator@V?$basic_string@DU?$char_traits@D@std@@V?$allocator@D@2@@std@@@1@QEAV?$basic_string@DU?$char_traits@D@std@@V?$allocator@D@2@@1@AEAY00$$CBD@Z
	??$construct@V?$basic_string@DU?$char_traits@D@std@@V?$allocator@D@2@@std@@AEBV12@@?$_Default_allocator_traits@V?$allocator@U?$_List_node@V?$basic_string@DU?$char_traits@D@std@@V?$allocator@D@2@@std@@PEAX@std@@@std@@@std@@SAXAEAV?$allocator@U?$_List_node@V?$basic_string@DU?$char_traits@D@std@@V?$allocator@D@2@@std@@PEAX@std@@@1@QEAV?$basic_string@DU?$char_traits@D@std@@V?$allocator@D@2@@1@AEBV31@@Z
	??$construct@V?$basic_string@DU?$char_traits@D@std@@V?$allocator@D@2@@std@@AEBV12@@?$_Default_allocator_traits@V?$allocator@V?$basic_string@DU?$char_traits@D@std@@V?$allocator@D@2@@std@@@std@@@std@@SAXAEAV?$allocator@V?$basic_string@DU?$char_traits@D@std@@V?$allocator@D@2@@std@@@1@QEAV?$basic_string@DU?$char_traits@D@std@@V?$allocator@D@2@@1@AEBV31@@Z
	??$construct@V?$basic_string@DU?$char_traits@D@std@@V?$allocator@D@2@@std@@V12@@?$_Default_allocator_traits@V?$allocator@U?$_List_node@V?$basic_string@DU?$char_traits@D@std@@V?$allocator@D@2@@std@@PEAX@std@@@std@@@std@@SAXAEAV?$allocator@U?$_List_node@V?$basic_string@DU?$char_traits@D@std@@V?$allocator@D@2@@std@@PEAX@std@@@1@QEAV?$basic_string@DU?$char_traits@D@std@@V?$allocator@D@2@@1@$$QEAV31@@Z
	??$construct@V?$basic_string@DU?$char_traits@D@std@@V?$allocator@D@2@@std@@V12@@?$_Default_allocator_traits@V?$allocator@V?$basic_string@DU?$char_traits@D@std@@V?$allocator@D@2@@std@@@std@@@std@@SAXAEAV?$allocator@V?$basic_string@DU?$char_traits@D@std@@V?$allocator@D@2@@std@@@1@QEAV?$basic_string@DU?$char_traits@D@std@@V?$allocator@D@2@@1@$$QEAV31@@Z
	??$construct@V?$shared_ptr@VInterceptor@cpr@@@std@@AEBV12@@?$_Default_allocator_traits@V?$allocator@V?$shared_ptr@VInterceptor@cpr@@@std@@@std@@@std@@SAXAEAV?$allocator@V?$shared_ptr@VInterceptor@cpr@@@std@@@1@QEAV?$shared_ptr@VInterceptor@cpr@@@1@AEBV31@@Z
	??$construct@V?$shared_ptr@VInterceptorMulti@cpr@@@std@@AEBV12@@?$_Default_allocator_traits@V?$allocator@V?$shared_ptr@VInterceptorMulti@cpr@@@std@@@std@@@std@@SAXAEAV?$allocator@V?$shared_ptr@VInterceptorMulti@cpr@@@std@@@1@QEAV?$shared_ptr@VInterceptorMulti@cpr@@@1@AEBV31@@Z
	??$construct@VCertInfo@cpr@@AEAV12@@?$_Default_allocator_traits@V?$allocator@VCertInfo@cpr@@@std@@@std@@SAXAEAV?$allocator@VCertInfo@cpr@@@1@QEAVCertInfo@cpr@@AEAV34@@Z
	??$construct@VCertInfo@cpr@@V12@@?$_Default_allocator_traits@V?$allocator@VCertInfo@cpr@@@std@@@std@@SAXAEAV?$allocator@VCertInfo@cpr@@@1@QEAVCertInfo@cpr@@$$QEAV34@@Z
	??$construct@VCookie@cpr@@AEAV12@@?$_Default_allocator_traits@V?$allocator@VCookie@cpr@@@std@@@std@@SAXAEAV?$allocator@VCookie@cpr@@@1@QEAVCookie@cpr@@AEAV34@@Z
	??$construct@VCookie@cpr@@AEBV12@@?$_Default_allocator_traits@V?$allocator@VCookie@cpr@@@std@@@std@@SAXAEAV?$allocator@VCookie@cpr@@@1@QEAVCookie@cpr@@AEBV34@@Z
	??$construct@VCookie@cpr@@V12@@?$_Default_allocator_traits@V?$allocator@VCookie@cpr@@@std@@@std@@SAXAEAV?$allocator@VCookie@cpr@@@1@QEAVCookie@cpr@@$$QEAV34@@Z
	??$construct@VResolve@cpr@@AEBV12@@?$_Default_allocator_traits@V?$allocator@VResolve@cpr@@@std@@@std@@SAXAEAV?$allocator@VResolve@cpr@@@1@QEAVResolve@cpr@@AEBV34@@Z
	??$construct@VResponse@cpr@@AEBV12@@?$_Default_allocator_traits@V?$allocator@VResponse@cpr@@@std@@@std@@SAXAEAV?$allocator@VResponse@cpr@@@1@QEAVResponse@cpr@@AEBV34@@Z
	??$construct@VResponse@cpr@@V12@@?$_Default_allocator_traits@V?$allocator@VResponse@cpr@@@std@@@std@@SAXAEAV?$allocator@VResponse@cpr@@@1@QEAVResponse@cpr@@$$QEAV34@@Z
	??$destroy@G@?$_Default_allocator_traits@V?$allocator@U?$_Tree_node@GPEAX@std@@@std@@@std@@SAXAEAV?$allocator@U?$_Tree_node@GPEAX@std@@@1@QEAG@Z
	??$destroy@U?$pair@$$CBV?$basic_string@DU?$char_traits@D@std@@V?$allocator@D@2@@std@@V12@@std@@@?$_Default_allocator_traits@V?$allocator@U?$_Tree_node@U?$pair@$$CBV?$basic_string@DU?$char_traits@D@std@@V?$allocator@D@2@@std@@V12@@std@@PEAX@std@@@std@@@std@@SAXAEAV?$allocator@U?$_Tree_node@U?$pair@$$CBV?$basic_string@DU?$char_traits@D@std@@V?$allocator@D@2@@std@@V12@@std@@PEAX@std@@@1@QEAU?$pair@$$CBV?$basic_string@DU?$char_traits@D@std@@V?$allocator@D@2@@std@@V12@@1@@Z
	??$destroy@U?$pair@$$CBV?$basic_string@DU?$char_traits@D@std@@V?$allocator@D@2@@std@@VEncodedAuthentication@cpr@@@std@@@?$_Default_allocator_traits@V?$allocator@U?$_Tree_node@U?$pair@$$CBV?$basic_string@DU?$char_traits@D@std@@V?$allocator@D@2@@std@@VEncodedAuthentication@cpr@@@std@@PEAX@std@@@std@@@std@@SAXAEAV?$allocator@U?$_Tree_node@U?$pair@$$CBV?$basic_string@DU?$char_traits@D@std@@V?$allocator@D@2@@std@@VEncodedAuthentication@cpr@@@std@@PEAX@std@@@1@QEAU?$pair@$$CBV?$basic_string@DU?$char_traits@D@std@@V?$allocator@D@2@@std@@VEncodedAuthentication@cpr@@@1@@Z
	??$destroy@U?$pair@$$CBW4AcceptEncodingMethods@cpr@@V?$basic_string@DU?$char_traits@D@std@@V?$allocator@D@2@@std@@@std@@@?$_Default_allocator_traits@V?$allocator@U?$_Tree_node@U?$pair@$$CBW4AcceptEncodingMethods@cpr@@V?$basic_string@DU?$char_traits@D@std@@V?$allocator@D@2@@std@@@std@@PEAX@std@@@std@@@std@@SAXAEAV?$allocator@U?$_Tree_node@U?$pair@$$CBW4AcceptEncodingMethods@cpr@@V?$basic_string@DU?$char_traits@D@std@@V?$allocator@D@2@@std@@@std@@PEAX@std@@@1@QEAU?$pair@$$CBW4AcceptEncodingMethods@cpr@@V?$basic_string@DU?$char_traits@D@std@@V?$allocator@D@2@@std@@@1@@Z
	??$destroy@U?$pair@V?$shared_ptr@VSession@cpr@@@std@@W4HttpMethod@MultiPerform@cpr@@@std@@@?$_Default_allocator_traits@V?$allocator@U?$pair@V?$shared_ptr@VSession@cpr@@@std@@W4HttpMethod@MultiPerform@cpr@@@std@@@std@@@std@@SAXAEAV?$allocator@U?$pair@V?$shared_ptr@VSession@cpr@@@std@@W4HttpMethod@MultiPerform@cpr@@@std@@@1@QEAU?$pair@V?$shared_ptr@VSession@cpr@@@std@@W4HttpMethod@MultiPerform@cpr@@@1@@Z
	??$destroy@UFile@cpr@@@?$_Default_allocator_traits@V?$allocator@UFile@cpr@@@std@@@std@@SAXAEAV?$allocator@UFile@cpr@@@1@QEAUFile@cpr@@@Z
	??$destroy@UPair@cpr@@@?$_Default_allocator_traits@V?$allocator@UPair@cpr@@@std@@@std@@SAXAEAV?$allocator@UPair@cpr@@@1@QEAUPair@cpr@@@Z
	??$destroy@UParameter@cpr@@@?$_Default_allocator_traits@V?$allocator@UParameter@cpr@@@std@@@std@@SAXAEAV?$allocator@UParameter@cpr@@@1@QEAUParameter@cpr@@@Z
	??$destroy@UPart@cpr@@@?$_Default_allocator_traits@V?$allocator@UPart@cpr@@@std@@@std@@SAXAEAV?$allocator@UPart@cpr@@@1@QEAUPart@cpr@@@Z
	??$destroy@UThreadData@ThreadPool@cpr@@@?$_Default_allocator_traits@V?$allocator@U?$_List_node@UThreadData@ThreadPool@cpr@@PEAX@std@@@std@@@std@@SAXAEAV?$allocator@U?$_List_node@UThreadData@ThreadPool@cpr@@PEAX@std@@@1@QEAUThreadData@ThreadPool@cpr@@@Z
	??$destroy@V?$basic_string@DU?$char_traits@D@std@@V?$allocator@D@2@@std@@@?$_Default_allocator_traits@V?$allocator@U?$_List_node@V?$basic_string@DU?$char_traits@D@std@@V?$allocator@D@2@@std@@PEAX@std@@@std@@@std@@SAXAEAV?$allocator@U?$_List_node@V?$basic_string@DU?$char_traits@D@std@@V?$allocator@D@2@@std@@PEAX@std@@@1@QEAV?$basic_string@DU?$char_traits@D@std@@V?$allocator@D@2@@1@@Z
	??$destroy@V?$basic_string@DU?$char_traits@D@std@@V?$allocator@D@2@@std@@@?$_Default_allocator_traits@V?$allocator@V?$basic_string@DU?$char_traits@D@std@@V?$allocator@D@2@@std@@@std@@@std@@SAXAEAV?$allocator@V?$basic_string@DU?$char_traits@D@std@@V?$allocator@D@2@@std@@@1@QEAV?$basic_string@DU?$char_traits@D@std@@V?$allocator@D@2@@1@@Z
	??$destroy@V?$function@$$A6AXXZ@std@@@?$_Default_allocator_traits@V?$allocator@V?$function@$$A6AXXZ@std@@@std@@@std@@SAXAEAV?$allocator@V?$function@$$A6AXXZ@std@@@1@QEAV?$function@$$A6AXXZ@1@@Z
	??$destroy@V?$shared_ptr@VInterceptor@cpr@@@std@@@?$_Default_allocator_traits@V?$allocator@V?$shared_ptr@VInterceptor@cpr@@@std@@@std@@@std@@SAXAEAV?$allocator@V?$shared_ptr@VInterceptor@cpr@@@std@@@1@QEAV?$shared_ptr@VInterceptor@cpr@@@1@@Z
	??$destroy@V?$shared_ptr@VInterceptorMulti@cpr@@@std@@@?$_Default_allocator_traits@V?$allocator@V?$shared_ptr@VInterceptorMulti@cpr@@@std@@@std@@@std@@SAXAEAV?$allocator@V?$shared_ptr@VInterceptorMulti@cpr@@@std@@@1@QEAV?$shared_ptr@VInterceptorMulti@cpr@@@1@@Z
	??$destroy@VCertInfo@cpr@@@?$_Default_allocator_traits@V?$allocator@VCertInfo@cpr@@@std@@@std@@SAXAEAV?$allocator@VCertInfo@cpr@@@1@QEAVCertInfo@cpr@@@Z
	??$destroy@VCookie@cpr@@@?$_Default_allocator_traits@V?$allocator@VCookie@cpr@@@std@@@std@@SAXAEAV?$allocator@VCookie@cpr@@@1@QEAVCookie@cpr@@@Z
	??$destroy@VResolve@cpr@@@?$_Default_allocator_traits@V?$allocator@VResolve@cpr@@@std@@@std@@SAXAEAV?$allocator@VResolve@cpr@@@1@QEAVResolve@cpr@@@Z
	??$destroy@VResponse@cpr@@@?$_Default_allocator_traits@V?$allocator@VResponse@cpr@@@std@@@std@@SAXAEAV?$allocator@VResponse@cpr@@@1@QEAVResponse@cpr@@@Z
	??$duration_cast@V?$duration@NU?$ratio@$00$0DLJKMKAA@@std@@@chrono@std@@NU?$ratio@$00$00@3@$0A@@chrono@std@@YA?AV?$duration@NU?$ratio@$00$0DLJKMKAA@@std@@@01@AEBV?$duration@NU?$ratio@$00$00@std@@@01@@Z
	??$duration_cast@V?$duration@NU?$ratio@$00$0DLJKMKAA@@std@@@chrono@std@@_JU?$ratio@$00$0DLJKMKAA@@3@$0A@@chrono@std@@YA?AV?$duration@NU?$ratio@$00$0DLJKMKAA@@std@@@01@AEBV?$duration@_JU?$ratio@$00$0DLJKMKAA@@std@@@01@@Z
	??$duration_cast@V?$duration@_JU?$ratio@$00$00@std@@@chrono@std@@_JU?$ratio@$00$0DLJKMKAA@@3@$0A@@chrono@std@@YA?AV?$duration@_JU?$ratio@$00$00@std@@@01@AEBV?$duration@_JU?$ratio@$00$0DLJKMKAA@@std@@@01@@Z
	??$duration_cast@V?$duration@_JU?$ratio@$00$00@std@@@chrono@std@@_JU?$ratio@$00$0JIJGIA@@3@$0A@@chrono@std@@YA?AV?$duration@_JU?$ratio@$00$00@std@@@01@AEBV?$duration@_JU?$ratio@$00$0JIJGIA@@std@@@01@@Z
	??$duration_cast@V?$duration@_JU?$ratio@$00$0DLJKMKAA@@std@@@chrono@std@@_JU?$ratio@$00$00@3@$0A@@chrono@std@@YA?AV?$duration@_JU?$ratio@$00$0DLJKMKAA@@std@@@01@AEBV?$duration@_JU?$ratio@$00$00@std@@@01@@Z
	??$duration_cast@V?$duration@_JU?$ratio@$00$0DLJKMKAA@@std@@@chrono@std@@_JU?$ratio@$00$0DLJKMKAA@@3@$0A@@chrono@std@@YA?AV?$duration@_JU?$ratio@$00$0DLJKMKAA@@std@@@01@AEBV201@@Z
	??$duration_cast@V?$duration@_JU?$ratio@$00$0DLJKMKAA@@std@@@chrono@std@@_JU?$ratio@$00$0DOI@@3@$0A@@chrono@std@@YA?AV?$duration@_JU?$ratio@$00$0DLJKMKAA@@std@@@01@AEBV?$duration@_JU?$ratio@$00$0DOI@@std@@@01@@Z
	??$duration_cast@V?$duration@_JU?$ratio@$00$0DLJKMKAA@@std@@@chrono@std@@_JU?$ratio@$00$0JIJGIA@@3@$0A@@chrono@std@@YA?AV?$duration@_JU?$ratio@$00$0DLJKMKAA@@std@@@01@AEBV?$duration@_JU?$ratio@$00$0JIJGIA@@std@@@01@@Z
	??$duration_cast@V?$duration@_JU?$ratio@$00$0JIJGIA@@std@@@chrono@std@@_JU?$ratio@$00$00@3@$0A@@chrono@std@@YA?AV?$duration@_JU?$ratio@$00$0JIJGIA@@std@@@01@AEBV?$duration@_JU?$ratio@$00$00@std@@@01@@Z
	??$emplace@AEBV?$basic_string@DU?$char_traits@D@std@@V?$allocator@D@2@@std@@@?$_Hash@V?$_Uset_traits@V?$basic_string@DU?$char_traits@D@std@@V?$allocator@D@2@@std@@V?$_Uhash_compare@V?$basic_string@DU?$char_traits@D@std@@V?$allocator@D@2@@std@@U?$hash@V?$basic_string@DU?$char_traits@D@std@@V?$allocator@D@2@@std@@@2@U?$equal_to@V?$basic_string@DU?$char_traits@D@std@@V?$allocator@D@2@@std@@@2@@2@V?$allocator@V?$basic_string@DU?$char_traits@D@std@@V?$allocator@D@2@@std@@@2@$0A@@std@@@std@@QEAA?AU?$pair@V?$_List_const_iterator@V?$_List_val@U?$_List_simple_types@V?$basic_string@DU?$char_traits@D@std@@V?$allocator@D@2@@std@@@std@@@std@@@std@@_N@1@AEBV?$basic_string@DU?$char_traits@D@std@@V?$allocator@D@2@@1@@Z
	??$emplace@V?$reference_wrapper@VProgressCallback@cpr@@@std@@@?$optional@V?$reference_wrapper@VProgressCallback@cpr@@@std@@@std@@QEAAAEAV?$reference_wrapper@VProgressCallback@cpr@@@1@$$QEAV21@@Z
	??$emplace_back@AEAUThreadData@ThreadPool@cpr@@@?$list@UThreadData@ThreadPool@cpr@@V?$allocator@UThreadData@ThreadPool@cpr@@@std@@@std@@QEAA?A_TAEAUThreadData@ThreadPool@cpr@@@Z
	??$emplace_back@AEAV?$shared_ptr@VSession@cpr@@@std@@AEAW4HttpMethod@MultiPerform@cpr@@@?$vector@U?$pair@V?$shared_ptr@VSession@cpr@@@std@@W4HttpMethod@MultiPerform@cpr@@@std@@V?$allocator@U?$pair@V?$shared_ptr@VSession@cpr@@@std@@W4HttpMethod@MultiPerform@cpr@@@std@@@2@@std@@QEAA?A_TAEAV?$shared_ptr@VSession@cpr@@@1@AEAW4HttpMethod@MultiPerform@cpr@@@Z
	??$emplace_back@AEAVCertInfo@cpr@@@?$vector@VCertInfo@cpr@@V?$allocator@VCertInfo@cpr@@@std@@@std@@QEAA?A_TAEAVCertInfo@cpr@@@Z
	??$emplace_back@AEAY00$$CBD@?$vector@V?$basic_string@DU?$char_traits@D@std@@V?$allocator@D@2@@std@@V?$allocator@V?$basic_string@DU?$char_traits@D@std@@V?$allocator@D@2@@std@@@2@@std@@QEAA?A_TAEAY00$$CBD@Z
	??$emplace_back@AEBUFile@cpr@@@?$vector@UFile@cpr@@V?$allocator@UFile@cpr@@@std@@@std@@QEAA?A_TAEBUFile@cpr@@@Z
	??$emplace_back@AEBV?$basic_string@DU?$char_traits@D@std@@V?$allocator@D@2@@std@@@?$vector@UFile@cpr@@V?$allocator@UFile@cpr@@@std@@@std@@QEAA?A_TAEBV?$basic_string@DU?$char_traits@D@std@@V?$allocator@D@2@@1@@Z
	??$emplace_back@AEBV?$basic_string@DU?$char_traits@D@std@@V?$allocator@D@2@@std@@@?$vector@V?$basic_string@DU?$char_traits@D@std@@V?$allocator@D@2@@std@@V?$allocator@V?$basic_string@DU?$char_traits@D@std@@V?$allocator@D@2@@std@@@2@@std@@QEAA?A_TAEBV?$basic_string@DU?$char_traits@D@std@@V?$allocator@D@2@@1@@Z
	??$emplace_back@AEBVCookie@cpr@@@?$vector@VCookie@cpr@@V?$allocator@VCookie@cpr@@@std@@@std@@QEAA?A_TAEBVCookie@cpr@@@Z
	??$emplace_hint@V?$basic_string@DU?$char_traits@D@std@@V?$allocator@D@2@@std@@@?$_Hash@V?$_Uset_traits@V?$basic_string@DU?$char_traits@D@std@@V?$allocator@D@2@@std@@V?$_Uhash_compare@V?$basic_string@DU?$char_traits@D@std@@V?$allocator@D@2@@std@@U?$hash@V?$basic_string@DU?$char_traits@D@std@@V?$allocator@D@2@@std@@@2@U?$equal_to@V?$basic_string@DU?$char_traits@D@std@@V?$allocator@D@2@@std@@@2@@2@V?$allocator@V?$basic_string@DU?$char_traits@D@std@@V?$allocator@D@2@@std@@@2@$0A@@std@@@std@@QEAA?AV?$_List_const_iterator@V?$_List_val@U?$_List_simple_types@V?$basic_string@DU?$char_traits@D@std@@V?$allocator@D@2@@std@@@std@@@std@@@1@V21@$$QEAV?$basic_string@DU?$char_traits@D@std@@V?$allocator@D@2@@1@@Z
	??$end@D$0BF@@std@@YAPEADAEAY0BF@D@Z
	??$endl@DU?$char_traits@D@std@@@std@@YAAEAV?$basic_ostream@DU?$char_traits@D@std@@@0@AEAV10@@Z
	??$exchange@PEAU?$_List_node@V?$basic_string@DU?$char_traits@D@std@@V?$allocator@D@2@@std@@PEAX@std@@$$T@std@@YAPEAU?$_List_node@V?$basic_string@DU?$char_traits@D@std@@V?$allocator@D@2@@std@@PEAX@0@AEAPEAU10@$$QEA$$T@Z
	??$exchange@PEAU?$_List_node@V?$basic_string@DU?$char_traits@D@std@@V?$allocator@D@2@@std@@PEAX@std@@AEAPEAU12@@std@@YAPEAU?$_List_node@V?$basic_string@DU?$char_traits@D@std@@V?$allocator@D@2@@std@@PEAX@0@AEAPEAU10@0@Z
	??$exchange@PEAU?$_List_node@V?$basic_string@DU?$char_traits@D@std@@V?$allocator@D@2@@std@@PEAX@std@@PEAU12@@std@@YAPEAU?$_List_node@V?$basic_string@DU?$char_traits@D@std@@V?$allocator@D@2@@std@@PEAX@0@AEAPEAU10@$$QEAPEAU10@@Z
	??$exchange@PEAU?$_Tree_node@GPEAX@std@@$$T@std@@YAPEAU?$_Tree_node@GPEAX@0@AEAPEAU10@$$QEA$$T@Z
	??$exchange@PEAU?$_Tree_node@GPEAX@std@@AEAPEAU12@@std@@YAPEAU?$_Tree_node@GPEAX@0@AEAPEAU10@0@Z
	??$exchange@PEAU?$_Tree_node@U?$pair@$$CBV?$basic_string@DU?$char_traits@D@std@@V?$allocator@D@2@@std@@V12@@std@@PEAX@std@@$$T@std@@YAPEAU?$_Tree_node@U?$pair@$$CBV?$basic_string@DU?$char_traits@D@std@@V?$allocator@D@2@@std@@V12@@std@@PEAX@0@AEAPEAU10@$$QEA$$T@Z
	??$exchange@PEAU?$_Tree_node@U?$pair@$$CBV?$basic_string@DU?$char_traits@D@std@@V?$allocator@D@2@@std@@V12@@std@@PEAX@std@@AEAPEAU12@@std@@YAPEAU?$_Tree_node@U?$pair@$$CBV?$basic_string@DU?$char_traits@D@std@@V?$allocator@D@2@@std@@V12@@std@@PEAX@0@AEAPEAU10@0@Z
	??$exchange@PEAU?$_Tree_node@U?$pair@$$CBV?$basic_string@DU?$char_traits@D@std@@V?$allocator@D@2@@std@@VEncodedAuthentication@cpr@@@std@@PEAX@std@@$$T@std@@YAPEAU?$_Tree_node@U?$pair@$$CBV?$basic_string@DU?$char_traits@D@std@@V?$allocator@D@2@@std@@VEncodedAuthentication@cpr@@@std@@PEAX@0@AEAPEAU10@$$QEA$$T@Z
	??$exchange@PEAU?$_Tree_node@U?$pair@$$CBV?$basic_string@DU?$char_traits@D@std@@V?$allocator@D@2@@std@@VEncodedAuthentication@cpr@@@std@@PEAX@std@@AEAPEAU12@@std@@YAPEAU?$_Tree_node@U?$pair@$$CBV?$basic_string@DU?$char_traits@D@std@@V?$allocator@D@2@@std@@VEncodedAuthentication@cpr@@@std@@PEAX@0@AEAPEAU10@0@Z
	??$exchange@PEAU?$_Tree_node@U?$pair@$$CBW4AcceptEncodingMethods@cpr@@V?$basic_string@DU?$char_traits@D@std@@V?$allocator@D@2@@std@@@std@@PEAX@std@@$$T@std@@YAPEAU?$_Tree_node@U?$pair@$$CBW4AcceptEncodingMethods@cpr@@V?$basic_string@DU?$char_traits@D@std@@V?$allocator@D@2@@std@@@std@@PEAX@0@AEAPEAU10@$$QEA$$T@Z
	??$exchange@PEAU?$_Tree_node@U?$pair@$$CBW4AcceptEncodingMethods@cpr@@V?$basic_string@DU?$char_traits@D@std@@V?$allocator@D@2@@std@@@std@@PEAX@std@@AEAPEAU12@@std@@YAPEAU?$_Tree_node@U?$pair@$$CBW4AcceptEncodingMethods@cpr@@V?$basic_string@DU?$char_traits@D@std@@V?$allocator@D@2@@std@@@std@@PEAX@0@AEAPEAU10@0@Z
	??$exchange@PEAU_Container_proxy@std@@$$T@std@@YAPEAU_Container_proxy@0@AEAPEAU10@$$QEA$$T@Z
	??$exchange@PEAU_Iterator_base12@std@@$$T@std@@YAPEAU_Iterator_base12@0@AEAPEAU10@$$QEA$$T@Z
	??$exchange@PEAV?$_Associated_state@VResponse@cpr@@@std@@$$T@std@@YAPEAV?$_Associated_state@VResponse@cpr@@@0@AEAPEAV10@$$QEA$$T@Z
	??$exchange@PEAV?$basic_string@DU?$char_traits@D@std@@V?$allocator@D@2@@std@@$$T@std@@YAPEAV?$basic_string@DU?$char_traits@D@std@@V?$allocator@D@2@@0@AEAPEAV10@$$QEA$$T@Z
	??$exchange@PEAVCertInfo@cpr@@$$T@std@@YAPEAVCertInfo@cpr@@AEAPEAV12@$$QEA$$T@Z
	??$exchange@PEAVCookie@cpr@@$$T@std@@YAPEAVCookie@cpr@@AEAPEAV12@$$QEA$$T@Z
	??$exchange@PEAVResponse@cpr@@$$T@std@@YAPEAVResponse@cpr@@AEAPEAV12@$$QEA$$T@Z
	??$exchange@PEAV_Facet_base@std@@$$T@std@@YAPEAV_Facet_base@0@AEAPEAV10@$$QEA$$T@Z
	??$exchange@PEAX$$T@std@@YAPEAXAEAPEAX$$QEA$$T@Z
	??$fill@PEAV?$_List_unchecked_const_iterator@V?$_List_val@U?$_List_simple_types@V?$basic_string@DU?$char_traits@D@std@@V?$allocator@D@2@@std@@@std@@@std@@U_Iterator_base0@2@@std@@V12@@std@@YAXQEAV?$_List_unchecked_const_iterator@V?$_List_val@U?$_List_simple_types@V?$basic_string@DU?$char_traits@D@std@@V?$allocator@D@2@@std@@@std@@@std@@U_Iterator_base0@2@@0@0AEBV10@@Z
	??$find@X@?$_Hash@V?$_Uset_traits@V?$basic_string@DU?$char_traits@D@std@@V?$allocator@D@2@@std@@V?$_Uhash_compare@V?$basic_string@DU?$char_traits@D@std@@V?$allocator@D@2@@std@@U?$hash@V?$basic_string@DU?$char_traits@D@std@@V?$allocator@D@2@@std@@@2@U?$equal_to@V?$basic_string@DU?$char_traits@D@std@@V?$allocator@D@2@@std@@@2@@2@V?$allocator@V?$basic_string@DU?$char_traits@D@std@@V?$allocator@D@2@@std@@@2@$0A@@std@@@std@@QEBA?AV?$_List_const_iterator@V?$_List_val@U?$_List_simple_types@V?$basic_string@DU?$char_traits@D@std@@V?$allocator@D@2@@std@@@std@@@std@@@1@AEBV?$basic_string@DU?$char_traits@D@std@@V?$allocator@D@2@@1@@Z
	??$forward@AEAG@std@@YAAEAGAEAG@Z
	??$forward@AEAPEAD@std@@YAAEAPEADAEAPEAD@Z
	??$forward@AEAPEAU?$_List_node@UThreadData@ThreadPool@cpr@@PEAX@std@@@std@@YAAEAPEAU?$_List_node@UThreadData@ThreadPool@cpr@@PEAX@0@AEAPEAU10@@Z
	??$forward@AEAPEAU?$_List_node@V?$basic_string@DU?$char_traits@D@std@@V?$allocator@D@2@@std@@PEAX@std@@@std@@YAAEAPEAU?$_List_node@V?$basic_string@DU?$char_traits@D@std@@V?$allocator@D@2@@std@@PEAX@0@AEAPEAU10@@Z
	??$forward@AEAPEAU?$_Tree_node@GPEAX@std@@@std@@YAAEAPEAU?$_Tree_node@GPEAX@0@AEAPEAU10@@Z
	??$forward@AEAPEAU?$_Tree_node@U?$pair@$$CBV?$basic_string@DU?$char_traits@D@std@@V?$allocator@D@2@@std@@V12@@std@@PEAX@std@@@std@@YAAEAPEAU?$_Tree_node@U?$pair@$$CBV?$basic_string@DU?$char_traits@D@std@@V?$allocator@D@2@@std@@V12@@std@@PEAX@0@AEAPEAU10@@Z
	??$forward@AEAPEAU?$_Tree_node@U?$pair@$$CBV?$basic_string@DU?$char_traits@D@std@@V?$allocator@D@2@@std@@VEncodedAuthentication@cpr@@@std@@PEAX@std@@@std@@YAAEAPEAU?$_Tree_node@U?$pair@$$CBV?$basic_string@DU?$char_traits@D@std@@V?$allocator@D@2@@std@@VEncodedAuthentication@cpr@@@std@@PEAX@0@AEAPEAU10@@Z
	??$forward@AEAPEAU?$_Tree_node@U?$pair@$$CBW4AcceptEncodingMethods@cpr@@V?$basic_string@DU?$char_traits@D@std@@V?$allocator@D@2@@std@@@std@@PEAX@std@@@std@@YAAEAPEAU?$_Tree_node@U?$pair@$$CBW4AcceptEncodingMethods@cpr@@V?$basic_string@DU?$char_traits@D@std@@V?$allocator@D@2@@std@@@std@@PEAX@0@AEAPEAU10@@Z
	??$forward@AEAPEAU?$pair@V?$shared_ptr@VSession@cpr@@@std@@W4HttpMethod@MultiPerform@cpr@@@std@@@std@@YAAEAPEAU?$pair@V?$shared_ptr@VSession@cpr@@@std@@W4HttpMethod@MultiPerform@cpr@@@0@AEAPEAU10@@Z
	??$forward@AEAPEAV?$function@$$A6AXXZ@std@@@std@@YAAEAPEAV?$function@$$A6AXXZ@0@AEAPEAV10@@Z
	??$forward@AEAPEAV?$shared_ptr@VInterceptor@cpr@@@std@@@std@@YAAEAPEAV?$shared_ptr@VInterceptor@cpr@@@0@AEAPEAV10@@Z
	??$forward@AEAPEAV?$shared_ptr@VInterceptorMulti@cpr@@@std@@@std@@YAAEAPEAV?$shared_ptr@VInterceptorMulti@cpr@@@0@AEAPEAV10@@Z
	??$forward@AEAPEAVCurlMultiHolder@cpr@@@std@@YAAEAPEAVCurlMultiHolder@cpr@@AEAPEAV12@@Z
	??$forward@AEAPEAVResponse@cpr@@@std@@YAAEAPEAVResponse@cpr@@AEAPEAV12@@Z
	??$forward@AEAPEAV_Facet_base@std@@@std@@YAAEAPEAV_Facet_base@0@AEAPEAV10@@Z
	??$forward@AEAU?$pair@$$CBV?$basic_string@DU?$char_traits@D@std@@V?$allocator@D@2@@std@@V12@@std@@@std@@YAAEAU?$pair@$$CBV?$basic_string@DU?$char_traits@D@std@@V?$allocator@D@2@@std@@V12@@0@AEAU10@@Z
	??$forward@AEAU?$pair@$$CBV?$basic_string@DU?$char_traits@D@std@@V?$allocator@D@2@@std@@VEncodedAuthentication@cpr@@@std@@@std@@YAAEAU?$pair@$$CBV?$basic_string@DU?$char_traits@D@std@@V?$allocator@D@2@@std@@VEncodedAuthentication@cpr@@@0@AEAU10@@Z
	??$forward@AEAUFile@cpr@@@std@@YAAEAUFile@cpr@@AEAU12@@Z
	??$forward@AEAUParameter@cpr@@@std@@YAAEAUParameter@cpr@@AEAU12@@Z
	??$forward@AEAUThreadData@ThreadPool@cpr@@@std@@YAAEAUThreadData@ThreadPool@cpr@@AEAU123@@Z
	??$forward@AEAV?$allocator@D@std@@@std@@YAAEAV?$allocator@D@0@AEAV10@@Z
	??$forward@AEAV?$back_insert_iterator@V?$vector@UPair@cpr@@V?$allocator@UPair@cpr@@@std@@@std@@@std@@@std@@YAAEAV?$back_insert_iterator@V?$vector@UPair@cpr@@V?$allocator@UPair@cpr@@@std@@@std@@@0@AEAV10@@Z
	??$forward@AEAV?$back_insert_iterator@V?$vector@UParameter@cpr@@V?$allocator@UParameter@cpr@@@std@@@std@@@std@@@std@@YAAEAV?$back_insert_iterator@V?$vector@UParameter@cpr@@V?$allocator@UParameter@cpr@@@std@@@std@@@0@AEAV10@@Z
	??$forward@AEAV?$basic_string@DU?$char_traits@D@std@@V?$allocator@D@2@@std@@@std@@YAAEAV?$basic_string@DU?$char_traits@D@std@@V?$allocator@D@2@@0@AEAV10@@Z
	??$forward@AEAV?$insert_iterator@V?$unordered_set@V?$basic_string@DU?$char_traits@D@std@@V?$allocator@D@2@@std@@U?$hash@V?$basic_string@DU?$char_traits@D@std@@V?$allocator@D@2@@std@@@2@U?$equal_to@V?$basic_string@DU?$char_traits@D@std@@V?$allocator@D@2@@std@@@2@V?$allocator@V?$basic_string@DU?$char_traits@D@std@@V?$allocator@D@2@@std@@@2@@std@@@std@@@std@@YAAEAV?$insert_iterator@V?$unordered_set@V?$basic_string@DU?$char_traits@D@std@@V?$allocator@D@2@@std@@U?$hash@V?$basic_string@DU?$char_traits@D@std@@V?$allocator@D@2@@std@@@2@U?$equal_to@V?$basic_string@DU?$char_traits@D@std@@V?$allocator@D@2@@std@@@2@V?$allocator@V?$basic_string@DU?$char_traits@D@std@@V?$allocator@D@2@@std@@@2@@std@@@0@AEAV10@@Z
	??$forward@AEAV?$shared_ptr@VSession@cpr@@@std@@@std@@YAAEAV?$shared_ptr@VSession@cpr@@@0@AEAV10@@Z
	??$forward@AEAVCertInfo@cpr@@@std@@YAAEAVCertInfo@cpr@@AEAV12@@Z
	??$forward@AEAVCookie@cpr@@@std@@YAAEAVCookie@cpr@@AEAV12@@Z
	??$forward@AEAVSession@cpr@@@std@@YAAEAVSession@cpr@@AEAV12@@Z
	??$forward@AEAW4HttpMethod@MultiPerform@cpr@@@std@@YAAEAW4HttpMethod@MultiPerform@cpr@@AEAW4123@@Z
	??$forward@AEAY00$$CBD@std@@YAAEAY00$$CBDAEAY00$$CBD@Z
	??$forward@AEAY04$$CBD@std@@YAAEAY04$$CBDAEAY04$$CBD@Z
	??$forward@AEAY07$$CBD@std@@YAAEAY07$$CBDAEAY07$$CBD@Z
	??$forward@AEAY08$$CBD@std@@YAAEAY08$$CBDAEAY08$$CBD@Z
	??$forward@AEA_K@std@@YAAEA_KAEA_K@Z
	??$forward@AEBQEAD@std@@YAAEBQEADAEBQEAD@Z
	??$forward@AEBQEAU?$_List_node@UThreadData@ThreadPool@cpr@@PEAX@std@@@std@@YAAEBQEAU?$_List_node@UThreadData@ThreadPool@cpr@@PEAX@0@AEBQEAU10@@Z
	??$forward@AEBQEAU?$_List_node@V?$basic_string@DU?$char_traits@D@std@@V?$allocator@D@2@@std@@PEAX@std@@@std@@YAAEBQEAU?$_List_node@V?$basic_string@DU?$char_traits@D@std@@V?$allocator@D@2@@std@@PEAX@0@AEBQEAU10@@Z
	??$forward@AEBQEAU?$_Tree_node@GPEAX@std@@@std@@YAAEBQEAU?$_Tree_node@GPEAX@0@AEBQEAU10@@Z
	??$forward@AEBQEAU?$_Tree_node@U?$pair@$$CBV?$basic_string@DU?$char_traits@D@std@@V?$allocator@D@2@@std@@V12@@std@@PEAX@std@@@std@@YAAEBQEAU?$_Tree_node@U?$pair@$$CBV?$basic_string@DU?$char_traits@D@std@@V?$allocator@D@2@@std@@V12@@std@@PEAX@0@AEBQEAU10@@Z
	??$forward@AEBQEAU?$_Tree_node@U?$pair@$$CBV?$basic_string@DU?$char_traits@D@std@@V?$allocator@D@2@@std@@VEncodedAuthentication@cpr@@@std@@PEAX@std@@@std@@YAAEBQEAU?$_Tree_node@U?$pair@$$CBV?$basic_string@DU?$char_traits@D@std@@V?$allocator@D@2@@std@@VEncodedAuthentication@cpr@@@std@@PEAX@0@AEBQEAU10@@Z
	??$forward@AEBQEAU?$_Tree_node@U?$pair@$$CBW4AcceptEncodingMethods@cpr@@V?$basic_string@DU?$char_traits@D@std@@V?$allocator@D@2@@std@@@std@@PEAX@std@@@std@@YAAEBQEAU?$_Tree_node@U?$pair@$$CBW4AcceptEncodingMethods@cpr@@V?$basic_string@DU?$char_traits@D@std@@V?$allocator@D@2@@std@@@std@@PEAX@0@AEBQEAU10@@Z
	??$forward@AEBQEAUFile@cpr@@@std@@YAAEBQEAUFile@cpr@@AEBQEAU12@@Z
	??$forward@AEBQEAV?$basic_string@DU?$char_traits@D@std@@V?$allocator@D@2@@std@@@std@@YAAEBQEAV?$basic_string@DU?$char_traits@D@std@@V?$allocator@D@2@@0@AEBQEAV10@@Z
	??$forward@AEBQEAVCookie@cpr@@@std@@YAAEBQEAVCookie@cpr@@AEBQEAV12@@Z
	??$forward@AEBU?$less@V?$basic_string@DU?$char_traits@D@std@@V?$allocator@D@2@@std@@@std@@@std@@YAAEBU?$less@V?$basic_string@DU?$char_traits@D@std@@V?$allocator@D@2@@std@@@0@AEBU10@@Z
	??$forward@AEBU?$less@W4AcceptEncodingMethods@cpr@@@std@@@std@@YAAEBU?$less@W4AcceptEncodingMethods@cpr@@@0@AEBU10@@Z
	??$forward@AEBU?$pair@$$CBV?$basic_string@DU?$char_traits@D@std@@V?$allocator@D@2@@std@@V12@@std@@@std@@YAAEBU?$pair@$$CBV?$basic_string@DU?$char_traits@D@std@@V?$allocator@D@2@@std@@V12@@0@AEBU10@@Z
	??$forward@AEBU?$pair@$$CBW4AcceptEncodingMethods@cpr@@V?$basic_string@DU?$char_traits@D@std@@V?$allocator@D@2@@std@@@std@@@std@@YAAEBU?$pair@$$CBW4AcceptEncodingMethods@cpr@@V?$basic_string@DU?$char_traits@D@std@@V?$allocator@D@2@@std@@@0@AEBU10@@Z
	??$forward@AEBUCaseInsensitiveCompare@cpr@@@std@@YAAEBUCaseInsensitiveCompare@cpr@@AEBU12@@Z
	??$forward@AEBUFile@cpr@@@std@@YAAEBUFile@cpr@@AEBU12@@Z
	??$forward@AEBUPair@cpr@@@std@@YAAEBUPair@cpr@@AEBU12@@Z
	??$forward@AEBUParameter@cpr@@@std@@YAAEBUParameter@cpr@@AEBU12@@Z
	??$forward@AEBUPart@cpr@@@std@@YAAEBUPart@cpr@@AEBU12@@Z
	??$forward@AEBUpiecewise_construct_t@std@@@std@@YAAEBUpiecewise_construct_t@0@AEBU10@@Z
	??$forward@AEBV?$_List_unchecked_const_iterator@V?$_List_val@U?$_List_simple_types@V?$basic_string@DU?$char_traits@D@std@@V?$allocator@D@2@@std@@@std@@@std@@U_Iterator_base0@2@@std@@@std@@YAAEBV?$_List_unchecked_const_iterator@V?$_List_val@U?$_List_simple_types@V?$basic_string@DU?$char_traits@D@std@@V?$allocator@D@2@@std@@@std@@@std@@U_Iterator_base0@2@@0@AEBV10@@Z
	??$forward@AEBV?$allocator@D@std@@@std@@YAAEBV?$allocator@D@0@AEBV10@@Z
	??$forward@AEBV?$allocator@UPair@cpr@@@std@@@std@@YAAEBV?$allocator@UPair@cpr@@@0@AEBV10@@Z
	??$forward@AEBV?$allocator@UParameter@cpr@@@std@@@std@@YAAEBV?$allocator@UParameter@cpr@@@0@AEBV10@@Z
	??$forward@AEBV?$allocator@UPart@cpr@@@std@@@std@@YAAEBV?$allocator@UPart@cpr@@@0@AEBV10@@Z
	??$forward@AEBV?$allocator@V?$basic_string@DU?$char_traits@D@std@@V?$allocator@D@2@@std@@@std@@@std@@YAAEBV?$allocator@V?$basic_string@DU?$char_traits@D@std@@V?$allocator@D@2@@std@@@0@AEBV10@@Z
	??$forward@AEBV?$allocator@VResolve@cpr@@@std@@@std@@YAAEBV?$allocator@VResolve@cpr@@@0@AEBV10@@Z
	??$forward@AEBV?$basic_string@DU?$char_traits@D@std@@V?$allocator@D@2@@std@@@std@@YAAEBV?$basic_string@DU?$char_traits@D@std@@V?$allocator@D@2@@0@AEBV10@@Z
	??$forward@AEBV?$shared_ptr@VInterceptor@cpr@@@std@@@std@@YAAEBV?$shared_ptr@VInterceptor@cpr@@@0@AEBV10@@Z
	??$forward@AEBV?$shared_ptr@VInterceptorMulti@cpr@@@std@@@std@@YAAEBV?$shared_ptr@VInterceptorMulti@cpr@@@0@AEBV10@@Z
	??$forward@AEBVCookie@cpr@@@std@@YAAEBVCookie@cpr@@AEBV12@@Z
	??$forward@AEBVResolve@cpr@@@std@@YAAEBVResolve@cpr@@AEBV12@@Z
	??$forward@AEBVResponse@cpr@@@std@@YAAEBVResponse@cpr@@AEBV12@@Z
	??$forward@M@std@@YA$$QEAMAEAM@Z
	??$forward@PEAD@std@@YA$$QEAPEADAEAPEAD@Z
	??$forward@PEAPEAV?$function@$$A6AXXZ@std@@@std@@YA$$QEAPEAPEAV?$function@$$A6AXXZ@0@AEAPEAPEAV10@@Z
	??$forward@PEAPEAV?$shared_ptr@VInterceptor@cpr@@@std@@@std@@YA$$QEAPEAPEAV?$shared_ptr@VInterceptor@cpr@@@0@AEAPEAPEAV10@@Z
	??$forward@PEAPEAV?$shared_ptr@VInterceptorMulti@cpr@@@std@@@std@@YA$$QEAPEAPEAV?$shared_ptr@VInterceptorMulti@cpr@@@0@AEAPEAPEAV10@@Z
	??$forward@PEAU?$_List_node@V?$basic_string@DU?$char_traits@D@std@@V?$allocator@D@2@@std@@PEAX@std@@@std@@YA$$QEAPEAU?$_List_node@V?$basic_string@DU?$char_traits@D@std@@V?$allocator@D@2@@std@@PEAX@0@AEAPEAU10@@Z
	??$forward@PEAU?$_Tree_node@U?$pair@$$CBV?$basic_string@DU?$char_traits@D@std@@V?$allocator@D@2@@std@@V12@@std@@PEAX@std@@@std@@YA$$QEAPEAU?$_Tree_node@U?$pair@$$CBV?$basic_string@DU?$char_traits@D@std@@V?$allocator@D@2@@std@@V12@@std@@PEAX@0@AEAPEAU10@@Z
	??$forward@PEAU?$_Tree_node@U?$pair@$$CBV?$basic_string@DU?$char_traits@D@std@@V?$allocator@D@2@@std@@VEncodedAuthentication@cpr@@@std@@PEAX@std@@@std@@YA$$QEAPEAU?$_Tree_node@U?$pair@$$CBV?$basic_string@DU?$char_traits@D@std@@V?$allocator@D@2@@std@@VEncodedAuthentication@cpr@@@std@@PEAX@0@AEAPEAU10@@Z
	??$forward@PEAU_Container_base12@std@@@std@@YA$$QEAPEAU_Container_base12@0@AEAPEAU10@@Z
	??$forward@PEAV?$basic_string@DU?$char_traits@D@std@@V?$allocator@D@2@@std@@@std@@YA$$QEAPEAV?$basic_string@DU?$char_traits@D@std@@V?$allocator@D@2@@0@AEAPEAV10@@Z
	??$forward@PEAVCertInfo@cpr@@@std@@YA$$QEAPEAVCertInfo@cpr@@AEAPEAV12@@Z
	??$forward@PEAVCookie@cpr@@@std@@YA$$QEAPEAVCookie@cpr@@AEAPEAV12@@Z
	??$forward@PEAVResponse@cpr@@@std@@YA$$QEAPEAVResponse@cpr@@AEAPEAV12@@Z
	??$forward@PEBUPair@cpr@@@std@@YA$$QEAPEBUPair@cpr@@AEAPEBU12@@Z
	??$forward@PEBUParameter@cpr@@@std@@YA$$QEAPEBUParameter@cpr@@AEAPEBU12@@Z
	??$forward@PEBUPart@cpr@@@std@@YA$$QEAPEBUPart@cpr@@AEAPEBU12@@Z
	??$forward@PEBVResolve@cpr@@@std@@YA$$QEAPEBVResolve@cpr@@AEAPEBV12@@Z
	??$forward@U?$less@G@std@@@std@@YA$$QEAU?$less@G@0@AEAU10@@Z
	??$forward@U?$less@V?$basic_string@DU?$char_traits@D@std@@V?$allocator@D@2@@std@@@std@@@std@@YA$$QEAU?$less@V?$basic_string@DU?$char_traits@D@std@@V?$allocator@D@2@@std@@@0@AEAU10@@Z
	??$forward@U?$pair@V?$shared_ptr@VSession@cpr@@@std@@W4HttpMethod@MultiPerform@cpr@@@std@@@std@@YA$$QEAU?$pair@V?$shared_ptr@VSession@cpr@@@std@@W4HttpMethod@MultiPerform@cpr@@@0@AEAU10@@Z
	??$forward@UCaseInsensitiveCompare@cpr@@@std@@YA$$QEAUCaseInsensitiveCompare@cpr@@AEAU12@@Z
	??$forward@UFile@cpr@@@std@@YA$$QEAUFile@cpr@@AEAU12@@Z
	??$forward@UPair@cpr@@@std@@YA$$QEAUPair@cpr@@AEAU12@@Z
	??$forward@UParameter@cpr@@@std@@YA$$QEAUParameter@cpr@@AEAU12@@Z
	??$forward@U_One_then_variadic_args_t@std@@@std@@YA$$QEAU_One_then_variadic_args_t@0@AEAU10@@Z
	??$forward@U_Zero_then_variadic_args_t@std@@@std@@YA$$QEAU_Zero_then_variadic_args_t@0@AEAU10@@Z
	??$forward@V?$_List_iterator@V?$_List_val@U?$_List_simple_types@V?$basic_string@DU?$char_traits@D@std@@V?$allocator@D@2@@std@@@std@@@std@@@std@@@std@@YA$$QEAV?$_List_iterator@V?$_List_val@U?$_List_simple_types@V?$basic_string@DU?$char_traits@D@std@@V?$allocator@D@2@@std@@@std@@@std@@@0@AEAV10@@Z
	??$forward@V?$allocator@D@std@@@std@@YA$$QEAV?$allocator@D@0@AEAV10@@Z
	??$forward@V?$allocator@U?$_Tree_node@GPEAX@std@@@std@@@std@@YA$$QEAV?$allocator@U?$_Tree_node@GPEAX@std@@@0@AEAV10@@Z
	??$forward@V?$allocator@U?$_Tree_node@U?$pair@$$CBV?$basic_string@DU?$char_traits@D@std@@V?$allocator@D@2@@std@@V12@@std@@PEAX@std@@@std@@@std@@YA$$QEAV?$allocator@U?$_Tree_node@U?$pair@$$CBV?$basic_string@DU?$char_traits@D@std@@V?$allocator@D@2@@std@@V12@@std@@PEAX@std@@@0@AEAV10@@Z
	??$forward@V?$allocator@UFile@cpr@@@std@@@std@@YA$$QEAV?$allocator@UFile@cpr@@@0@AEAV10@@Z
	??$forward@V?$allocator@V?$basic_string@DU?$char_traits@D@std@@V?$allocator@D@2@@std@@@std@@@std@@YA$$QEAV?$allocator@V?$basic_string@DU?$char_traits@D@std@@V?$allocator@D@2@@std@@@0@AEAV10@@Z
	??$forward@V?$allocator@VCertInfo@cpr@@@std@@@std@@YA$$QEAV?$allocator@VCertInfo@cpr@@@0@AEAV10@@Z
	??$forward@V?$allocator@VCookie@cpr@@@std@@@std@@YA$$QEAV?$allocator@VCookie@cpr@@@0@AEAV10@@Z
	??$forward@V?$allocator@VResponse@cpr@@@std@@@std@@YA$$QEAV?$allocator@VResponse@cpr@@@0@AEAV10@@Z
	??$forward@V?$basic_string@DU?$char_traits@D@std@@V?$allocator@D@2@@std@@@std@@YA$$QEAV?$basic_string@DU?$char_traits@D@std@@V?$allocator@D@2@@0@AEAV10@@Z
	??$forward@V?$reference_wrapper@VProgressCallback@cpr@@@std@@@std@@YA$$QEAV?$reference_wrapper@VProgressCallback@cpr@@@0@AEAV10@@Z
	??$forward@V?$shared_ptr@VSession@cpr@@@std@@@std@@YA$$QEAV?$shared_ptr@VSession@cpr@@@0@AEAV10@@Z
	??$forward@V?$tuple@$$QEAV?$basic_string@DU?$char_traits@D@std@@V?$allocator@D@2@@std@@@std@@@std@@YA$$QEAV?$tuple@$$QEAV?$basic_string@DU?$char_traits@D@std@@V?$allocator@D@2@@std@@@0@AEAV10@@Z
	??$forward@V?$tuple@$$V@std@@@std@@YA$$QEAV?$tuple@$$V@0@AEAV10@@Z
	??$forward@V?$tuple@AEBV?$basic_string@DU?$char_traits@D@std@@V?$allocator@D@2@@std@@@std@@@std@@YA$$QEAV?$tuple@AEBV?$basic_string@DU?$char_traits@D@std@@V?$allocator@D@2@@std@@@0@AEAV10@@Z
	??$forward@VCertInfo@cpr@@@std@@YA$$QEAVCertInfo@cpr@@AEAV12@@Z
	??$forward@VCookie@cpr@@@std@@YA$$QEAVCookie@cpr@@AEAV12@@Z
	??$forward@VResponse@cpr@@@std@@YA$$QEAVResponse@cpr@@AEAV12@@Z
	??$forward@W4AcceptEncodingMethods@cpr@@@std@@YA$$QEAW4AcceptEncodingMethods@cpr@@AEAW412@@Z
	??$forward@W4CURLcode@@@std@@YA$$QEAW4CURLcode@@AEAW41@@Z
	??$forward@W4HttpMethod@MultiPerform@cpr@@@std@@YA$$QEAW4HttpMethod@MultiPerform@cpr@@AEAW4123@@Z
	??$forward@W4InfoType@DebugCallback@cpr@@@std@@YA$$QEAW4InfoType@DebugCallback@cpr@@AEAW4123@@Z
	??$forward@_J@std@@YA$$QEA_JAEA_J@Z
	??$forward@_N@std@@YA$$QEA_NAEA_N@Z
	??$forward_as_tuple@$$V@std@@YA?AV?$tuple@$$V@0@XZ
	??$forward_as_tuple@AEBV?$basic_string@DU?$char_traits@D@std@@V?$allocator@D@2@@std@@@std@@YA?AV?$tuple@AEBV?$basic_string@DU?$char_traits@D@std@@V?$allocator@D@2@@std@@@0@AEBV?$basic_string@DU?$char_traits@D@std@@V?$allocator@D@2@@0@@Z
	??$forward_as_tuple@V?$basic_string@DU?$char_traits@D@std@@V?$allocator@D@2@@std@@@std@@YA?AV?$tuple@$$QEAV?$basic_string@DU?$char_traits@D@std@@V?$allocator@D@2@@std@@@0@$$QEAV?$basic_string@DU?$char_traits@D@std@@V?$allocator@D@2@@0@@Z
	??$getline@DU?$char_traits@D@std@@V?$allocator@D@2@@std@@YAAEAV?$basic_istream@DU?$char_traits@D@std@@@0@$$QEAV10@AEAV?$basic_string@DU?$char_traits@D@std@@V?$allocator@D@2@@0@D@Z
	??$getline@DU?$char_traits@D@std@@V?$allocator@D@2@@std@@YAAEAV?$basic_istream@DU?$char_traits@D@std@@@0@AEAV10@AEAV?$basic_string@DU?$char_traits@D@std@@V?$allocator@D@2@@0@D@Z
	??$inserter@V?$unordered_set@V?$basic_string@DU?$char_traits@D@std@@V?$allocator@D@2@@std@@U?$hash@V?$basic_string@DU?$char_traits@D@std@@V?$allocator@D@2@@std@@@2@U?$equal_to@V?$basic_string@DU?$char_traits@D@std@@V?$allocator@D@2@@std@@@2@V?$allocator@V?$basic_string@DU?$char_traits@D@std@@V?$allocator@D@2@@std@@@2@@std@@@std@@YA?AV?$insert_iterator@V?$unordered_set@V?$basic_string@DU?$char_traits@D@std@@V?$allocator@D@2@@std@@U?$hash@V?$basic_string@DU?$char_traits@D@std@@V?$allocator@D@2@@std@@@2@U?$equal_to@V?$basic_string@DU?$char_traits@D@std@@V?$allocator@D@2@@std@@@2@V?$allocator@V?$basic_string@DU?$char_traits@D@std@@V?$allocator@D@2@@std@@@2@@std@@@0@AEAV?$unordered_set@V?$basic_string@DU?$char_traits@D@std@@V?$allocator@D@2@@std@@U?$hash@V?$basic_string@DU?$char_traits@D@std@@V?$allocator@D@2@@std@@@2@U?$equal_to@V?$basic_string@DU?$char_traits@D@std@@V?$allocator@D@2@@std@@@2@V?$allocator@V?$basic_string@DU?$char_traits@D@std@@V?$allocator@D@2@@std@@@2@@0@V?$_List_const_iterator@V?$_List_val@U?$_List_simple_types@V?$basic_string@DU?$char_traits@D@std@@V?$allocator@D@2@@std@@@std@@@std@@@0@@Z
	??$invoke@AEAVProgressCallback@cpr@@AEA_JAEA_JAEA_JAEA_J@std@@YA_NAEAVProgressCallback@cpr@@AEA_J111@Z
	??$make_exception_ptr@Vfuture_error@std@@@std@@YA?AVexception_ptr@0@Vfuture_error@0@@Z
	??$max@PEAD@std@@YAAEBQEADAEBQEAD0@Z
	??$max@_K@std@@YAAEB_KAEB_K0@Z
	??$min@_K@std@@YAAEB_KAEB_K0@Z
	??$move@AEAPEAU?$_List_node@V?$basic_string@DU?$char_traits@D@std@@V?$allocator@D@2@@std@@PEAX@std@@@std@@YA$$QEAPEAU?$_List_node@V?$basic_string@DU?$char_traits@D@std@@V?$allocator@D@2@@std@@PEAX@0@AEAPEAU10@@Z
	??$move@AEAPEAU?$_Tree_node@U?$pair@$$CBV?$basic_string@DU?$char_traits@D@std@@V?$allocator@D@2@@std@@V12@@std@@PEAX@std@@@std@@YA$$QEAPEAU?$_Tree_node@U?$pair@$$CBV?$basic_string@DU?$char_traits@D@std@@V?$allocator@D@2@@std@@V12@@std@@PEAX@0@AEAPEAU10@@Z
	??$move@AEAPEAU?$_Tree_node@U?$pair@$$CBV?$basic_string@DU?$char_traits@D@std@@V?$allocator@D@2@@std@@VEncodedAuthentication@cpr@@@std@@PEAX@std@@@std@@YA$$QEAPEAU?$_Tree_node@U?$pair@$$CBV?$basic_string@DU?$char_traits@D@std@@V?$allocator@D@2@@std@@VEncodedAuthentication@cpr@@@std@@PEAX@0@AEAPEAU10@@Z
	??$move@AEAPEAU?$atomic@_N@std@@@std@@YA$$QEAPEAU?$atomic@_N@0@AEAPEAU10@@Z
	??$move@AEAPEAUCurlHolder@cpr@@@std@@YA$$QEAPEAUCurlHolder@cpr@@AEAPEAU12@@Z
	??$move@AEAPEAUFile@cpr@@@std@@YA$$QEAPEAUFile@cpr@@AEAPEAU12@@Z
	??$move@AEAPEAUParameter@cpr@@@std@@YA$$QEAPEAUParameter@cpr@@AEAPEAU12@@Z
	??$move@AEAPEAV?$_List_unchecked_const_iterator@V?$_List_val@U?$_List_simple_types@V?$basic_string@DU?$char_traits@D@std@@V?$allocator@D@2@@std@@@std@@@std@@U_Iterator_base0@2@@std@@@std@@YA$$QEAPEAV?$_List_unchecked_const_iterator@V?$_List_val@U?$_List_simple_types@V?$basic_string@DU?$char_traits@D@std@@V?$allocator@D@2@@std@@@std@@@std@@U_Iterator_base0@2@@0@AEAPEAV10@@Z
	??$move@AEAPEAV?$basic_string@DU?$char_traits@D@std@@V?$allocator@D@2@@std@@@std@@YA$$QEAPEAV?$basic_string@DU?$char_traits@D@std@@V?$allocator@D@2@@0@AEAPEAV10@@Z
	??$move@AEAPEAVCertInfo@cpr@@@std@@YA$$QEAPEAVCertInfo@cpr@@AEAPEAV12@@Z
	??$move@AEAPEAVCookie@cpr@@@std@@YA$$QEAPEAVCookie@cpr@@AEAPEAV12@@Z
	??$move@AEAPEAVSession@cpr@@@std@@YA$$QEAPEAVSession@cpr@@AEAPEAV12@@Z
	??$move@AEAPEAV_Ref_count_base@std@@@std@@YA$$QEAPEAV_Ref_count_base@0@AEAPEAV10@@Z
	??$move@AEAPEAVthread@std@@@std@@YA$$QEAPEAVthread@0@AEAPEAV10@@Z
	??$move@AEAPEBUPair@cpr@@@std@@YA$$QEAPEBUPair@cpr@@AEAPEBU12@@Z
	??$move@AEAPEBUParameter@cpr@@@std@@YA$$QEAPEBUParameter@cpr@@AEAPEBU12@@Z
	??$move@AEAPEBUPart@cpr@@@std@@YA$$QEAPEBUPart@cpr@@AEAPEBU12@@Z
	??$move@AEAPEBVResolve@cpr@@@std@@YA$$QEAPEBVResolve@cpr@@AEAPEBV12@@Z
	??$move@AEAU?$pair@V?$shared_ptr@VSession@cpr@@@std@@W4HttpMethod@MultiPerform@cpr@@@std@@@std@@YA$$QEAU?$pair@V?$shared_ptr@VSession@cpr@@@std@@W4HttpMethod@MultiPerform@cpr@@@0@AEAU10@@Z
	??$move@AEAUFile@cpr@@@std@@YA$$QEAUFile@cpr@@AEAU12@@Z
	??$move@AEAUPair@cpr@@@std@@YA$$QEAUPair@cpr@@AEAU12@@Z
	??$move@AEAUParameter@cpr@@@std@@YA$$QEAUParameter@cpr@@AEAU12@@Z
	??$move@AEAV?$_Func_class@XW4InfoType@DebugCallback@cpr@@V?$basic_string@DU?$char_traits@D@std@@V?$allocator@D@2@@std@@_J@std@@@std@@YA$$QEAV?$_Func_class@XW4InfoType@DebugCallback@cpr@@V?$basic_string@DU?$char_traits@D@std@@V?$allocator@D@2@@std@@_J@0@AEAV10@@Z
	??$move@AEAV?$_Func_class@_NPEADAEA_K_J@std@@@std@@YA$$QEAV?$_Func_class@_NPEADAEA_K_J@0@AEAV10@@Z
	??$move@AEAV?$_Func_class@_NV?$basic_string@DU?$char_traits@D@std@@V?$allocator@D@2@@std@@_J@std@@@std@@YA$$QEAV?$_Func_class@_NV?$basic_string@DU?$char_traits@D@std@@V?$allocator@D@2@@std@@_J@0@AEAV10@@Z
	??$move@AEAV?$_Func_class@_N_J_J_J_J_J@std@@@std@@YA$$QEAV?$_Func_class@_N_J_J_J_J_J@0@AEAV10@@Z
	??$move@AEAV?$_List_const_iterator@V?$_List_val@U?$_List_simple_types@V?$basic_string@DU?$char_traits@D@std@@V?$allocator@D@2@@std@@@std@@@std@@@std@@@std@@YA$$QEAV?$_List_const_iterator@V?$_List_val@U?$_List_simple_types@V?$basic_string@DU?$char_traits@D@std@@V?$allocator@D@2@@std@@@std@@@std@@@0@AEAV10@@Z
	??$move@AEAV?$allocator@D@std@@@std@@YA$$QEAV?$allocator@D@0@AEAV10@@Z
	??$move@AEAV?$allocator@U?$_List_node@V?$basic_string@DU?$char_traits@D@std@@V?$allocator@D@2@@std@@PEAX@std@@@std@@@std@@YA$$QEAV?$allocator@U?$_List_node@V?$basic_string@DU?$char_traits@D@std@@V?$allocator@D@2@@std@@PEAX@std@@@0@AEAV10@@Z
	??$move@AEAV?$allocator@U?$_Tree_node@U?$pair@$$CBV?$basic_string@DU?$char_traits@D@std@@V?$allocator@D@2@@std@@V12@@std@@PEAX@std@@@std@@@std@@YA$$QEAV?$allocator@U?$_Tree_node@U?$pair@$$CBV?$basic_string@DU?$char_traits@D@std@@V?$allocator@D@2@@std@@V12@@std@@PEAX@std@@@0@AEAV10@@Z
	??$move@AEAV?$allocator@U?$_Tree_node@U?$pair@$$CBV?$basic_string@DU?$char_traits@D@std@@V?$allocator@D@2@@std@@VEncodedAuthentication@cpr@@@std@@PEAX@std@@@std@@@std@@YA$$QEAV?$allocator@U?$_Tree_node@U?$pair@$$CBV?$basic_string@DU?$char_traits@D@std@@V?$allocator@D@2@@std@@VEncodedAuthentication@cpr@@@std@@PEAX@std@@@0@AEAV10@@Z
	??$move@AEAV?$allocator@UFile@cpr@@@std@@@std@@YA$$QEAV?$allocator@UFile@cpr@@@0@AEAV10@@Z
	??$move@AEAV?$allocator@UParameter@cpr@@@std@@@std@@YA$$QEAV?$allocator@UParameter@cpr@@@0@AEAV10@@Z
	??$move@AEAV?$allocator@V?$_List_unchecked_const_iterator@V?$_List_val@U?$_List_simple_types@V?$basic_string@DU?$char_traits@D@std@@V?$allocator@D@2@@std@@@std@@@std@@U_Iterator_base0@2@@std@@@std@@@std@@YA$$QEAV?$allocator@V?$_List_unchecked_const_iterator@V?$_List_val@U?$_List_simple_types@V?$basic_string@DU?$char_traits@D@std@@V?$allocator@D@2@@std@@@std@@@std@@U_Iterator_base0@2@@std@@@0@AEAV10@@Z
	??$move@AEAV?$allocator@V?$basic_string@DU?$char_traits@D@std@@V?$allocator@D@2@@std@@@std@@@std@@YA$$QEAV?$allocator@V?$basic_string@DU?$char_traits@D@std@@V?$allocator@D@2@@std@@@0@AEAV10@@Z
	??$move@AEAV?$allocator@VCertInfo@cpr@@@std@@@std@@YA$$QEAV?$allocator@VCertInfo@cpr@@@0@AEAV10@@Z
	??$move@AEAV?$allocator@VCookie@cpr@@@std@@@std@@YA$$QEAV?$allocator@VCookie@cpr@@@0@AEAV10@@Z
	??$move@AEAV?$allocator@VResponse@cpr@@@std@@@std@@YA$$QEAV?$allocator@VResponse@cpr@@@0@AEAV10@@Z
	??$move@AEAV?$basic_istream@DU?$char_traits@D@std@@@std@@@std@@YA$$QEAV?$basic_istream@DU?$char_traits@D@std@@@0@AEAV10@@Z
	??$move@AEAV?$basic_string@DU?$char_traits@D@std@@V?$allocator@D@2@@std@@@std@@YA$$QEAV?$basic_string@DU?$char_traits@D@std@@V?$allocator@D@2@@0@AEAV10@@Z
	??$move@AEAV?$function@$$A6AXXZ@std@@@std@@YA$$QEAV?$function@$$A6AXXZ@0@AEAV10@@Z
	??$move@AEAV?$future@VResponse@cpr@@@std@@@std@@YA$$QEAV?$future@VResponse@cpr@@@0@AEAV10@@Z
	??$move@AEAV?$map@V?$basic_string@DU?$char_traits@D@std@@V?$allocator@D@2@@std@@V12@U?$less@V?$basic_string@DU?$char_traits@D@std@@V?$allocator@D@2@@std@@@2@V?$allocator@U?$pair@$$CBV?$basic_string@DU?$char_traits@D@std@@V?$allocator@D@2@@std@@V12@@std@@@2@@std@@@std@@YA$$QEAV?$map@V?$basic_string@DU?$char_traits@D@std@@V?$allocator@D@2@@std@@V12@U?$less@V?$basic_string@DU?$char_traits@D@std@@V?$allocator@D@2@@std@@@2@V?$allocator@U?$pair@$$CBV?$basic_string@DU?$char_traits@D@std@@V?$allocator@D@2@@std@@V12@@std@@@2@@0@AEAV10@@Z
	??$move@AEAV?$map@V?$basic_string@DU?$char_traits@D@std@@V?$allocator@D@2@@std@@V12@UCaseInsensitiveCompare@cpr@@V?$allocator@U?$pair@$$CBV?$basic_string@DU?$char_traits@D@std@@V?$allocator@D@2@@std@@V12@@std@@@2@@std@@@std@@YA$$QEAV?$map@V?$basic_string@DU?$char_traits@D@std@@V?$allocator@D@2@@std@@V12@UCaseInsensitiveCompare@cpr@@V?$allocator@U?$pair@$$CBV?$basic_string@DU?$char_traits@D@std@@V?$allocator@D@2@@std@@V12@@std@@@2@@0@AEAV10@@Z
	??$move@AEAV?$map@V?$basic_string@DU?$char_traits@D@std@@V?$allocator@D@2@@std@@VEncodedAuthentication@cpr@@U?$less@V?$basic_string@DU?$char_traits@D@std@@V?$allocator@D@2@@std@@@2@V?$allocator@U?$pair@$$CBV?$basic_string@DU?$char_traits@D@std@@V?$allocator@D@2@@std@@VEncodedAuthentication@cpr@@@std@@@2@@std@@@std@@YA$$QEAV?$map@V?$basic_string@DU?$char_traits@D@std@@V?$allocator@D@2@@std@@VEncodedAuthentication@cpr@@U?$less@V?$basic_string@DU?$char_traits@D@std@@V?$allocator@D@2@@std@@@2@V?$allocator@U?$pair@$$CBV?$basic_string@DU?$char_traits@D@std@@V?$allocator@D@2@@std@@VEncodedAuthentication@cpr@@@std@@@2@@0@AEAV10@@Z
	??$move@AEAV?$shared_ptr@U?$atomic@_N@std@@@std@@@std@@YA$$QEAV?$shared_ptr@U?$atomic@_N@std@@@0@AEAV10@@Z
	??$move@AEAV?$shared_ptr@UCurlHolder@cpr@@@std@@@std@@YA$$QEAV?$shared_ptr@UCurlHolder@cpr@@@0@AEAV10@@Z
	??$move@AEAV?$shared_ptr@V?$packaged_task@$$A6A?AVResponse@cpr@@XZ@std@@@std@@@std@@YA$$QEAV?$shared_ptr@V?$packaged_task@$$A6A?AVResponse@cpr@@XZ@std@@@0@AEAV10@@Z
	??$move@AEAV?$shared_ptr@VSession@cpr@@@std@@@std@@YA$$QEAV?$shared_ptr@VSession@cpr@@@0@AEAV10@@Z
	??$move@AEAV?$shared_ptr@Vthread@std@@@std@@@std@@YA$$QEAV?$shared_ptr@Vthread@std@@@0@AEAV10@@Z
	??$move@AEAV?$tuple@$$QEAV?$basic_string@DU?$char_traits@D@std@@V?$allocator@D@2@@std@@@std@@@std@@YA$$QEAV?$tuple@$$QEAV?$basic_string@DU?$char_traits@D@std@@V?$allocator@D@2@@std@@@0@AEAV10@@Z
	??$move@AEAV?$tuple@AEBV?$basic_string@DU?$char_traits@D@std@@V?$allocator@D@2@@std@@@std@@@std@@YA$$QEAV?$tuple@AEBV?$basic_string@DU?$char_traits@D@std@@V?$allocator@D@2@@std@@@0@AEAV10@@Z
	??$move@AEAV?$unordered_set@V?$basic_string@DU?$char_traits@D@std@@V?$allocator@D@2@@std@@U?$hash@V?$basic_string@DU?$char_traits@D@std@@V?$allocator@D@2@@std@@@2@U?$equal_to@V?$basic_string@DU?$char_traits@D@std@@V?$allocator@D@2@@std@@@2@V?$allocator@V?$basic_string@DU?$char_traits@D@std@@V?$allocator@D@2@@std@@@2@@std@@@std@@YA$$QEAV?$unordered_set@V?$basic_string@DU?$char_traits@D@std@@V?$allocator@D@2@@std@@U?$hash@V?$basic_string@DU?$char_traits@D@std@@V?$allocator@D@2@@std@@@2@U?$equal_to@V?$basic_string@DU?$char_traits@D@std@@V?$allocator@D@2@@std@@@2@V?$allocator@V?$basic_string@DU?$char_traits@D@std@@V?$allocator@D@2@@std@@@2@@0@AEAV10@@Z
	??$move@AEAV?$vector@UFile@cpr@@V?$allocator@UFile@cpr@@@std@@@std@@@std@@YA$$QEAV?$vector@UFile@cpr@@V?$allocator@UFile@cpr@@@std@@@0@AEAV10@@Z
	??$move@AEAVAcceptEncoding@cpr@@@std@@YA$$QEAVAcceptEncoding@cpr@@AEAV12@@Z
	??$move@AEAVBody@cpr@@@std@@YA$$QEAVBody@cpr@@AEAV12@@Z
	??$move@AEAVCertInfo@cpr@@@std@@YA$$QEAVCertInfo@cpr@@AEAV12@@Z
	??$move@AEAVCookie@cpr@@@std@@YA$$QEAVCookie@cpr@@AEAV12@@Z
	??$move@AEAVCookies@cpr@@@std@@YA$$QEAVCookies@cpr@@AEAV12@@Z
	??$move@AEAVError@cpr@@@std@@YA$$QEAVError@cpr@@AEAV12@@Z
	??$move@AEAVMultipart@cpr@@@std@@YA$$QEAVMultipart@cpr@@AEAV12@@Z
	??$move@AEAVParameters@cpr@@@std@@YA$$QEAVParameters@cpr@@AEAV12@@Z
	??$move@AEAVPayload@cpr@@@std@@YA$$QEAVPayload@cpr@@AEAV12@@Z
	??$move@AEAVProxies@cpr@@@std@@YA$$QEAVProxies@cpr@@AEAV12@@Z
	??$move@AEAVProxyAuthentication@cpr@@@std@@YA$$QEAVProxyAuthentication@cpr@@AEAV12@@Z
	??$move@AEAVResponse@cpr@@@std@@YA$$QEAVResponse@cpr@@AEAV12@@Z
	??$move@AEA_K@std@@YA$$QEA_KAEA_K@Z
	??$move@AEBUPair@cpr@@@std@@YA$$QEBUPair@cpr@@AEBU12@@Z
	??$move@AEBUParameter@cpr@@@std@@YA$$QEBUParameter@cpr@@AEBU12@@Z
	??$next@V?$_List_const_iterator@V?$_List_val@U?$_List_simple_types@V?$basic_string@DU?$char_traits@D@std@@V?$allocator@D@2@@std@@@std@@@std@@@std@@@std@@YA?AV?$_List_const_iterator@V?$_List_val@U?$_List_simple_types@V?$basic_string@DU?$char_traits@D@std@@V?$allocator@D@2@@std@@@std@@@std@@@0@V10@_J@Z
	??$progressUserFunction@VCancellationCallback@cpr@@@util@cpr@@YAHPEBVCancellationCallback@1@_J111@Z
	??$progressUserFunction@VProgressCallback@cpr@@@util@cpr@@YAHPEBVProgressCallback@1@_J111@Z
	??$put_time@D@std@@YA?AU?$_Timeobj@DPEBUtm@@@0@PEBUtm@@PEBD@Z
	??$swap@PEAU?$_List_node@V?$basic_string@DU?$char_traits@D@std@@V?$allocator@D@2@@std@@PEAX@std@@$0A@@std@@YAXAEAPEAU?$_List_node@V?$basic_string@DU?$char_traits@D@std@@V?$allocator@D@2@@std@@PEAX@0@0@Z
	??$swap@PEAU?$_Tree_node@U?$pair@$$CBV?$basic_string@DU?$char_traits@D@std@@V?$allocator@D@2@@std@@V12@@std@@PEAX@std@@$0A@@std@@YAXAEAPEAU?$_Tree_node@U?$pair@$$CBV?$basic_string@DU?$char_traits@D@std@@V?$allocator@D@2@@std@@V12@@std@@PEAX@0@0@Z
	??$swap@PEAU?$_Tree_node@U?$pair@$$CBV?$basic_string@DU?$char_traits@D@std@@V?$allocator@D@2@@std@@VEncodedAuthentication@cpr@@@std@@PEAX@std@@$0A@@std@@YAXAEAPEAU?$_Tree_node@U?$pair@$$CBV?$basic_string@DU?$char_traits@D@std@@V?$allocator@D@2@@std@@VEncodedAuthentication@cpr@@@std@@PEAX@0@0@Z
	??$swap@PEAU?$atomic@_N@std@@$0A@@std@@YAXAEAPEAU?$atomic@_N@0@0@Z
	??$swap@PEAUCurlHolder@cpr@@$0A@@std@@YAXAEAPEAUCurlHolder@cpr@@0@Z
	??$swap@PEAV?$_List_unchecked_const_iterator@V?$_List_val@U?$_List_simple_types@V?$basic_string@DU?$char_traits@D@std@@V?$allocator@D@2@@std@@@std@@@std@@U_Iterator_base0@2@@std@@$0A@@std@@YAXAEAPEAV?$_List_unchecked_const_iterator@V?$_List_val@U?$_List_simple_types@V?$basic_string@DU?$char_traits@D@std@@V?$allocator@D@2@@std@@@std@@@std@@U_Iterator_base0@2@@0@0@Z
	??$swap@PEAVSession@cpr@@$0A@@std@@YAXAEAPEAVSession@cpr@@0@Z
	??$swap@PEAV_Ref_count_base@std@@$0A@@std@@YAXAEAPEAV_Ref_count_base@0@0@Z
	??$swap@PEAVthread@std@@$0A@@std@@YAXAEAPEAVthread@0@0@Z
	??$swap@_K$0A@@std@@YAXAEA_K0@Z
	??$transform@PEBUPair@cpr@@V?$back_insert_iterator@V?$vector@UPair@cpr@@V?$allocator@UPair@cpr@@@std@@@std@@@std@@V<lambda_4208477ec92b050ac68c36e087bc7382>@@@std@@YA?AV?$back_insert_iterator@V?$vector@UPair@cpr@@V?$allocator@UPair@cpr@@@std@@@std@@@0@QEBUPair@cpr@@0V10@V<lambda_4208477ec92b050ac68c36e087bc7382>@@@Z
	??$transform@PEBUParameter@cpr@@V?$back_insert_iterator@V?$vector@UParameter@cpr@@V?$allocator@UParameter@cpr@@@std@@@std@@@std@@V<lambda_8fe359263d7c8380db28e128f5237e27>@@@std@@YA?AV?$back_insert_iterator@V?$vector@UParameter@cpr@@V?$allocator@UParameter@cpr@@@std@@@std@@@0@QEBUParameter@cpr@@0V10@V<lambda_8fe359263d7c8380db28e128f5237e27>@@@Z
	??$uninitialized_copy@PEAPEAV?$function@$$A6AXXZ@std@@PEAPEAV12@@std@@YAPEAPEAV?$function@$$A6AXXZ@0@QEAPEAV10@0PEAPEAV10@@Z
	??$uninitialized_copy@PEAPEAV?$shared_ptr@VInterceptor@cpr@@@std@@PEAPEAV12@@std@@YAPEAPEAV?$shared_ptr@VInterceptor@cpr@@@0@QEAPEAV10@0PEAPEAV10@@Z
	??$uninitialized_copy@PEAPEAV?$shared_ptr@VInterceptorMulti@cpr@@@std@@PEAPEAV12@@std@@YAPEAPEAV?$shared_ptr@VInterceptorMulti@cpr@@@0@QEAPEAV10@0PEAPEAV10@@Z
	??$uninitialized_fill@PEAV?$_List_unchecked_const_iterator@V?$_List_val@U?$_List_simple_types@V?$basic_string@DU?$char_traits@D@std@@V?$allocator@D@2@@std@@@std@@@std@@U_Iterator_base0@2@@std@@V12@@std@@YAXQEAV?$_List_unchecked_const_iterator@V?$_List_val@U?$_List_simple_types@V?$basic_string@DU?$char_traits@D@std@@V?$allocator@D@2@@std@@@std@@@std@@U_Iterator_base0@2@@0@0AEBV10@@Z
	??$use_facet@V?$time_put@DV?$ostreambuf_iterator@DU?$char_traits@D@std@@@std@@@std@@@std@@YAAEBV?$time_put@DV?$ostreambuf_iterator@DU?$char_traits@D@std@@@std@@@0@AEBVlocale@0@@Z
	??0?$AsyncWrapper@VResponse@cpr@@$0A@@cpr@@QEAA@$$QEAV?$future@VResponse@cpr@@@std@@@Z
	??0?$CurlContainer@UPair@cpr@@@cpr@@QEAA@AEBV?$initializer_list@UPair@cpr@@@std@@@Z
	??0?$CurlContainer@UParameter@cpr@@@cpr@@QEAA@AEBV?$initializer_list@UParameter@cpr@@@std@@@Z
	??0?$CurlContainer@UParameter@cpr@@@cpr@@QEAA@XZ
	??0?$StringHolder@VUrl@cpr@@@cpr@@QEAA@$$QEAV01@@Z
	??0?$StringHolder@VUrl@cpr@@@cpr@@QEAA@AEBV01@@Z
	??0?$StringHolder@VUrl@cpr@@@cpr@@QEAA@PEBD@Z
	??0?$StringHolder@VUrl@cpr@@@cpr@@QEAA@V?$basic_string@DU?$char_traits@D@std@@V?$allocator@D@2@@std@@@Z
	??0?$StringHolder@VUrl@cpr@@@cpr@@QEAA@XZ
	??0?$_Alloc_construct_ptr@V?$allocator@U?$_List_node@UThreadData@ThreadPool@cpr@@PEAX@std@@@std@@@std@@QEAA@AEAV?$allocator@U?$_List_node@UThreadData@ThreadPool@cpr@@PEAX@std@@@1@@Z
	??0?$_Alloc_construct_ptr@V?$allocator@U?$_List_node@V?$basic_string@DU?$char_traits@D@std@@V?$allocator@D@2@@std@@PEAX@std@@@std@@@std@@QEAA@AEAV?$allocator@U?$_List_node@V?$basic_string@DU?$char_traits@D@std@@V?$allocator@D@2@@std@@PEAX@std@@@1@@Z
	??0?$_Alloc_construct_ptr@V?$allocator@U?$_Tree_node@GPEAX@std@@@std@@@std@@QEAA@AEAV?$allocator@U?$_Tree_node@GPEAX@std@@@1@@Z
	??0?$_Alloc_construct_ptr@V?$allocator@U?$_Tree_node@U?$pair@$$CBV?$basic_string@DU?$char_traits@D@std@@V?$allocator@D@2@@std@@V12@@std@@PEAX@std@@@std@@@std@@QEAA@AEAV?$allocator@U?$_Tree_node@U?$pair@$$CBV?$basic_string@DU?$char_traits@D@std@@V?$allocator@D@2@@std@@V12@@std@@PEAX@std@@@1@@Z
	??0?$_Alloc_construct_ptr@V?$allocator@U?$_Tree_node@U?$pair@$$CBV?$basic_string@DU?$char_traits@D@std@@V?$allocator@D@2@@std@@VEncodedAuthentication@cpr@@@std@@PEAX@std@@@std@@@std@@QEAA@AEAV?$allocator@U?$_Tree_node@U?$pair@$$CBV?$basic_string@DU?$char_traits@D@std@@V?$allocator@D@2@@std@@VEncodedAuthentication@cpr@@@std@@PEAX@std@@@1@@Z
	??0?$_Alloc_construct_ptr@V?$allocator@U?$_Tree_node@U?$pair@$$CBW4AcceptEncodingMethods@cpr@@V?$basic_string@DU?$char_traits@D@std@@V?$allocator@D@2@@std@@@std@@PEAX@std@@@std@@@std@@QEAA@AEAV?$allocator@U?$_Tree_node@U?$pair@$$CBW4AcceptEncodingMethods@cpr@@V?$basic_string@DU?$char_traits@D@std@@V?$allocator@D@2@@std@@@std@@PEAX@std@@@1@@Z
	??0?$_Associated_state@VResponse@cpr@@@std@@QEAA@PEAU?$_Deleter_base@VResponse@cpr@@@1@@Z
	??0?$_Atomic_integral@_K$07@std@@QEAA@_K@Z
	??0?$_Atomic_integral_facade@_K@std@@QEAA@_K@Z
	??0?$_Atomic_storage@W4Status@ThreadPool@cpr@@$03@std@@QEAA@W4Status@ThreadPool@cpr@@@Z
	??0?$_Atomic_storage@_K$07@std@@QEAA@_K@Z
	??0?$_Container_proxy_ptr12@V?$allocator@U_Container_proxy@std@@@std@@@std@@QEAA@AEAV?$allocator@U_Container_proxy@std@@@1@AEAU_Container_base12@1@@Z
	??0?$_Deque_unchecked_const_iterator@V?$_Deque_val@U?$_Deque_simple_types@V?$function@$$A6AXXZ@std@@@std@@@std@@@std@@QEAA@_KPEBU_Container_base12@1@@Z
	??0?$_Deque_unchecked_const_iterator@V?$_Deque_val@U?$_Deque_simple_types@V?$shared_ptr@VInterceptor@cpr@@@std@@@std@@@std@@@std@@QEAA@_KPEBU_Container_base12@1@@Z
	??0?$_Deque_unchecked_const_iterator@V?$_Deque_val@U?$_Deque_simple_types@V?$shared_ptr@VInterceptorMulti@cpr@@@std@@@std@@@std@@@std@@QEAA@_KPEBU_Container_base12@1@@Z
	??0?$_Deque_unchecked_iterator@V?$_Deque_val@U?$_Deque_simple_types@V?$function@$$A6AXXZ@std@@@std@@@std@@@std@@QEAA@_KPEBU_Container_base12@1@@Z
	??0?$_Deque_unchecked_iterator@V?$_Deque_val@U?$_Deque_simple_types@V?$shared_ptr@VInterceptor@cpr@@@std@@@std@@@std@@@std@@QEAA@_KPEBU_Container_base12@1@@Z
	??0?$_Deque_unchecked_iterator@V?$_Deque_val@U?$_Deque_simple_types@V?$shared_ptr@VInterceptorMulti@cpr@@@std@@@std@@@std@@@std@@QEAA@_KPEBU_Container_base12@1@@Z
	??0?$_Deque_val@U?$_Deque_simple_types@V?$function@$$A6AXXZ@std@@@std@@@std@@QEAA@XZ
	??0?$_Deque_val@U?$_Deque_simple_types@V?$shared_ptr@VInterceptor@cpr@@@std@@@std@@@std@@QEAA@XZ
	??0?$_Deque_val@U?$_Deque_simple_types@V?$shared_ptr@VInterceptorMulti@cpr@@@std@@@std@@@std@@QEAA@XZ
	??0?$_Func_base@VResponse@cpr@@$$V@std@@QEAA@XZ
	??0?$_Func_base@VResponse@cpr@@AEAVSession@2@W4CURLcode@@@std@@QEAA@XZ
	??0?$_Func_base@X$$V@std@@QEAA@XZ
	??0?$_Func_class@VResponse@cpr@@$$V@std@@QEAA@XZ
	??0?$_Func_class@VResponse@cpr@@AEAVSession@2@W4CURLcode@@@std@@QEAA@XZ
	??0?$_Func_class@X$$V@std@@QEAA@XZ
	??0?$_Func_class@XW4InfoType@DebugCallback@cpr@@V?$basic_string@DU?$char_traits@D@std@@V?$allocator@D@2@@std@@_J@std@@QEAA@XZ
	??0?$_Func_class@_NPEADAEA_K_J@std@@QEAA@XZ
	??0?$_Func_class@_NV?$basic_string@DU?$char_traits@D@std@@V?$allocator@D@2@@std@@_J@std@@QEAA@XZ
	??0?$_Func_class@_N_J_J_J_J_J@std@@QEAA@XZ
	??0?$_Hash@V?$_Uset_traits@V?$basic_string@DU?$char_traits@D@std@@V?$allocator@D@2@@std@@V?$_Uhash_compare@V?$basic_string@DU?$char_traits@D@std@@V?$allocator@D@2@@std@@U?$hash@V?$basic_string@DU?$char_traits@D@std@@V?$allocator@D@2@@std@@@2@U?$equal_to@V?$basic_string@DU?$char_traits@D@std@@V?$allocator@D@2@@std@@@2@@2@V?$allocator@V?$basic_string@DU?$char_traits@D@std@@V?$allocator@D@2@@std@@@2@$0A@@std@@@std@@IEAA@AEBV?$_Uhash_compare@V?$basic_string@DU?$char_traits@D@std@@V?$allocator@D@2@@std@@U?$hash@V?$basic_string@DU?$char_traits@D@std@@V?$allocator@D@2@@std@@@2@U?$equal_to@V?$basic_string@DU?$char_traits@D@std@@V?$allocator@D@2@@std@@@2@@1@AEBV?$allocator@V?$basic_string@DU?$char_traits@D@std@@V?$allocator@D@2@@std@@@1@@Z
	??0?$_List_const_iterator@V?$_List_val@U?$_List_simple_types@UThreadData@ThreadPool@cpr@@@std@@@std@@@std@@QEAA@AEBV01@@Z
	??0?$_List_const_iterator@V?$_List_val@U?$_List_simple_types@UThreadData@ThreadPool@cpr@@@std@@@std@@@std@@QEAA@PEAU?$_List_node@UThreadData@ThreadPool@cpr@@PEAX@1@PEBV?$_List_val@U?$_List_simple_types@UThreadData@ThreadPool@cpr@@@std@@@1@@Z
	??0?$_List_const_iterator@V?$_List_val@U?$_List_simple_types@V?$basic_string@DU?$char_traits@D@std@@V?$allocator@D@2@@std@@@std@@@std@@@std@@QEAA@$$QEAV01@@Z
	??0?$_List_const_iterator@V?$_List_val@U?$_List_simple_types@V?$basic_string@DU?$char_traits@D@std@@V?$allocator@D@2@@std@@@std@@@std@@@std@@QEAA@AEBV01@@Z
	??0?$_List_const_iterator@V?$_List_val@U?$_List_simple_types@V?$basic_string@DU?$char_traits@D@std@@V?$allocator@D@2@@std@@@std@@@std@@@std@@QEAA@PEAU?$_List_node@V?$basic_string@DU?$char_traits@D@std@@V?$allocator@D@2@@std@@PEAX@1@PEBV?$_List_val@U?$_List_simple_types@V?$basic_string@DU?$char_traits@D@std@@V?$allocator@D@2@@std@@@std@@@1@@Z
	??0?$_List_iterator@V?$_List_val@U?$_List_simple_types@UThreadData@ThreadPool@cpr@@@std@@@std@@@std@@QEAA@PEAU?$_List_node@UThreadData@ThreadPool@cpr@@PEAX@1@PEBV?$_List_val@U?$_List_simple_types@UThreadData@ThreadPool@cpr@@@std@@@1@@Z
	??0?$_List_iterator@V?$_List_val@U?$_List_simple_types@V?$basic_string@DU?$char_traits@D@std@@V?$allocator@D@2@@std@@@std@@@std@@@std@@QEAA@PEAU?$_List_node@V?$basic_string@DU?$char_traits@D@std@@V?$allocator@D@2@@std@@PEAX@1@PEBV?$_List_val@U?$_List_simple_types@V?$basic_string@DU?$char_traits@D@std@@V?$allocator@D@2@@std@@@std@@@1@@Z
	??0?$_List_node_insert_op2@V?$allocator@U?$_List_node@V?$basic_string@DU?$char_traits@D@std@@V?$allocator@D@2@@std@@PEAX@std@@@std@@@std@@QEAA@AEAV?$allocator@U?$_List_node@V?$basic_string@DU?$char_traits@D@std@@V?$allocator@D@2@@std@@PEAX@std@@@1@@Z
	??0?$_List_unchecked_const_iterator@V?$_List_val@U?$_List_simple_types@UThreadData@ThreadPool@cpr@@@std@@@std@@U_Iterator_base0@2@@std@@QEAA@PEAU?$_List_node@UThreadData@ThreadPool@cpr@@PEAX@1@PEBV?$_List_val@U?$_List_simple_types@UThreadData@ThreadPool@cpr@@@std@@@1@@Z
	??0?$_List_unchecked_const_iterator@V?$_List_val@U?$_List_simple_types@UThreadData@ThreadPool@cpr@@@std@@@std@@U_Iterator_base12@2@@std@@QEAA@AEBV01@@Z
	??0?$_List_unchecked_const_iterator@V?$_List_val@U?$_List_simple_types@UThreadData@ThreadPool@cpr@@@std@@@std@@U_Iterator_base12@2@@std@@QEAA@PEAU?$_List_node@UThreadData@ThreadPool@cpr@@PEAX@1@PEBV?$_List_val@U?$_List_simple_types@UThreadData@ThreadPool@cpr@@@std@@@1@@Z
	??0?$_List_unchecked_const_iterator@V?$_List_val@U?$_List_simple_types@V?$basic_string@DU?$char_traits@D@std@@V?$allocator@D@2@@std@@@std@@@std@@U_Iterator_base0@2@@std@@QEAA@PEAU?$_List_node@V?$basic_string@DU?$char_traits@D@std@@V?$allocator@D@2@@std@@PEAX@1@PEBV?$_List_val@U?$_List_simple_types@V?$basic_string@DU?$char_traits@D@std@@V?$allocator@D@2@@std@@@std@@@1@@Z
	??0?$_List_unchecked_const_iterator@V?$_List_val@U?$_List_simple_types@V?$basic_string@DU?$char_traits@D@std@@V?$allocator@D@2@@std@@@std@@@std@@U_Iterator_base12@2@@std@@QEAA@$$QEAV01@@Z
	??0?$_List_unchecked_const_iterator@V?$_List_val@U?$_List_simple_types@V?$basic_string@DU?$char_traits@D@std@@V?$allocator@D@2@@std@@@std@@@std@@U_Iterator_base12@2@@std@@QEAA@AEBV01@@Z
	??0?$_List_unchecked_const_iterator@V?$_List_val@U?$_List_simple_types@V?$basic_string@DU?$char_traits@D@std@@V?$allocator@D@2@@std@@@std@@@std@@U_Iterator_base12@2@@std@@QEAA@PEAU?$_List_node@V?$basic_string@DU?$char_traits@D@std@@V?$allocator@D@2@@std@@PEAX@1@PEBV?$_List_val@U?$_List_simple_types@V?$basic_string@DU?$char_traits@D@std@@V?$allocator@D@2@@std@@@std@@@1@@Z
	??0?$_List_unchecked_iterator@V?$_List_val@U?$_List_simple_types@UThreadData@ThreadPool@cpr@@@std@@@std@@@std@@QEAA@PEAU?$_List_node@UThreadData@ThreadPool@cpr@@PEAX@1@PEBV?$_List_val@U?$_List_simple_types@UThreadData@ThreadPool@cpr@@@std@@@1@@Z
	??0?$_List_unchecked_iterator@V?$_List_val@U?$_List_simple_types@V?$basic_string@DU?$char_traits@D@std@@V?$allocator@D@2@@std@@@std@@@std@@@std@@QEAA@PEAU?$_List_node@V?$basic_string@DU?$char_traits@D@std@@V?$allocator@D@2@@std@@PEAX@1@PEBV?$_List_val@U?$_List_simple_types@V?$basic_string@DU?$char_traits@D@std@@V?$allocator@D@2@@std@@@std@@@1@@Z
	??0?$_List_val@U?$_List_simple_types@UThreadData@ThreadPool@cpr@@@std@@@std@@QEAA@XZ
	??0?$_List_val@U?$_List_simple_types@V?$basic_string@DU?$char_traits@D@std@@V?$allocator@D@2@@std@@@std@@@std@@QEAA@XZ
	??0?$_Optional_construct_base@V?$reference_wrapper@VProgressCallback@cpr@@@std@@@std@@QEAA@XZ
	??0?$_Optional_destruct_base@V?$reference_wrapper@VProgressCallback@cpr@@@std@@$00@std@@QEAA@XZ
	??0?$_Promise@VResponse@cpr@@@std@@QEAA@PEAV?$_Associated_state@VResponse@cpr@@@1@@Z
	??0?$_Ptr_base@U?$atomic@_N@std@@@std@@IEAA@XZ
	??0?$_Ptr_base@UCurlHolder@cpr@@@std@@IEAA@XZ
	??0?$_Ptr_base@V?$packaged_task@$$A6A?AVResponse@cpr@@XZ@std@@@std@@IEAA@XZ
	??0?$_Ptr_base@VInterceptor@cpr@@@std@@IEAA@XZ
	??0?$_Ptr_base@VInterceptorMulti@cpr@@@std@@IEAA@XZ
	??0?$_Ptr_base@VSession@cpr@@@std@@IEAA@XZ
	??0?$_Ptr_base@Vthread@std@@@std@@IEAA@XZ
	??0?$_Ref_count@UCurlHolder@cpr@@@std@@QEAA@PEAUCurlHolder@cpr@@@Z
	??0?$_Ref_count@Vthread@std@@@std@@QEAA@PEAVthread@1@@Z
	??0?$_State_manager@VResponse@cpr@@@std@@QEAA@$$QEAV01@_N@Z
	??0?$_State_manager@VResponse@cpr@@@std@@QEAA@AEBV01@_N@Z
	??0?$_State_manager@VResponse@cpr@@@std@@QEAA@PEAV?$_Associated_state@VResponse@cpr@@@1@_N@Z
	??0?$_String_bitmap@D$00@std@@QEAA@XZ
	??0?$_String_const_iterator@V?$_String_val@U?$_Simple_types@D@std@@@std@@@std@@QEAA@$$QEAV01@@Z
	??0?$_String_const_iterator@V?$_String_val@U?$_Simple_types@D@std@@@std@@@std@@QEAA@PEBDPEBU_Container_base12@1@@Z
	??0?$_String_iterator@V?$_String_val@U?$_Simple_types@D@std@@@std@@@std@@QEAA@$$QEAV01@@Z
	??0?$_String_iterator@V?$_String_val@U?$_Simple_types@D@std@@@std@@@std@@QEAA@PEBDPEBU_Container_base12@1@@Z
	??0?$_String_val@U?$_Simple_types@D@std@@@std@@QEAA@XZ
	??0?$_Temporary_owner@UCurlHolder@cpr@@@std@@QEAA@QEAUCurlHolder@cpr@@@Z
	??0?$_Temporary_owner@Vthread@std@@@std@@QEAA@QEAVthread@1@@Z
	??0?$_Timeobj@DPEBUtm@@@std@@QEAA@PEBUtm@@PEBD@Z
	??0?$_Tree@V?$_Tmap_traits@V?$basic_string@DU?$char_traits@D@std@@V?$allocator@D@2@@std@@V12@U?$less@V?$basic_string@DU?$char_traits@D@std@@V?$allocator@D@2@@std@@@2@V?$allocator@U?$pair@$$CBV?$basic_string@DU?$char_traits@D@std@@V?$allocator@D@2@@std@@V12@@std@@@2@$0A@@std@@@std@@QEAA@AEBU?$less@V?$basic_string@DU?$char_traits@D@std@@V?$allocator@D@2@@std@@@1@@Z
	??0?$_Tree@V?$_Tmap_traits@V?$basic_string@DU?$char_traits@D@std@@V?$allocator@D@2@@std@@V12@UCaseInsensitiveCompare@cpr@@V?$allocator@U?$pair@$$CBV?$basic_string@DU?$char_traits@D@std@@V?$allocator@D@2@@std@@V12@@std@@@2@$0A@@std@@@std@@QEAA@$$QEAV01@@Z
	??0?$_Tree@V?$_Tmap_traits@V?$basic_string@DU?$char_traits@D@std@@V?$allocator@D@2@@std@@V12@UCaseInsensitiveCompare@cpr@@V?$allocator@U?$pair@$$CBV?$basic_string@DU?$char_traits@D@std@@V?$allocator@D@2@@std@@V12@@std@@@2@$0A@@std@@@std@@QEAA@AEBUCaseInsensitiveCompare@cpr@@@Z
	??0?$_Tree@V?$_Tmap_traits@V?$basic_string@DU?$char_traits@D@std@@V?$allocator@D@2@@std@@VEncodedAuthentication@cpr@@U?$less@V?$basic_string@DU?$char_traits@D@std@@V?$allocator@D@2@@std@@@2@V?$allocator@U?$pair@$$CBV?$basic_string@DU?$char_traits@D@std@@V?$allocator@D@2@@std@@VEncodedAuthentication@cpr@@@std@@@2@$0A@@std@@@std@@QEAA@AEBU?$less@V?$basic_string@DU?$char_traits@D@std@@V?$allocator@D@2@@std@@@1@@Z
	??0?$_Tree@V?$_Tmap_traits@W4AcceptEncodingMethods@cpr@@V?$basic_string@DU?$char_traits@D@std@@V?$allocator@D@2@@std@@U?$less@W4AcceptEncodingMethods@cpr@@@4@V?$allocator@U?$pair@$$CBW4AcceptEncodingMethods@cpr@@V?$basic_string@DU?$char_traits@D@std@@V?$allocator@D@2@@std@@@std@@@4@$0A@@std@@@std@@QEAA@AEBU?$less@W4AcceptEncodingMethods@cpr@@@1@@Z
	??0?$_Tree_const_iterator@V?$_Tree_val@U?$_Tree_simple_types@U?$pair@$$CBV?$basic_string@DU?$char_traits@D@std@@V?$allocator@D@2@@std@@V12@@std@@@std@@@std@@@std@@QEAA@PEAU?$_Tree_node@U?$pair@$$CBV?$basic_string@DU?$char_traits@D@std@@V?$allocator@D@2@@std@@V12@@std@@PEAX@1@PEBV?$_Tree_val@U?$_Tree_simple_types@U?$pair@$$CBV?$basic_string@DU?$char_traits@D@std@@V?$allocator@D@2@@std@@V12@@std@@@std@@@1@@Z
	??0?$_Tree_head_scoped_ptr@V?$allocator@U?$_Tree_node@GPEAX@std@@@std@@V?$_Tree_val@U?$_Tree_simple_types@G@std@@@2@@std@@QEAA@AEAV?$allocator@U?$_Tree_node@GPEAX@std@@@1@AEAV?$_Tree_val@U?$_Tree_simple_types@G@std@@@1@@Z
	??0?$_Tree_head_scoped_ptr@V?$allocator@U?$_Tree_node@U?$pair@$$CBV?$basic_string@DU?$char_traits@D@std@@V?$allocator@D@2@@std@@V12@@std@@PEAX@std@@@std@@V?$_Tree_val@U?$_Tree_simple_types@U?$pair@$$CBV?$basic_string@DU?$char_traits@D@std@@V?$allocator@D@2@@std@@V12@@std@@@std@@@2@@std@@QEAA@AEAV?$allocator@U?$_Tree_node@U?$pair@$$CBV?$basic_string@DU?$char_traits@D@std@@V?$allocator@D@2@@std@@V12@@std@@PEAX@std@@@1@AEAV?$_Tree_val@U?$_Tree_simple_types@U?$pair@$$CBV?$basic_string@DU?$char_traits@D@std@@V?$allocator@D@2@@std@@V12@@std@@@std@@@1@@Z
	??0?$_Tree_iterator@V?$_Tree_val@U?$_Tree_simple_types@U?$pair@$$CBV?$basic_string@DU?$char_traits@D@std@@V?$allocator@D@2@@std@@V12@@std@@@std@@@std@@@std@@QEAA@PEAU?$_Tree_node@U?$pair@$$CBV?$basic_string@DU?$char_traits@D@std@@V?$allocator@D@2@@std@@V12@@std@@PEAX@1@PEBV?$_Tree_val@U?$_Tree_simple_types@U?$pair@$$CBV?$basic_string@DU?$char_traits@D@std@@V?$allocator@D@2@@std@@V12@@std@@@std@@@1@@Z
	??0?$_Tree_temp_node_alloc@V?$allocator@U?$_Tree_node@U?$pair@$$CBV?$basic_string@DU?$char_traits@D@std@@V?$allocator@D@2@@std@@V12@@std@@PEAX@std@@@std@@@std@@QEAA@AEAV?$allocator@U?$_Tree_node@U?$pair@$$CBV?$basic_string@DU?$char_traits@D@std@@V?$allocator@D@2@@std@@V12@@std@@PEAX@std@@@1@@Z
	??0?$_Tree_temp_node_alloc@V?$allocator@U?$_Tree_node@U?$pair@$$CBV?$basic_string@DU?$char_traits@D@std@@V?$allocator@D@2@@std@@VEncodedAuthentication@cpr@@@std@@PEAX@std@@@std@@@std@@QEAA@AEAV?$allocator@U?$_Tree_node@U?$pair@$$CBV?$basic_string@DU?$char_traits@D@std@@V?$allocator@D@2@@std@@VEncodedAuthentication@cpr@@@std@@PEAX@std@@@1@@Z
	??0?$_Tree_temp_node_alloc@V?$allocator@U?$_Tree_node@U?$pair@$$CBW4AcceptEncodingMethods@cpr@@V?$basic_string@DU?$char_traits@D@std@@V?$allocator@D@2@@std@@@std@@PEAX@std@@@std@@@std@@QEAA@AEAV?$allocator@U?$_Tree_node@U?$pair@$$CBW4AcceptEncodingMethods@cpr@@V?$basic_string@DU?$char_traits@D@std@@V?$allocator@D@2@@std@@@std@@PEAX@std@@@1@@Z
	??0?$_Tree_unchecked_const_iterator@V?$_Tree_val@U?$_Tree_simple_types@G@std@@@std@@U_Iterator_base0@2@@std@@QEAA@PEAU?$_Tree_node@GPEAX@1@PEBV?$_Tree_val@U?$_Tree_simple_types@G@std@@@1@@Z
	??0?$_Tree_unchecked_const_iterator@V?$_Tree_val@U?$_Tree_simple_types@U?$pair@$$CBV?$basic_string@DU?$char_traits@D@std@@V?$allocator@D@2@@std@@V12@@std@@@std@@@std@@U_Iterator_base0@2@@std@@QEAA@PEAU?$_Tree_node@U?$pair@$$CBV?$basic_string@DU?$char_traits@D@std@@V?$allocator@D@2@@std@@V12@@std@@PEAX@1@PEBV?$_Tree_val@U?$_Tree_simple_types@U?$pair@$$CBV?$basic_string@DU?$char_traits@D@std@@V?$allocator@D@2@@std@@V12@@std@@@std@@@1@@Z
	??0?$_Tree_unchecked_const_iterator@V?$_Tree_val@U?$_Tree_simple_types@U?$pair@$$CBV?$basic_string@DU?$char_traits@D@std@@V?$allocator@D@2@@std@@V12@@std@@@std@@@std@@U_Iterator_base12@2@@std@@QEAA@PEAU?$_Tree_node@U?$pair@$$CBV?$basic_string@DU?$char_traits@D@std@@V?$allocator@D@2@@std@@V12@@std@@PEAX@1@PEBV?$_Tree_val@U?$_Tree_simple_types@U?$pair@$$CBV?$basic_string@DU?$char_traits@D@std@@V?$allocator@D@2@@std@@V12@@std@@@std@@@1@@Z
	??0?$_Tree_unchecked_const_iterator@V?$_Tree_val@U?$_Tree_simple_types@U?$pair@$$CBW4AcceptEncodingMethods@cpr@@V?$basic_string@DU?$char_traits@D@std@@V?$allocator@D@2@@std@@@std@@@std@@@std@@U_Iterator_base0@2@@std@@QEAA@PEAU?$_Tree_node@U?$pair@$$CBW4AcceptEncodingMethods@cpr@@V?$basic_string@DU?$char_traits@D@std@@V?$allocator@D@2@@std@@@std@@PEAX@1@PEBV?$_Tree_val@U?$_Tree_simple_types@U?$pair@$$CBW4AcceptEncodingMethods@cpr@@V?$basic_string@DU?$char_traits@D@std@@V?$allocator@D@2@@std@@@std@@@std@@@1@@Z
	??0?$_Tree_unchecked_iterator@V?$_Tree_val@U?$_Tree_simple_types@U?$pair@$$CBV?$basic_string@DU?$char_traits@D@std@@V?$allocator@D@2@@std@@V12@@std@@@std@@@std@@@std@@QEAA@PEAU?$_Tree_node@U?$pair@$$CBV?$basic_string@DU?$char_traits@D@std@@V?$allocator@D@2@@std@@V12@@std@@PEAX@1@PEBV?$_Tree_val@U?$_Tree_simple_types@U?$pair@$$CBV?$basic_string@DU?$char_traits@D@std@@V?$allocator@D@2@@std@@V12@@std@@@std@@@1@@Z
	??0?$_Tree_val@U?$_Tree_simple_types@G@std@@@std@@QEAA@XZ
	??0?$_Tree_val@U?$_Tree_simple_types@U?$pair@$$CBV?$basic_string@DU?$char_traits@D@std@@V?$allocator@D@2@@std@@V12@@std@@@std@@@std@@QEAA@XZ
	??0?$_Tree_val@U?$_Tree_simple_types@U?$pair@$$CBV?$basic_string@DU?$char_traits@D@std@@V?$allocator@D@2@@std@@VEncodedAuthentication@cpr@@@std@@@std@@@std@@QEAA@XZ
	??0?$_Tree_val@U?$_Tree_simple_types@U?$pair@$$CBW4AcceptEncodingMethods@cpr@@V?$basic_string@DU?$char_traits@D@std@@V?$allocator@D@2@@std@@@std@@@std@@@std@@QEAA@XZ
	??0?$_Uhash_compare@V?$basic_string@DU?$char_traits@D@std@@V?$allocator@D@2@@std@@U?$hash@V?$basic_string@DU?$char_traits@D@std@@V?$allocator@D@2@@std@@@2@U?$equal_to@V?$basic_string@DU?$char_traits@D@std@@V?$allocator@D@2@@std@@@2@@std@@QEAA@XZ
	??0?$_Uninitialized_backout@PEAPEAV?$function@$$A6AXXZ@std@@@std@@QEAA@PEAPEAV?$function@$$A6AXXZ@1@@Z
	??0?$_Uninitialized_backout@PEAPEAV?$shared_ptr@VInterceptor@cpr@@@std@@@std@@QEAA@PEAPEAV?$shared_ptr@VInterceptor@cpr@@@1@@Z
	??0?$_Uninitialized_backout@PEAPEAV?$shared_ptr@VInterceptorMulti@cpr@@@std@@@std@@QEAA@PEAPEAV?$shared_ptr@VInterceptorMulti@cpr@@@1@@Z
	??0?$_Uninitialized_backout@PEAV?$_List_unchecked_const_iterator@V?$_List_val@U?$_List_simple_types@V?$basic_string@DU?$char_traits@D@std@@V?$allocator@D@2@@std@@@std@@@std@@U_Iterator_base0@2@@std@@@std@@QEAA@PEAV?$_List_unchecked_const_iterator@V?$_List_val@U?$_List_simple_types@V?$basic_string@DU?$char_traits@D@std@@V?$allocator@D@2@@std@@@std@@@std@@U_Iterator_base0@2@@1@@Z
	??0?$_Uninitialized_backout_al@V?$allocator@U?$pair@V?$shared_ptr@VSession@cpr@@@std@@W4HttpMethod@MultiPerform@cpr@@@std@@@std@@@std@@QEAA@PEAU?$pair@V?$shared_ptr@VSession@cpr@@@std@@W4HttpMethod@MultiPerform@cpr@@@1@AEAV?$allocator@U?$pair@V?$shared_ptr@VSession@cpr@@@std@@W4HttpMethod@MultiPerform@cpr@@@std@@@1@@Z
	??0?$_Uninitialized_backout_al@V?$allocator@UFile@cpr@@@std@@@std@@QEAA@PEAUFile@cpr@@AEAV?$allocator@UFile@cpr@@@1@@Z
	??0?$_Uninitialized_backout_al@V?$allocator@UPair@cpr@@@std@@@std@@QEAA@PEAUPair@cpr@@AEAV?$allocator@UPair@cpr@@@1@@Z
	??0?$_Uninitialized_backout_al@V?$allocator@UParameter@cpr@@@std@@@std@@QEAA@PEAUParameter@cpr@@AEAV?$allocator@UParameter@cpr@@@1@@Z
	??0?$_Uninitialized_backout_al@V?$allocator@UPart@cpr@@@std@@@std@@QEAA@PEAUPart@cpr@@AEAV?$allocator@UPart@cpr@@@1@@Z
	??0?$_Uninitialized_backout_al@V?$allocator@V?$basic_string@DU?$char_traits@D@std@@V?$allocator@D@2@@std@@@std@@@std@@QEAA@PEAV?$basic_string@DU?$char_traits@D@std@@V?$allocator@D@2@@1@AEAV?$allocator@V?$basic_string@DU?$char_traits@D@std@@V?$allocator@D@2@@std@@@1@@Z
	??0?$_Uninitialized_backout_al@V?$allocator@VCertInfo@cpr@@@std@@@std@@QEAA@PEAVCertInfo@cpr@@AEAV?$allocator@VCertInfo@cpr@@@1@@Z
	??0?$_Uninitialized_backout_al@V?$allocator@VCookie@cpr@@@std@@@std@@QEAA@PEAVCookie@cpr@@AEAV?$allocator@VCookie@cpr@@@1@@Z
	??0?$_Uninitialized_backout_al@V?$allocator@VResolve@cpr@@@std@@@std@@QEAA@PEAVResolve@cpr@@AEAV?$allocator@VResolve@cpr@@@1@@Z
	??0?$_Uninitialized_backout_al@V?$allocator@VResponse@cpr@@@std@@@std@@QEAA@PEAVResponse@cpr@@AEAV?$allocator@VResponse@cpr@@@1@@Z
	??0?$_Uset_traits@V?$basic_string@DU?$char_traits@D@std@@V?$allocator@D@2@@std@@V?$_Uhash_compare@V?$basic_string@DU?$char_traits@D@std@@V?$allocator@D@2@@std@@U?$hash@V?$basic_string@DU?$char_traits@D@std@@V?$allocator@D@2@@std@@@2@U?$equal_to@V?$basic_string@DU?$char_traits@D@std@@V?$allocator@D@2@@std@@@2@@2@V?$allocator@V?$basic_string@DU?$char_traits@D@std@@V?$allocator@D@2@@std@@@2@$0A@@std@@QEAA@AEBV?$_Uhash_compare@V?$basic_string@DU?$char_traits@D@std@@V?$allocator@D@2@@std@@U?$hash@V?$basic_string@DU?$char_traits@D@std@@V?$allocator@D@2@@std@@@2@U?$equal_to@V?$basic_string@DU?$char_traits@D@std@@V?$allocator@D@2@@std@@@2@@1@@Z
	??0?$_Vector_const_iterator@V?$_Vector_val@U?$_Simple_types@U?$pair@V?$shared_ptr@VSession@cpr@@@std@@W4HttpMethod@MultiPerform@cpr@@@std@@@std@@@std@@@std@@QEAA@$$QEAV01@@Z
	??0?$_Vector_const_iterator@V?$_Vector_val@U?$_Simple_types@U?$pair@V?$shared_ptr@VSession@cpr@@@std@@W4HttpMethod@MultiPerform@cpr@@@std@@@std@@@std@@@std@@QEAA@AEBV01@@Z
	??0?$_Vector_const_iterator@V?$_Vector_val@U?$_Simple_types@U?$pair@V?$shared_ptr@VSession@cpr@@@std@@W4HttpMethod@MultiPerform@cpr@@@std@@@std@@@std@@@std@@QEAA@PEAU?$pair@V?$shared_ptr@VSession@cpr@@@std@@W4HttpMethod@MultiPerform@cpr@@@1@PEBU_Container_base12@1@@Z
	??0?$_Vector_const_iterator@V?$_Vector_val@U?$_Simple_types@UFile@cpr@@@std@@@std@@@std@@QEAA@PEAUFile@cpr@@PEBU_Container_base12@1@@Z
	??0?$_Vector_const_iterator@V?$_Vector_val@U?$_Simple_types@V?$basic_string@DU?$char_traits@D@std@@V?$allocator@D@2@@std@@@std@@@std@@@std@@QEAA@PEAV?$basic_string@DU?$char_traits@D@std@@V?$allocator@D@2@@1@PEBU_Container_base12@1@@Z
	??0?$_Vector_const_iterator@V?$_Vector_val@U?$_Simple_types@VCookie@cpr@@@std@@@std@@@std@@QEAA@PEAVCookie@cpr@@PEBU_Container_base12@1@@Z
	??0?$_Vector_const_iterator@V?$_Vector_val@U?$_Simple_types@VResponse@cpr@@@std@@@std@@@std@@QEAA@$$QEAV01@@Z
	??0?$_Vector_const_iterator@V?$_Vector_val@U?$_Simple_types@VResponse@cpr@@@std@@@std@@@std@@QEAA@AEBV01@@Z
	??0?$_Vector_const_iterator@V?$_Vector_val@U?$_Simple_types@VResponse@cpr@@@std@@@std@@@std@@QEAA@PEAVResponse@cpr@@PEBU_Container_base12@1@@Z
	??0?$_Vector_iterator@V?$_Vector_val@U?$_Simple_types@U?$pair@V?$shared_ptr@VSession@cpr@@@std@@W4HttpMethod@MultiPerform@cpr@@@std@@@std@@@std@@@std@@QEAA@$$QEAV01@@Z
	??0?$_Vector_iterator@V?$_Vector_val@U?$_Simple_types@U?$pair@V?$shared_ptr@VSession@cpr@@@std@@W4HttpMethod@MultiPerform@cpr@@@std@@@std@@@std@@@std@@QEAA@PEAU?$pair@V?$shared_ptr@VSession@cpr@@@std@@W4HttpMethod@MultiPerform@cpr@@@1@PEBU_Container_base12@1@@Z
	??0?$_Vector_iterator@V?$_Vector_val@U?$_Simple_types@UFile@cpr@@@std@@@std@@@std@@QEAA@PEAUFile@cpr@@PEBU_Container_base12@1@@Z
	??0?$_Vector_iterator@V?$_Vector_val@U?$_Simple_types@V?$basic_string@DU?$char_traits@D@std@@V?$allocator@D@2@@std@@@std@@@std@@@std@@QEAA@PEAV?$basic_string@DU?$char_traits@D@std@@V?$allocator@D@2@@1@PEBU_Container_base12@1@@Z
	??0?$_Vector_iterator@V?$_Vector_val@U?$_Simple_types@VCookie@cpr@@@std@@@std@@@std@@QEAA@PEAVCookie@cpr@@PEBU_Container_base12@1@@Z
	??0?$_Vector_iterator@V?$_Vector_val@U?$_Simple_types@VResponse@cpr@@@std@@@std@@@std@@QEAA@$$QEAV01@@Z
	??0?$_Vector_iterator@V?$_Vector_val@U?$_Simple_types@VResponse@cpr@@@std@@@std@@@std@@QEAA@PEAVResponse@cpr@@PEBU_Container_base12@1@@Z
	??0?$_Vector_val@U?$_Simple_types@U?$pair@V?$shared_ptr@VSession@cpr@@@std@@W4HttpMethod@MultiPerform@cpr@@@std@@@std@@@std@@QEAA@XZ
	??0?$_Vector_val@U?$_Simple_types@UFile@cpr@@@std@@@std@@QEAA@XZ
	??0?$_Vector_val@U?$_Simple_types@UPair@cpr@@@std@@@std@@QEAA@XZ
	??0?$_Vector_val@U?$_Simple_types@UParameter@cpr@@@std@@@std@@QEAA@XZ
	??0?$_Vector_val@U?$_Simple_types@UPart@cpr@@@std@@@std@@QEAA@XZ
	??0?$_Vector_val@U?$_Simple_types@V?$_List_unchecked_const_iterator@V?$_List_val@U?$_List_simple_types@V?$basic_string@DU?$char_traits@D@std@@V?$allocator@D@2@@std@@@std@@@std@@U_Iterator_base0@2@@std@@@std@@@std@@QEAA@XZ
	??0?$_Vector_val@U?$_Simple_types@V?$basic_string@DU?$char_traits@D@std@@V?$allocator@D@2@@std@@@std@@@std@@QEAA@PEAV?$basic_string@DU?$char_traits@D@std@@V?$allocator@D@2@@1@00@Z
	??0?$_Vector_val@U?$_Simple_types@V?$basic_string@DU?$char_traits@D@std@@V?$allocator@D@2@@std@@@std@@@std@@QEAA@XZ
	??0?$_Vector_val@U?$_Simple_types@VCertInfo@cpr@@@std@@@std@@QEAA@PEAVCertInfo@cpr@@00@Z
	??0?$_Vector_val@U?$_Simple_types@VCertInfo@cpr@@@std@@@std@@QEAA@XZ
	??0?$_Vector_val@U?$_Simple_types@VCookie@cpr@@@std@@@std@@QEAA@PEAVCookie@cpr@@00@Z
	??0?$_Vector_val@U?$_Simple_types@VCookie@cpr@@@std@@@std@@QEAA@XZ
	??0?$_Vector_val@U?$_Simple_types@VResolve@cpr@@@std@@@std@@QEAA@XZ
	??0?$_Vector_val@U?$_Simple_types@VResponse@cpr@@@std@@@std@@QEAA@PEAVResponse@cpr@@00@Z
	??0?$_Vector_val@U?$_Simple_types@VResponse@cpr@@@std@@@std@@QEAA@XZ
	??0?$allocator@D@std@@QEAA@XZ
	??0?$allocator@U?$_List_node@UThreadData@ThreadPool@cpr@@PEAX@std@@@std@@QEAA@XZ
	??0?$allocator@U?$_Tree_node@U?$pair@$$CBV?$basic_string@DU?$char_traits@D@std@@V?$allocator@D@2@@std@@V12@@std@@PEAX@std@@@std@@QEAA@XZ
	??0?$allocator@U?$_Tree_node@U?$pair@$$CBV?$basic_string@DU?$char_traits@D@std@@V?$allocator@D@2@@std@@VEncodedAuthentication@cpr@@@std@@PEAX@std@@@std@@QEAA@XZ
	??0?$allocator@U?$_Tree_node@U?$pair@$$CBW4AcceptEncodingMethods@cpr@@V?$basic_string@DU?$char_traits@D@std@@V?$allocator@D@2@@std@@@std@@PEAX@std@@@std@@QEAA@XZ
	??0?$allocator@U?$pair@V?$shared_ptr@VSession@cpr@@@std@@W4HttpMethod@MultiPerform@cpr@@@std@@@std@@QEAA@XZ
	??0?$allocator@UFile@cpr@@@std@@QEAA@XZ
	??0?$allocator@UPair@cpr@@@std@@QEAA@XZ
	??0?$allocator@UParameter@cpr@@@std@@QEAA@XZ
	??0?$allocator@UPart@cpr@@@std@@QEAA@XZ
	??0?$allocator@V?$basic_string@DU?$char_traits@D@std@@V?$allocator@D@2@@std@@@std@@QEAA@XZ
	??0?$allocator@V?$function@$$A6AXXZ@std@@@std@@QEAA@XZ
	??0?$allocator@V?$shared_ptr@VInterceptor@cpr@@@std@@@std@@QEAA@XZ
	??0?$allocator@V?$shared_ptr@VInterceptorMulti@cpr@@@std@@@std@@QEAA@XZ
	??0?$allocator@VCertInfo@cpr@@@std@@QEAA@XZ
	??0?$allocator@VCookie@cpr@@@std@@QEAA@XZ
	??0?$allocator@VResolve@cpr@@@std@@QEAA@XZ
	??0?$allocator@VResponse@cpr@@@std@@QEAA@XZ
	??0?$atomic@W4Status@ThreadPool@cpr@@@std@@QEAA@W4Status@ThreadPool@cpr@@@Z
	??0?$atomic@_K@std@@QEAA@_K@Z
	??0?$back_insert_iterator@V?$vector@UPair@cpr@@V?$allocator@UPair@cpr@@@std@@@std@@@std@@QEAA@AEAV?$vector@UPair@cpr@@V?$allocator@UPair@cpr@@@std@@@1@@Z
	??0?$back_insert_iterator@V?$vector@UParameter@cpr@@V?$allocator@UParameter@cpr@@@std@@@std@@@std@@QEAA@AEAV?$vector@UParameter@cpr@@V?$allocator@UParameter@cpr@@@std@@@1@@Z
	??0?$basic_istringstream@DU?$char_traits@D@std@@V?$allocator@D@2@@std@@QEAA@AEBV?$basic_string@DU?$char_traits@D@std@@V?$allocator@D@2@@1@H@Z
	??0?$basic_string@DU?$char_traits@D@std@@V?$allocator@D@2@@std@@QEAA@$$QEAV01@@Z
	??0?$basic_string@DU?$char_traits@D@std@@V?$allocator@D@2@@std@@QEAA@AEBV01@@Z
	??0?$basic_string@DU?$char_traits@D@std@@V?$allocator@D@2@@std@@QEAA@AEBV01@_K1AEBV?$allocator@D@1@@Z
	??0?$basic_string@DU?$char_traits@D@std@@V?$allocator@D@2@@std@@QEAA@AEBV?$allocator@D@1@@Z
	??0?$basic_string@DU?$char_traits@D@std@@V?$allocator@D@2@@std@@QEAA@QEBD@Z
	??0?$basic_string@DU?$char_traits@D@std@@V?$allocator@D@2@@std@@QEAA@QEBD_K@Z
	??0?$basic_string@DU?$char_traits@D@std@@V?$allocator@D@2@@std@@QEAA@U_String_constructor_concat_tag@1@AEAV01@1@Z
	??0?$basic_string@DU?$char_traits@D@std@@V?$allocator@D@2@@std@@QEAA@U_String_constructor_concat_tag@1@AEBV01@QEBD_K23@Z
	??0?$basic_string@DU?$char_traits@D@std@@V?$allocator@D@2@@std@@QEAA@XZ
	??0?$basic_stringbuf@DU?$char_traits@D@std@@V?$allocator@D@2@@std@@QEAA@AEBV?$basic_string@DU?$char_traits@D@std@@V?$allocator@D@2@@1@H@Z
	??0?$basic_stringbuf@DU?$char_traits@D@std@@V?$allocator@D@2@@std@@QEAA@H@Z
	??0?$basic_stringstream@DU?$char_traits@D@std@@V?$allocator@D@2@@std@@QEAA@AEBV?$basic_string@DU?$char_traits@D@std@@V?$allocator@D@2@@1@H@Z
	??0?$basic_stringstream@DU?$char_traits@D@std@@V?$allocator@D@2@@std@@QEAA@XZ
	??0?$deque@V?$function@$$A6AXXZ@std@@V?$allocator@V?$function@$$A6AXXZ@std@@@2@@std@@QEAA@XZ
	??0?$deque@V?$shared_ptr@VInterceptor@cpr@@@std@@V?$allocator@V?$shared_ptr@VInterceptor@cpr@@@std@@@2@@std@@QEAA@XZ
	??0?$deque@V?$shared_ptr@VInterceptorMulti@cpr@@@std@@V?$allocator@V?$shared_ptr@VInterceptorMulti@cpr@@@std@@@2@@std@@QEAA@XZ
	??0?$enable_shared_from_this@VSession@cpr@@@std@@IEAA@XZ
	??0?$fpos@U_Mbstatet@@@std@@QEAA@_J@Z
	??0?$function@$$A6AXW4InfoType@DebugCallback@cpr@@V?$basic_string@DU?$char_traits@D@std@@V?$allocator@D@2@@std@@_J@Z@std@@QEAA@AEBV01@@Z
	??0?$function@$$A6AXW4InfoType@DebugCallback@cpr@@V?$basic_string@DU?$char_traits@D@std@@V?$allocator@D@2@@std@@_J@Z@std@@QEAA@XZ
	??0?$function@$$A6AXXZ@std@@QEAA@XZ
	??0?$function@$$A6A_NPEADAEA_K_J@Z@std@@QEAA@AEBV01@@Z
	??0?$function@$$A6A_NPEADAEA_K_J@Z@std@@QEAA@XZ
	??0?$function@$$A6A_NV?$basic_string@DU?$char_traits@D@std@@V?$allocator@D@2@@std@@_J@Z@std@@QEAA@AEBV01@@Z
	??0?$function@$$A6A_NV?$basic_string@DU?$char_traits@D@std@@V?$allocator@D@2@@std@@_J@Z@std@@QEAA@XZ
	??0?$function@$$A6A_N_J0000@Z@std@@QEAA@AEBV01@@Z
	??0?$function@$$A6A_N_J0000@Z@std@@QEAA@XZ
	??0?$future@VResponse@cpr@@@std@@QEAA@$$QEAV01@@Z
	??0?$future@VResponse@cpr@@@std@@QEAA@U_From_raw_state_tag@1@AEBV?$_State_manager@VResponse@cpr@@@1@@Z
	??0?$initializer_list@U?$pair@$$CBW4AcceptEncodingMethods@cpr@@V?$basic_string@DU?$char_traits@D@std@@V?$allocator@D@2@@std@@@std@@@std@@QEAA@PEBU?$pair@$$CBW4AcceptEncodingMethods@cpr@@V?$basic_string@DU?$char_traits@D@std@@V?$allocator@D@2@@std@@@1@0@Z
	??0?$initializer_list@VResolve@cpr@@@std@@QEAA@PEBVResolve@cpr@@0@Z
	??0?$insert_iterator@V?$unordered_set@V?$basic_string@DU?$char_traits@D@std@@V?$allocator@D@2@@std@@U?$hash@V?$basic_string@DU?$char_traits@D@std@@V?$allocator@D@2@@std@@@2@U?$equal_to@V?$basic_string@DU?$char_traits@D@std@@V?$allocator@D@2@@std@@@2@V?$allocator@V?$basic_string@DU?$char_traits@D@std@@V?$allocator@D@2@@std@@@2@@std@@@std@@QEAA@$$QEAV01@@Z
	??0?$insert_iterator@V?$unordered_set@V?$basic_string@DU?$char_traits@D@std@@V?$allocator@D@2@@std@@U?$hash@V?$basic_string@DU?$char_traits@D@std@@V?$allocator@D@2@@std@@@2@U?$equal_to@V?$basic_string@DU?$char_traits@D@std@@V?$allocator@D@2@@std@@@2@V?$allocator@V?$basic_string@DU?$char_traits@D@std@@V?$allocator@D@2@@std@@@2@@std@@@std@@QEAA@AEAV?$unordered_set@V?$basic_string@DU?$char_traits@D@std@@V?$allocator@D@2@@std@@U?$hash@V?$basic_string@DU?$char_traits@D@std@@V?$allocator@D@2@@std@@@2@U?$equal_to@V?$basic_string@DU?$char_traits@D@std@@V?$allocator@D@2@@std@@@2@V?$allocator@V?$basic_string@DU?$char_traits@D@std@@V?$allocator@D@2@@std@@@2@@1@V?$_List_const_iterator@V?$_List_val@U?$_List_simple_types@V?$basic_string@DU?$char_traits@D@std@@V?$allocator@D@2@@std@@@std@@@std@@@1@@Z
	??0?$insert_iterator@V?$unordered_set@V?$basic_string@DU?$char_traits@D@std@@V?$allocator@D@2@@std@@U?$hash@V?$basic_string@DU?$char_traits@D@std@@V?$allocator@D@2@@std@@@2@U?$equal_to@V?$basic_string@DU?$char_traits@D@std@@V?$allocator@D@2@@std@@@2@V?$allocator@V?$basic_string@DU?$char_traits@D@std@@V?$allocator@D@2@@std@@@2@@std@@@std@@QEAA@AEBV01@@Z
	??0?$list@UThreadData@ThreadPool@cpr@@V?$allocator@UThreadData@ThreadPool@cpr@@@std@@@std@@QEAA@XZ
	??0?$list@V?$basic_string@DU?$char_traits@D@std@@V?$allocator@D@2@@std@@V?$allocator@V?$basic_string@DU?$char_traits@D@std@@V?$allocator@D@2@@std@@@2@@std@@QEAA@AEBV?$allocator@V?$basic_string@DU?$char_traits@D@std@@V?$allocator@D@2@@std@@@1@@Z
	??0?$lock_guard@Vmutex@std@@@std@@QEAA@AEAVmutex@1@@Z
	??0?$map@V?$basic_string@DU?$char_traits@D@std@@V?$allocator@D@2@@std@@V12@U?$less@V?$basic_string@DU?$char_traits@D@std@@V?$allocator@D@2@@std@@@2@V?$allocator@U?$pair@$$CBV?$basic_string@DU?$char_traits@D@std@@V?$allocator@D@2@@std@@V12@@std@@@2@@std@@QEAA@AEBV01@@Z
	??0?$map@V?$basic_string@DU?$char_traits@D@std@@V?$allocator@D@2@@std@@V12@U?$less@V?$basic_string@DU?$char_traits@D@std@@V?$allocator@D@2@@std@@@2@V?$allocator@U?$pair@$$CBV?$basic_string@DU?$char_traits@D@std@@V?$allocator@D@2@@std@@V12@@std@@@2@@std@@QEAA@V?$initializer_list@U?$pair@$$CBV?$basic_string@DU?$char_traits@D@std@@V?$allocator@D@2@@std@@V12@@std@@@1@@Z
	??0?$map@V?$basic_string@DU?$char_traits@D@std@@V?$allocator@D@2@@std@@V12@U?$less@V?$basic_string@DU?$char_traits@D@std@@V?$allocator@D@2@@std@@@2@V?$allocator@U?$pair@$$CBV?$basic_string@DU?$char_traits@D@std@@V?$allocator@D@2@@std@@V12@@std@@@2@@std@@QEAA@XZ
	??0?$map@V?$basic_string@DU?$char_traits@D@std@@V?$allocator@D@2@@std@@V12@UCaseInsensitiveCompare@cpr@@V?$allocator@U?$pair@$$CBV?$basic_string@DU?$char_traits@D@std@@V?$allocator@D@2@@std@@V12@@std@@@2@@std@@QEAA@$$QEAV01@@Z
	??0?$map@V?$basic_string@DU?$char_traits@D@std@@V?$allocator@D@2@@std@@V12@UCaseInsensitiveCompare@cpr@@V?$allocator@U?$pair@$$CBV?$basic_string@DU?$char_traits@D@std@@V?$allocator@D@2@@std@@V12@@std@@@2@@std@@QEAA@AEBV01@@Z
	??0?$map@V?$basic_string@DU?$char_traits@D@std@@V?$allocator@D@2@@std@@V12@UCaseInsensitiveCompare@cpr@@V?$allocator@U?$pair@$$CBV?$basic_string@DU?$char_traits@D@std@@V?$allocator@D@2@@std@@V12@@std@@@2@@std@@QEAA@XZ
	??0?$map@V?$basic_string@DU?$char_traits@D@std@@V?$allocator@D@2@@std@@VEncodedAuthentication@cpr@@U?$less@V?$basic_string@DU?$char_traits@D@std@@V?$allocator@D@2@@std@@@2@V?$allocator@U?$pair@$$CBV?$basic_string@DU?$char_traits@D@std@@V?$allocator@D@2@@std@@VEncodedAuthentication@cpr@@@std@@@2@@std@@QEAA@XZ
	??0?$map@W4AcceptEncodingMethods@cpr@@V?$basic_string@DU?$char_traits@D@std@@V?$allocator@D@2@@std@@U?$less@W4AcceptEncodingMethods@cpr@@@4@V?$allocator@U?$pair@$$CBW4AcceptEncodingMethods@cpr@@V?$basic_string@DU?$char_traits@D@std@@V?$allocator@D@2@@std@@@std@@@4@@std@@QEAA@V?$initializer_list@U?$pair@$$CBW4AcceptEncodingMethods@cpr@@V?$basic_string@DU?$char_traits@D@std@@V?$allocator@D@2@@std@@@std@@@1@@Z
	??0?$optional@V?$reference_wrapper@VProgressCallback@cpr@@@std@@@std@@QEAA@XZ
	??0?$ostreambuf_iterator@DU?$char_traits@D@std@@@std@@QEAA@PEAV?$basic_streambuf@DU?$char_traits@D@std@@@1@@Z
	??0?$pair@$$CBV?$basic_string@DU?$char_traits@D@std@@V?$allocator@D@2@@std@@V12@@std@@QEAA@AEBU01@@Z
	??0?$pair@$$CBV?$basic_string@DU?$char_traits@D@std@@V?$allocator@D@2@@std@@VEncodedAuthentication@cpr@@@std@@QEAA@AEBU01@@Z
	??0?$pair@$$CBW4AcceptEncodingMethods@cpr@@V?$basic_string@DU?$char_traits@D@std@@V?$allocator@D@2@@std@@@std@@QEAA@AEBU01@@Z
	??0?$pair@V?$shared_ptr@VSession@cpr@@@std@@W4HttpMethod@MultiPerform@cpr@@@std@@QEAA@$$QEAU01@@Z
	??0?$queue@V?$function@$$A6AXXZ@std@@V?$deque@V?$function@$$A6AXXZ@std@@V?$allocator@V?$function@$$A6AXXZ@std@@@2@@2@@std@@QEAA@XZ
	??0?$queue@V?$shared_ptr@VInterceptor@cpr@@@std@@V?$deque@V?$shared_ptr@VInterceptor@cpr@@@std@@V?$allocator@V?$shared_ptr@VInterceptor@cpr@@@std@@@2@@2@@std@@QEAA@XZ
	??0?$queue@V?$shared_ptr@VInterceptorMulti@cpr@@@std@@V?$deque@V?$shared_ptr@VInterceptorMulti@cpr@@@std@@V?$allocator@V?$shared_ptr@VInterceptorMulti@cpr@@@std@@@2@@2@@std@@QEAA@XZ
	??0?$set@GU?$less@G@std@@V?$allocator@G@2@@std@@QEAA@AEBV01@@Z
	??0?$shared_ptr@U?$atomic@_N@std@@@std@@QEAA@$$QEAV01@@Z
	??0?$shared_ptr@U?$atomic@_N@std@@@std@@QEAA@XZ
	??0?$shared_ptr@UCurlHolder@cpr@@@std@@QEAA@$$QEAV01@@Z
	??0?$shared_ptr@UCurlHolder@cpr@@@std@@QEAA@$$T@Z
	??0?$shared_ptr@UCurlHolder@cpr@@@std@@QEAA@AEBV01@@Z
	??0?$shared_ptr@V?$packaged_task@$$A6A?AVResponse@cpr@@XZ@std@@@std@@QEAA@$$QEAV01@@Z
	??0?$shared_ptr@V?$packaged_task@$$A6A?AVResponse@cpr@@XZ@std@@@std@@QEAA@AEBV01@@Z
	??0?$shared_ptr@V?$packaged_task@$$A6A?AVResponse@cpr@@XZ@std@@@std@@QEAA@XZ
	??0?$shared_ptr@VInterceptor@cpr@@@std@@QEAA@AEBV01@@Z
	??0?$shared_ptr@VInterceptorMulti@cpr@@@std@@QEAA@AEBV01@@Z
	??0?$shared_ptr@VSession@cpr@@@std@@QEAA@$$QEAV01@@Z
	??0?$shared_ptr@VSession@cpr@@@std@@QEAA@AEBV01@@Z
	??0?$shared_ptr@Vthread@std@@@std@@QEAA@$$QEAV01@@Z
	??0?$shared_ptr@Vthread@std@@@std@@QEAA@AEBV01@@Z
	??0?$shared_ptr@Vthread@std@@@std@@QEAA@XZ
	??0?$time_point@Usteady_clock@chrono@std@@V?$duration@_JU?$ratio@$00$0DLJKMKAA@@std@@@23@@chrono@std@@QEAA@AEBV?$duration@_JU?$ratio@$00$0DLJKMKAA@@std@@@12@@Z
	??0?$time_point@Usystem_clock@chrono@std@@V?$duration@_JU?$ratio@$00$0JIJGIA@@std@@@23@@chrono@std@@QEAA@AEBV?$duration@_JU?$ratio@$00$0JIJGIA@@std@@@12@@Z
	??0?$tuple@$$QEAV?$basic_string@DU?$char_traits@D@std@@V?$allocator@D@2@@std@@@std@@QEAA@$$QEAV01@@Z
	??0?$tuple@$$V@std@@QEAA@AEBV01@@Z
	??0?$tuple@AEBV?$basic_string@DU?$char_traits@D@std@@V?$allocator@D@2@@std@@@std@@QEAA@$$QEAV01@@Z
	??0?$unique_lock@Vmutex@std@@@std@@QEAA@AEAVmutex@1@@Z
	??0?$unordered_set@V?$basic_string@DU?$char_traits@D@std@@V?$allocator@D@2@@std@@U?$hash@V?$basic_string@DU?$char_traits@D@std@@V?$allocator@D@2@@std@@@2@U?$equal_to@V?$basic_string@DU?$char_traits@D@std@@V?$allocator@D@2@@std@@@2@V?$allocator@V?$basic_string@DU?$char_traits@D@std@@V?$allocator@D@2@@std@@@2@@std@@QEAA@V?$initializer_list@V?$basic_string@DU?$char_traits@D@std@@V?$allocator@D@2@@std@@@1@@Z
	??0?$unordered_set@V?$basic_string@DU?$char_traits@D@std@@V?$allocator@D@2@@std@@U?$hash@V?$basic_string@DU?$char_traits@D@std@@V?$allocator@D@2@@std@@@2@U?$equal_to@V?$basic_string@DU?$char_traits@D@std@@V?$allocator@D@2@@std@@@2@V?$allocator@V?$basic_string@DU?$char_traits@D@std@@V?$allocator@D@2@@std@@@2@@std@@QEAA@XZ
	??0?$vector@U?$pair@V?$shared_ptr@VSession@cpr@@@std@@W4HttpMethod@MultiPerform@cpr@@@std@@V?$allocator@U?$pair@V?$shared_ptr@VSession@cpr@@@std@@W4HttpMethod@MultiPerform@cpr@@@std@@@2@@std@@QEAA@XZ
	??0?$vector@UFile@cpr@@V?$allocator@UFile@cpr@@@std@@@std@@QEAA@AEBV01@@Z
	??0?$vector@UFile@cpr@@V?$allocator@UFile@cpr@@@std@@@std@@QEAA@XZ
	??0?$vector@UPair@cpr@@V?$allocator@UPair@cpr@@@std@@@std@@QEAA@V?$initializer_list@UPair@cpr@@@1@AEBV?$allocator@UPair@cpr@@@1@@Z
	??0?$vector@UParameter@cpr@@V?$allocator@UParameter@cpr@@@std@@@std@@QEAA@V?$initializer_list@UParameter@cpr@@@1@AEBV?$allocator@UParameter@cpr@@@1@@Z
	??0?$vector@UParameter@cpr@@V?$allocator@UParameter@cpr@@@std@@@std@@QEAA@XZ
	??0?$vector@UPart@cpr@@V?$allocator@UPart@cpr@@@std@@@std@@QEAA@V?$initializer_list@UPart@cpr@@@1@AEBV?$allocator@UPart@cpr@@@1@@Z
	??0?$vector@V?$basic_string@DU?$char_traits@D@std@@V?$allocator@D@2@@std@@V?$allocator@V?$basic_string@DU?$char_traits@D@std@@V?$allocator@D@2@@std@@@2@@std@@QEAA@$$QEAV01@@Z
	??0?$vector@V?$basic_string@DU?$char_traits@D@std@@V?$allocator@D@2@@std@@V?$allocator@V?$basic_string@DU?$char_traits@D@std@@V?$allocator@D@2@@std@@@2@@std@@QEAA@AEBV01@@Z
	??0?$vector@V?$basic_string@DU?$char_traits@D@std@@V?$allocator@D@2@@std@@V?$allocator@V?$basic_string@DU?$char_traits@D@std@@V?$allocator@D@2@@std@@@2@@std@@QEAA@XZ
	??0?$vector@VCertInfo@cpr@@V?$allocator@VCertInfo@cpr@@@std@@@std@@QEAA@$$QEAV01@@Z
	??0?$vector@VCertInfo@cpr@@V?$allocator@VCertInfo@cpr@@@std@@@std@@QEAA@XZ
	??0?$vector@VCookie@cpr@@V?$allocator@VCookie@cpr@@@std@@@std@@QEAA@$$QEAV01@@Z
	??0?$vector@VCookie@cpr@@V?$allocator@VCookie@cpr@@@std@@@std@@QEAA@AEBV01@@Z
	??0?$vector@VCookie@cpr@@V?$allocator@VCookie@cpr@@@std@@@std@@QEAA@XZ
	??0?$vector@VResolve@cpr@@V?$allocator@VResolve@cpr@@@std@@@std@@QEAA@V?$initializer_list@VResolve@cpr@@@1@AEBV?$allocator@VResolve@cpr@@@1@@Z
	??0?$vector@VResponse@cpr@@V?$allocator@VResponse@cpr@@@std@@@std@@QEAA@$$QEAV01@@Z
	??0?$vector@VResponse@cpr@@V?$allocator@VResponse@cpr@@@std@@@std@@QEAA@XZ
	??0?$weak_ptr@VSession@cpr@@@std@@QEAA@XZ
	??0AcceptEncoding@cpr@@QEAA@AEBV?$initializer_list@V?$basic_string@DU?$char_traits@D@std@@V?$allocator@D@2@@std@@@std@@@Z
	??0AcceptEncoding@cpr@@QEAA@AEBV?$initializer_list@W4AcceptEncodingMethods@cpr@@@std@@@Z
	??0AcceptEncoding@cpr@@QEAA@XZ
	??0CancellationCallback@cpr@@QEAA@$$QEAV?$shared_ptr@U?$atomic@_N@std@@@std@@@Z
	??0CancellationCallback@cpr@@QEAA@XZ
	??0CertInfo@cpr@@QEAA@AEBV01@@Z
	??0CertInfo@cpr@@QEAA@XZ
	??0Cookie@cpr@@QEAA@$$QEAV01@@Z
	??0Cookie@cpr@@QEAA@AEBV01@@Z
	??0Cookie@cpr@@QEAA@AEBV?$basic_string@DU?$char_traits@D@std@@V?$allocator@D@2@@std@@00_N01V?$time_point@Usystem_clock@chrono@std@@V?$duration@_JU?$ratio@$00$0JIJGIA@@std@@@23@@chrono@3@@Z
	??0Cookies@cpr@@QEAA@$$QEAV01@@Z
	??0Cookies@cpr@@QEAA@AEBV01@@Z
	??0Cookies@cpr@@QEAA@_N@Z
	??0CurlHolder@cpr@@QEAA@XZ
	??0CurlMultiHolder@cpr@@QEAA@XZ
	??0DebugCallback@cpr@@QEAA@XZ
	??0EncodedAuthentication@cpr@@QEAA@AEBV01@@Z
	??0EncodedAuthentication@cpr@@QEAA@XZ
	??0Error@cpr@@QEAA@$$QEAV01@@Z
	??0Error@cpr@@QEAA@AEBH$$QEAV?$basic_string@DU?$char_traits@D@std@@V?$allocator@D@2@@std@@@Z
	??0Error@cpr@@QEAA@AEBV01@@Z
	??0Error@cpr@@QEAA@XZ
	??0File@cpr@@QEAA@$$QEAU01@@Z
	??0File@cpr@@QEAA@AEBU01@@Z
	??0File@cpr@@QEAA@V?$basic_string@DU?$char_traits@D@std@@V?$allocator@D@2@@std@@AEBV23@@Z
	??0Files@cpr@@QEAA@AEBV01@@Z
	??0Files@cpr@@QEAA@AEBV?$initializer_list@V?$basic_string@DU?$char_traits@D@std@@V?$allocator@D@2@@std@@@std@@@Z
	??0GlobalThreadPool@cpr@@IEAA@XZ
	??0HeaderCallback@cpr@@QEAA@XZ
	??0MultiPerform@cpr@@QEAA@XZ
	??0Multipart@cpr@@QEAA@AEBV?$initializer_list@UPart@cpr@@@std@@@Z
	??0Pair@cpr@@QEAA@$$QEAU01@@Z
	??0Pair@cpr@@QEAA@AEBU01@@Z
	??0Parameter@cpr@@QEAA@$$QEAU01@@Z
	??0Parameter@cpr@@QEAA@AEBU01@@Z
	??0Parameters@cpr@@QEAA@AEBV?$initializer_list@UParameter@cpr@@@std@@@Z
	??0Parameters@cpr@@QEAA@XZ
	??0Part@cpr@@QEAA@AEBU01@@Z
	??0Payload@cpr@@QEAA@AEBV?$initializer_list@UPair@cpr@@@std@@@Z
	??0ProgressCallback@cpr@@QEAA@XZ
	??0Proxies@cpr@@QEAA@AEBV?$initializer_list@U?$pair@$$CBV?$basic_string@DU?$char_traits@D@std@@V?$allocator@D@2@@std@@V12@@std@@@std@@@Z
	??0Proxies@cpr@@QEAA@AEBV?$map@V?$basic_string@DU?$char_traits@D@std@@V?$allocator@D@2@@std@@V12@U?$less@V?$basic_string@DU?$char_traits@D@std@@V?$allocator@D@2@@std@@@2@V?$allocator@U?$pair@$$CBV?$basic_string@DU?$char_traits@D@std@@V?$allocator@D@2@@std@@V12@@std@@@2@@std@@@Z
	??0Proxies@cpr@@QEAA@XZ
	??0ProxyAuthentication@cpr@@QEAA@XZ
	??0ReadCallback@cpr@@QEAA@XZ
	??0Redirect@cpr@@QEAA@XZ
	??0ReserveSize@cpr@@QEAA@_K@Z
	??0Resolve@cpr@@QEAA@AEBV01@@Z
	??0Response@cpr@@QEAA@$$QEAV01@@Z
	??0Response@cpr@@QEAA@AEBV01@@Z
	??0Response@cpr@@QEAA@V?$shared_ptr@UCurlHolder@cpr@@@std@@$$QEAV?$basic_string@DU?$char_traits@D@std@@V?$allocator@D@2@@3@1$$QEAVCookies@1@$$QEAVError@1@@Z
	??0Response@cpr@@QEAA@XZ
	??0Session@cpr@@QEAA@XZ
	??0ThreadData@ThreadPool@cpr@@QEAA@AEBU012@@Z
	??0ThreadData@ThreadPool@cpr@@QEAA@XZ
	??0ThreadPool@cpr@@QEAA@_K0V?$duration@_JU?$ratio@$00$0DOI@@std@@@chrono@std@@@Z
	??0Url@cpr@@QEAA@$$QEAV01@@Z
	??0Url@cpr@@QEAA@AEBV01@@Z
	??0Url@cpr@@QEAA@PEBD@Z
	??0Url@cpr@@QEAA@V?$basic_string@DU?$char_traits@D@std@@V?$allocator@D@2@@std@@@Z
	??0Url@cpr@@QEAA@XZ
	??0WriteCallback@cpr@@QEAA@AEBV01@@Z
	??0WriteCallback@cpr@@QEAA@XZ
	??0_Basic_container_proxy_ptr12@std@@IEAA@XZ
	??0_Bxty@?$_String_val@U?$_Simple_types@D@std@@@std@@QEAA@XZ
	??0_Clear_guard@?$_Hash@V?$_Uset_traits@V?$basic_string@DU?$char_traits@D@std@@V?$allocator@D@2@@std@@V?$_Uhash_compare@V?$basic_string@DU?$char_traits@D@std@@V?$allocator@D@2@@std@@U?$hash@V?$basic_string@DU?$char_traits@D@std@@V?$allocator@D@2@@std@@@2@U?$equal_to@V?$basic_string@DU?$char_traits@D@std@@V?$allocator@D@2@@std@@@2@@2@V?$allocator@V?$basic_string@DU?$char_traits@D@std@@V?$allocator@D@2@@std@@@2@$0A@@std@@@std@@QEAA@QEAV12@@Z
	??0_Container_base12@std@@QEAA@XZ
	??0_Container_proxy@std@@QEAA@PEAU_Container_base12@1@@Z
	??0_Iterator_base12@std@@QEAA@AEBU01@@Z
	??0_Iterator_base12@std@@QEAA@XZ
	??0_Mutex_base@std@@QEAA@H@Z
	??0_Nontrivial_dummy_type@std@@QEAA@XZ
	??0_Range_eraser@?$_Hash@V?$_Uset_traits@V?$basic_string@DU?$char_traits@D@std@@V?$allocator@D@2@@std@@V?$_Uhash_compare@V?$basic_string@DU?$char_traits@D@std@@V?$allocator@D@2@@std@@U?$hash@V?$basic_string@DU?$char_traits@D@std@@V?$allocator@D@2@@std@@@2@U?$equal_to@V?$basic_string@DU?$char_traits@D@std@@V?$allocator@D@2@@std@@@2@@2@V?$allocator@V?$basic_string@DU?$char_traits@D@std@@V?$allocator@D@2@@std@@@2@$0A@@std@@@std@@QEAA@AEAV?$list@V?$basic_string@DU?$char_traits@D@std@@V?$allocator@D@2@@std@@V?$allocator@V?$basic_string@DU?$char_traits@D@std@@V?$allocator@D@2@@std@@@2@@2@QEAU?$_List_node@V?$basic_string@DU?$char_traits@D@std@@V?$allocator@D@2@@std@@PEAX@2@@Z
	??0_Ref_count_base@std@@IEAA@XZ
	??0_Sentry_base@?$basic_istream@DU?$char_traits@D@std@@@std@@QEAA@AEAV12@@Z
	??0_Sentry_base@?$basic_ostream@DU?$char_traits@D@std@@@std@@QEAA@AEAV12@@Z
	??0bad_alloc@std@@AEAA@QEBD@Z
	??0bad_alloc@std@@QEAA@AEBV01@@Z
	??0bad_array_new_length@std@@QEAA@AEBV01@@Z
	??0bad_array_new_length@std@@QEAA@XZ
	??0bad_cast@std@@QEAA@AEBV01@@Z
	??0bad_cast@std@@QEAA@XZ
	??0bad_weak_ptr@std@@QEAA@AEBV01@@Z
	??0bad_weak_ptr@std@@QEAA@XZ
	??0condition_variable@std@@QEAA@XZ
	??0error_code@std@@QEAA@HAEBVerror_category@1@@Z
	??0error_condition@std@@QEAA@HAEBVerror_category@1@@Z
	??0exception@std@@QEAA@AEBV01@@Z
	??0exception@std@@QEAA@QEBD@Z
	??0exception@std@@QEAA@QEBDH@Z
	??0exception@std@@QEAA@XZ
	??0exception_ptr@std@@QEAA@AEBV01@@Z
	??0exception_ptr@std@@QEAA@XZ
	??0future_error@std@@QEAA@AEBV01@@Z
	??0future_error@std@@QEAA@Verror_code@1@@Z
	??0future_error@std@@QEAA@W4future_errc@1@@Z
	??0id@thread@std@@AEAA@I@Z
	??0id@thread@std@@QEAA@XZ
	??0invalid_argument@std@@QEAA@AEBV01@@Z
	??0invalid_argument@std@@QEAA@AEBV?$basic_string@DU?$char_traits@D@std@@V?$allocator@D@2@@1@@Z
	??0invalid_argument@std@@QEAA@PEBD@Z
	??0logic_error@std@@QEAA@AEBV01@@Z
	??0logic_error@std@@QEAA@PEBD@Z
	??0mutex@std@@QEAA@XZ
	??0overflow_error@std@@QEAA@AEBV01@@Z
	??0overflow_error@std@@QEAA@AEBV?$basic_string@DU?$char_traits@D@std@@V?$allocator@D@2@@1@@Z
	??0runtime_error@std@@QEAA@AEBV01@@Z
	??0runtime_error@std@@QEAA@PEBD@Z
	??0sentry@?$basic_istream@DU?$char_traits@D@std@@@std@@QEAA@AEAV12@_N@Z
	??0sentry@?$basic_ostream@DU?$char_traits@D@std@@@std@@QEAA@AEAV12@@Z
	??0underflow_error@std@@QEAA@AEBV01@@Z
	??0underflow_error@std@@QEAA@AEBV?$basic_string@DU?$char_traits@D@std@@V?$allocator@D@2@@1@@Z
	??1?$CurlContainer@UParameter@cpr@@@cpr@@QEAA@XZ
	??1?$StringHolder@VUrl@cpr@@@cpr@@UEAA@XZ
	??1?$_Alloc_construct_ptr@V?$allocator@U?$_List_node@UThreadData@ThreadPool@cpr@@PEAX@std@@@std@@@std@@QEAA@XZ
	??1?$_Alloc_construct_ptr@V?$allocator@U?$_List_node@V?$basic_string@DU?$char_traits@D@std@@V?$allocator@D@2@@std@@PEAX@std@@@std@@@std@@QEAA@XZ
	??1?$_Alloc_construct_ptr@V?$allocator@U?$_Tree_node@GPEAX@std@@@std@@@std@@QEAA@XZ
	??1?$_Alloc_construct_ptr@V?$allocator@U?$_Tree_node@U?$pair@$$CBV?$basic_string@DU?$char_traits@D@std@@V?$allocator@D@2@@std@@V12@@std@@PEAX@std@@@std@@@std@@QEAA@XZ
	??1?$_Alloc_construct_ptr@V?$allocator@U?$_Tree_node@U?$pair@$$CBV?$basic_string@DU?$char_traits@D@std@@V?$allocator@D@2@@std@@VEncodedAuthentication@cpr@@@std@@PEAX@std@@@std@@@std@@QEAA@XZ
	??1?$_Alloc_construct_ptr@V?$allocator@U?$_Tree_node@U?$pair@$$CBW4AcceptEncodingMethods@cpr@@V?$basic_string@DU?$char_traits@D@std@@V?$allocator@D@2@@std@@@std@@PEAX@std@@@std@@@std@@QEAA@XZ
	??1?$_Associated_state@VResponse@cpr@@@std@@UEAA@XZ
	??1?$_Compressed_pair@V?$allocator@D@std@@V?$_String_val@U?$_Simple_types@D@std@@@2@$00@std@@QEAA@XZ
	??1?$_Container_proxy_ptr12@V?$allocator@U_Container_proxy@std@@@std@@@std@@QEAA@XZ
	??1?$_Func_class@VResponse@cpr@@$$V@std@@QEAA@XZ
	??1?$_Func_class@VResponse@cpr@@AEAVSession@2@W4CURLcode@@@std@@QEAA@XZ
	??1?$_Func_class@X$$V@std@@QEAA@XZ
	??1?$_Func_class@XW4InfoType@DebugCallback@cpr@@V?$basic_string@DU?$char_traits@D@std@@V?$allocator@D@2@@std@@_J@std@@QEAA@XZ
	??1?$_Func_class@_NPEADAEA_K_J@std@@QEAA@XZ
	??1?$_Func_class@_NV?$basic_string@DU?$char_traits@D@std@@V?$allocator@D@2@@std@@_J@std@@QEAA@XZ
	??1?$_Func_class@_N_J_J_J_J_J@std@@QEAA@XZ
	??1?$_Hash@V?$_Uset_traits@V?$basic_string@DU?$char_traits@D@std@@V?$allocator@D@2@@std@@V?$_Uhash_compare@V?$basic_string@DU?$char_traits@D@std@@V?$allocator@D@2@@std@@U?$hash@V?$basic_string@DU?$char_traits@D@std@@V?$allocator@D@2@@std@@@2@U?$equal_to@V?$basic_string@DU?$char_traits@D@std@@V?$allocator@D@2@@std@@@2@@2@V?$allocator@V?$basic_string@DU?$char_traits@D@std@@V?$allocator@D@2@@std@@@2@$0A@@std@@@std@@QEAA@XZ
	??1?$_Hash_vec@V?$allocator@V?$_List_unchecked_const_iterator@V?$_List_val@U?$_List_simple_types@V?$basic_string@DU?$char_traits@D@std@@V?$allocator@D@2@@std@@@std@@@std@@U_Iterator_base0@2@@std@@@std@@@std@@QEAA@XZ
	??1?$_List_const_iterator@V?$_List_val@U?$_List_simple_types@UThreadData@ThreadPool@cpr@@@std@@@std@@@std@@QEAA@XZ
	??1?$_List_const_iterator@V?$_List_val@U?$_List_simple_types@V?$basic_string@DU?$char_traits@D@std@@V?$allocator@D@2@@std@@@std@@@std@@@std@@QEAA@XZ
	??1?$_List_iterator@V?$_List_val@U?$_List_simple_types@UThreadData@ThreadPool@cpr@@@std@@@std@@@std@@QEAA@XZ
	??1?$_List_iterator@V?$_List_val@U?$_List_simple_types@V?$basic_string@DU?$char_traits@D@std@@V?$allocator@D@2@@std@@@std@@@std@@@std@@QEAA@XZ
	??1?$_List_node_emplace_op2@V?$allocator@U?$_List_node@UThreadData@ThreadPool@cpr@@PEAX@std@@@std@@@std@@QEAA@XZ
	??1?$_List_node_emplace_op2@V?$allocator@U?$_List_node@V?$basic_string@DU?$char_traits@D@std@@V?$allocator@D@2@@std@@PEAX@std@@@std@@@std@@QEAA@XZ
	??1?$_List_node_insert_op2@V?$allocator@U?$_List_node@V?$basic_string@DU?$char_traits@D@std@@V?$allocator@D@2@@std@@PEAX@std@@@std@@@std@@QEAA@XZ
	??1?$_List_unchecked_const_iterator@V?$_List_val@U?$_List_simple_types@UThreadData@ThreadPool@cpr@@@std@@@std@@U_Iterator_base12@2@@std@@QEAA@XZ
	??1?$_List_unchecked_const_iterator@V?$_List_val@U?$_List_simple_types@V?$basic_string@DU?$char_traits@D@std@@V?$allocator@D@2@@std@@@std@@@std@@U_Iterator_base12@2@@std@@QEAA@XZ
	??1?$_Packaged_state@$$A6A?AVResponse@cpr@@XZ@std@@UEAA@XZ
	??1?$_Promise@VResponse@cpr@@@std@@QEAA@XZ
	??1?$_Ref_count@UCurlHolder@cpr@@@std@@UEAA@XZ
	??1?$_Ref_count@Vthread@std@@@std@@UEAA@XZ
	??1?$_Ref_count_obj2@V?$packaged_task@$$A6A?AVResponse@cpr@@XZ@std@@@std@@UEAA@XZ
	??1?$_State_manager@VResponse@cpr@@@std@@QEAA@XZ
	??1?$_String_const_iterator@V?$_String_val@U?$_Simple_types@D@std@@@std@@@std@@QEAA@XZ
	??1?$_String_iterator@V?$_String_val@U?$_Simple_types@D@std@@@std@@@std@@QEAA@XZ
	??1?$_String_val@U?$_Simple_types@D@std@@@std@@QEAA@XZ
	??1?$_Temporary_owner@UCurlHolder@cpr@@@std@@QEAA@XZ
	??1?$_Temporary_owner@Vthread@std@@@std@@QEAA@XZ
	??1?$_Tidy_guard@V?$vector@UFile@cpr@@V?$allocator@UFile@cpr@@@std@@@std@@@std@@QEAA@XZ
	??1?$_Tidy_guard@V?$vector@UPair@cpr@@V?$allocator@UPair@cpr@@@std@@@std@@@std@@QEAA@XZ
	??1?$_Tidy_guard@V?$vector@UParameter@cpr@@V?$allocator@UParameter@cpr@@@std@@@std@@@std@@QEAA@XZ
	??1?$_Tidy_guard@V?$vector@UPart@cpr@@V?$allocator@UPart@cpr@@@std@@@std@@@std@@QEAA@XZ
	??1?$_Tidy_guard@V?$vector@V?$basic_string@DU?$char_traits@D@std@@V?$allocator@D@2@@std@@V?$allocator@V?$basic_string@DU?$char_traits@D@std@@V?$allocator@D@2@@std@@@2@@std@@@std@@QEAA@XZ
	??1?$_Tidy_guard@V?$vector@VCookie@cpr@@V?$allocator@VCookie@cpr@@@std@@@std@@@std@@QEAA@XZ
	??1?$_Tidy_guard@V?$vector@VResolve@cpr@@V?$allocator@VResolve@cpr@@@std@@@std@@@std@@QEAA@XZ
	??1?$_Tree@V?$_Tmap_traits@V?$basic_string@DU?$char_traits@D@std@@V?$allocator@D@2@@std@@V12@U?$less@V?$basic_string@DU?$char_traits@D@std@@V?$allocator@D@2@@std@@@2@V?$allocator@U?$pair@$$CBV?$basic_string@DU?$char_traits@D@std@@V?$allocator@D@2@@std@@V12@@std@@@2@$0A@@std@@@std@@QEAA@XZ
	??1?$_Tree@V?$_Tmap_traits@V?$basic_string@DU?$char_traits@D@std@@V?$allocator@D@2@@std@@V12@UCaseInsensitiveCompare@cpr@@V?$allocator@U?$pair@$$CBV?$basic_string@DU?$char_traits@D@std@@V?$allocator@D@2@@std@@V12@@std@@@2@$0A@@std@@@std@@QEAA@XZ
	??1?$_Tree@V?$_Tmap_traits@V?$basic_string@DU?$char_traits@D@std@@V?$allocator@D@2@@std@@VEncodedAuthentication@cpr@@U?$less@V?$basic_string@DU?$char_traits@D@std@@V?$allocator@D@2@@std@@@2@V?$allocator@U?$pair@$$CBV?$basic_string@DU?$char_traits@D@std@@V?$allocator@D@2@@std@@VEncodedAuthentication@cpr@@@std@@@2@$0A@@std@@@std@@QEAA@XZ
	??1?$_Tree@V?$_Tmap_traits@W4AcceptEncodingMethods@cpr@@V?$basic_string@DU?$char_traits@D@std@@V?$allocator@D@2@@std@@U?$less@W4AcceptEncodingMethods@cpr@@@4@V?$allocator@U?$pair@$$CBW4AcceptEncodingMethods@cpr@@V?$basic_string@DU?$char_traits@D@std@@V?$allocator@D@2@@std@@@std@@@4@$0A@@std@@@std@@QEAA@XZ
	??1?$_Tree@V?$_Tset_traits@GU?$less@G@std@@V?$allocator@G@2@$0A@@std@@@std@@QEAA@XZ
	??1?$_Tree_const_iterator@V?$_Tree_val@U?$_Tree_simple_types@U?$pair@$$CBV?$basic_string@DU?$char_traits@D@std@@V?$allocator@D@2@@std@@V12@@std@@@std@@@std@@@std@@QEAA@XZ
	??1?$_Tree_head_scoped_ptr@V?$allocator@U?$_Tree_node@GPEAX@std@@@std@@V?$_Tree_val@U?$_Tree_simple_types@G@std@@@2@@std@@QEAA@XZ
	??1?$_Tree_head_scoped_ptr@V?$allocator@U?$_Tree_node@U?$pair@$$CBV?$basic_string@DU?$char_traits@D@std@@V?$allocator@D@2@@std@@V12@@std@@PEAX@std@@@std@@V?$_Tree_val@U?$_Tree_simple_types@U?$pair@$$CBV?$basic_string@DU?$char_traits@D@std@@V?$allocator@D@2@@std@@V12@@std@@@std@@@2@@std@@QEAA@XZ
	??1?$_Tree_iterator@V?$_Tree_val@U?$_Tree_simple_types@U?$pair@$$CBV?$basic_string@DU?$char_traits@D@std@@V?$allocator@D@2@@std@@V12@@std@@@std@@@std@@@std@@QEAA@XZ
	??1?$_Tree_temp_node@V?$allocator@U?$_Tree_node@U?$pair@$$CBV?$basic_string@DU?$char_traits@D@std@@V?$allocator@D@2@@std@@V12@@std@@PEAX@std@@@std@@@std@@QEAA@XZ
	??1?$_Tree_temp_node@V?$allocator@U?$_Tree_node@U?$pair@$$CBV?$basic_string@DU?$char_traits@D@std@@V?$allocator@D@2@@std@@VEncodedAuthentication@cpr@@@std@@PEAX@std@@@std@@@std@@QEAA@XZ
	??1?$_Tree_temp_node@V?$allocator@U?$_Tree_node@U?$pair@$$CBW4AcceptEncodingMethods@cpr@@V?$basic_string@DU?$char_traits@D@std@@V?$allocator@D@2@@std@@@std@@PEAX@std@@@std@@@std@@QEAA@XZ
	??1?$_Tree_temp_node_alloc@V?$allocator@U?$_Tree_node@U?$pair@$$CBV?$basic_string@DU?$char_traits@D@std@@V?$allocator@D@2@@std@@V12@@std@@PEAX@std@@@std@@@std@@QEAA@XZ
	??1?$_Tree_temp_node_alloc@V?$allocator@U?$_Tree_node@U?$pair@$$CBV?$basic_string@DU?$char_traits@D@std@@V?$allocator@D@2@@std@@VEncodedAuthentication@cpr@@@std@@PEAX@std@@@std@@@std@@QEAA@XZ
	??1?$_Tree_temp_node_alloc@V?$allocator@U?$_Tree_node@U?$pair@$$CBW4AcceptEncodingMethods@cpr@@V?$basic_string@DU?$char_traits@D@std@@V?$allocator@D@2@@std@@@std@@PEAX@std@@@std@@@std@@QEAA@XZ
	??1?$_Tree_unchecked_const_iterator@V?$_Tree_val@U?$_Tree_simple_types@U?$pair@$$CBV?$basic_string@DU?$char_traits@D@std@@V?$allocator@D@2@@std@@V12@@std@@@std@@@std@@U_Iterator_base12@2@@std@@QEAA@XZ
	??1?$_Uninitialized_backout@PEAPEAV?$function@$$A6AXXZ@std@@@std@@QEAA@XZ
	??1?$_Uninitialized_backout@PEAPEAV?$shared_ptr@VInterceptor@cpr@@@std@@@std@@QEAA@XZ
	??1?$_Uninitialized_backout@PEAPEAV?$shared_ptr@VInterceptorMulti@cpr@@@std@@@std@@QEAA@XZ
	??1?$_Uninitialized_backout@PEAV?$_List_unchecked_const_iterator@V?$_List_val@U?$_List_simple_types@V?$basic_string@DU?$char_traits@D@std@@V?$allocator@D@2@@std@@@std@@@std@@U_Iterator_base0@2@@std@@@std@@QEAA@XZ
	??1?$_Uninitialized_backout_al@V?$allocator@U?$pair@V?$shared_ptr@VSession@cpr@@@std@@W4HttpMethod@MultiPerform@cpr@@@std@@@std@@@std@@QEAA@XZ
	??1?$_Uninitialized_backout_al@V?$allocator@UFile@cpr@@@std@@@std@@QEAA@XZ
	??1?$_Uninitialized_backout_al@V?$allocator@UPair@cpr@@@std@@@std@@QEAA@XZ
	??1?$_Uninitialized_backout_al@V?$allocator@UParameter@cpr@@@std@@@std@@QEAA@XZ
	??1?$_Uninitialized_backout_al@V?$allocator@UPart@cpr@@@std@@@std@@QEAA@XZ
	??1?$_Uninitialized_backout_al@V?$allocator@V?$basic_string@DU?$char_traits@D@std@@V?$allocator@D@2@@std@@@std@@@std@@QEAA@XZ
	??1?$_Uninitialized_backout_al@V?$allocator@VCertInfo@cpr@@@std@@@std@@QEAA@XZ
	??1?$_Uninitialized_backout_al@V?$allocator@VCookie@cpr@@@std@@@std@@QEAA@XZ
	??1?$_Uninitialized_backout_al@V?$allocator@VResolve@cpr@@@std@@@std@@QEAA@XZ
	??1?$_Uninitialized_backout_al@V?$allocator@VResponse@cpr@@@std@@@std@@QEAA@XZ
	??1?$_Vector_const_iterator@V?$_Vector_val@U?$_Simple_types@U?$pair@V?$shared_ptr@VSession@cpr@@@std@@W4HttpMethod@MultiPerform@cpr@@@std@@@std@@@std@@@std@@QEAA@XZ
	??1?$_Vector_const_iterator@V?$_Vector_val@U?$_Simple_types@UFile@cpr@@@std@@@std@@@std@@QEAA@XZ
	??1?$_Vector_const_iterator@V?$_Vector_val@U?$_Simple_types@VResponse@cpr@@@std@@@std@@@std@@QEAA@XZ
	??1?$_Vector_iterator@V?$_Vector_val@U?$_Simple_types@U?$pair@V?$shared_ptr@VSession@cpr@@@std@@W4HttpMethod@MultiPerform@cpr@@@std@@@std@@@std@@@std@@QEAA@XZ
	??1?$_Vector_iterator@V?$_Vector_val@U?$_Simple_types@VResponse@cpr@@@std@@@std@@@std@@QEAA@XZ
	??1?$basic_istringstream@DU?$char_traits@D@std@@V?$allocator@D@2@@std@@UEAA@XZ
	??1?$basic_string@DU?$char_traits@D@std@@V?$allocator@D@2@@std@@QEAA@XZ
	??1?$basic_stringbuf@DU?$char_traits@D@std@@V?$allocator@D@2@@std@@UEAA@XZ
	??1?$basic_stringstream@DU?$char_traits@D@std@@V?$allocator@D@2@@std@@UEAA@XZ
	??1?$deque@V?$function@$$A6AXXZ@std@@V?$allocator@V?$function@$$A6AXXZ@std@@@2@@std@@QEAA@XZ
	??1?$deque@V?$shared_ptr@VInterceptor@cpr@@@std@@V?$allocator@V?$shared_ptr@VInterceptor@cpr@@@std@@@2@@std@@QEAA@XZ
	??1?$deque@V?$shared_ptr@VInterceptorMulti@cpr@@@std@@V?$allocator@V?$shared_ptr@VInterceptorMulti@cpr@@@std@@@2@@std@@QEAA@XZ
	??1?$enable_shared_from_this@VSession@cpr@@@std@@IEAA@XZ
	??1?$function@$$A6A?AVResponse@cpr@@AEAVSession@2@W4CURLcode@@@Z@std@@QEAA@XZ
	??1?$function@$$A6A?AVResponse@cpr@@XZ@std@@QEAA@XZ
	??1?$function@$$A6AXW4InfoType@DebugCallback@cpr@@V?$basic_string@DU?$char_traits@D@std@@V?$allocator@D@2@@std@@_J@Z@std@@QEAA@XZ
	??1?$function@$$A6AXXZ@std@@QEAA@XZ
	??1?$function@$$A6A_NPEADAEA_K_J@Z@std@@QEAA@XZ
	??1?$function@$$A6A_NV?$basic_string@DU?$char_traits@D@std@@V?$allocator@D@2@@std@@_J@Z@std@@QEAA@XZ
	??1?$function@$$A6A_N_J0000@Z@std@@QEAA@XZ
	??1?$future@VResponse@cpr@@@std@@QEAA@XZ
	??1?$insert_iterator@V?$unordered_set@V?$basic_string@DU?$char_traits@D@std@@V?$allocator@D@2@@std@@U?$hash@V?$basic_string@DU?$char_traits@D@std@@V?$allocator@D@2@@std@@@2@U?$equal_to@V?$basic_string@DU?$char_traits@D@std@@V?$allocator@D@2@@std@@@2@V?$allocator@V?$basic_string@DU?$char_traits@D@std@@V?$allocator@D@2@@std@@@2@@std@@@std@@QEAA@XZ
	??1?$list@UThreadData@ThreadPool@cpr@@V?$allocator@UThreadData@ThreadPool@cpr@@@std@@@std@@QEAA@XZ
	??1?$list@V?$basic_string@DU?$char_traits@D@std@@V?$allocator@D@2@@std@@V?$allocator@V?$basic_string@DU?$char_traits@D@std@@V?$allocator@D@2@@std@@@2@@std@@QEAA@XZ
	??1?$lock_guard@Vmutex@std@@@std@@QEAA@XZ
	??1?$map@V?$basic_string@DU?$char_traits@D@std@@V?$allocator@D@2@@std@@V12@U?$less@V?$basic_string@DU?$char_traits@D@std@@V?$allocator@D@2@@std@@@2@V?$allocator@U?$pair@$$CBV?$basic_string@DU?$char_traits@D@std@@V?$allocator@D@2@@std@@V12@@std@@@2@@std@@QEAA@XZ
	??1?$map@V?$basic_string@DU?$char_traits@D@std@@V?$allocator@D@2@@std@@V12@UCaseInsensitiveCompare@cpr@@V?$allocator@U?$pair@$$CBV?$basic_string@DU?$char_traits@D@std@@V?$allocator@D@2@@std@@V12@@std@@@2@@std@@QEAA@XZ
	??1?$map@V?$basic_string@DU?$char_traits@D@std@@V?$allocator@D@2@@std@@VEncodedAuthentication@cpr@@U?$less@V?$basic_string@DU?$char_traits@D@std@@V?$allocator@D@2@@std@@@2@V?$allocator@U?$pair@$$CBV?$basic_string@DU?$char_traits@D@std@@V?$allocator@D@2@@std@@VEncodedAuthentication@cpr@@@std@@@2@@std@@QEAA@XZ
	??1?$map@W4AcceptEncodingMethods@cpr@@V?$basic_string@DU?$char_traits@D@std@@V?$allocator@D@2@@std@@U?$less@W4AcceptEncodingMethods@cpr@@@4@V?$allocator@U?$pair@$$CBW4AcceptEncodingMethods@cpr@@V?$basic_string@DU?$char_traits@D@std@@V?$allocator@D@2@@std@@@std@@@4@@std@@QEAA@XZ
	??1?$packaged_task@$$A6A?AVResponse@cpr@@XZ@std@@QEAA@XZ
	??1?$pair@$$CBV?$basic_string@DU?$char_traits@D@std@@V?$allocator@D@2@@std@@V12@@std@@QEAA@XZ
	??1?$pair@$$CBV?$basic_string@DU?$char_traits@D@std@@V?$allocator@D@2@@std@@VEncodedAuthentication@cpr@@@std@@QEAA@XZ
	??1?$pair@$$CBW4AcceptEncodingMethods@cpr@@V?$basic_string@DU?$char_traits@D@std@@V?$allocator@D@2@@std@@@std@@QEAA@XZ
	??1?$pair@V?$_List_const_iterator@V?$_List_val@U?$_List_simple_types@V?$basic_string@DU?$char_traits@D@std@@V?$allocator@D@2@@std@@@std@@@std@@@std@@_N@std@@QEAA@XZ
	??1?$pair@V?$shared_ptr@VSession@cpr@@@std@@W4HttpMethod@MultiPerform@cpr@@@std@@QEAA@XZ
	??1?$queue@V?$function@$$A6AXXZ@std@@V?$deque@V?$function@$$A6AXXZ@std@@V?$allocator@V?$function@$$A6AXXZ@std@@@2@@2@@std@@QEAA@XZ
	??1?$queue@V?$shared_ptr@VInterceptor@cpr@@@std@@V?$deque@V?$shared_ptr@VInterceptor@cpr@@@std@@V?$allocator@V?$shared_ptr@VInterceptor@cpr@@@std@@@2@@2@@std@@QEAA@XZ
	??1?$queue@V?$shared_ptr@VInterceptorMulti@cpr@@@std@@V?$deque@V?$shared_ptr@VInterceptorMulti@cpr@@@std@@V?$allocator@V?$shared_ptr@VInterceptorMulti@cpr@@@std@@@2@@2@@std@@QEAA@XZ
	??1?$set@GU?$less@G@std@@V?$allocator@G@2@@std@@QEAA@XZ
	??1?$shared_ptr@U?$atomic@_N@std@@@std@@QEAA@XZ
	??1?$shared_ptr@UCurlHolder@cpr@@@std@@QEAA@XZ
	??1?$shared_ptr@V?$packaged_task@$$A6A?AVResponse@cpr@@XZ@std@@@std@@QEAA@XZ
	??1?$shared_ptr@VInterceptor@cpr@@@std@@QEAA@XZ
	??1?$shared_ptr@VInterceptorMulti@cpr@@@std@@QEAA@XZ
	??1?$shared_ptr@VSession@cpr@@@std@@QEAA@XZ
	??1?$shared_ptr@Vthread@std@@@std@@QEAA@XZ
	??1?$unique_lock@Vmutex@std@@@std@@QEAA@XZ
	??1?$unique_ptr@VCurlMultiHolder@cpr@@U?$default_delete@VCurlMultiHolder@cpr@@@std@@@std@@QEAA@XZ
	??1?$unique_ptr@V_Facet_base@std@@U?$default_delete@V_Facet_base@std@@@2@@std@@QEAA@XZ
	??1?$unordered_set@V?$basic_string@DU?$char_traits@D@std@@V?$allocator@D@2@@std@@U?$hash@V?$basic_string@DU?$char_traits@D@std@@V?$allocator@D@2@@std@@@2@U?$equal_to@V?$basic_string@DU?$char_traits@D@std@@V?$allocator@D@2@@std@@@2@V?$allocator@V?$basic_string@DU?$char_traits@D@std@@V?$allocator@D@2@@std@@@2@@std@@QEAA@XZ
	??1?$vector@U?$pair@V?$shared_ptr@VSession@cpr@@@std@@W4HttpMethod@MultiPerform@cpr@@@std@@V?$allocator@U?$pair@V?$shared_ptr@VSession@cpr@@@std@@W4HttpMethod@MultiPerform@cpr@@@std@@@2@@std@@QEAA@XZ
	??1?$vector@UFile@cpr@@V?$allocator@UFile@cpr@@@std@@@std@@QEAA@XZ
	??1?$vector@UParameter@cpr@@V?$allocator@UParameter@cpr@@@std@@@std@@QEAA@XZ
	??1?$vector@V?$basic_string@DU?$char_traits@D@std@@V?$allocator@D@2@@std@@V?$allocator@V?$basic_string@DU?$char_traits@D@std@@V?$allocator@D@2@@std@@@2@@std@@QEAA@XZ
	??1?$vector@VCertInfo@cpr@@V?$allocator@VCertInfo@cpr@@@std@@@std@@QEAA@XZ
	??1?$vector@VCookie@cpr@@V?$allocator@VCookie@cpr@@@std@@@std@@QEAA@XZ
	??1?$vector@VResolve@cpr@@V?$allocator@VResolve@cpr@@@std@@@std@@QEAA@XZ
	??1?$vector@VResponse@cpr@@V?$allocator@VResponse@cpr@@@std@@@std@@QEAA@XZ
	??1?$weak_ptr@VSession@cpr@@@std@@QEAA@XZ
	??1AcceptEncoding@cpr@@QEAA@XZ
	??1Authentication@cpr@@QEAA@XZ
	??1Bearer@cpr@@UEAA@XZ
	??1CancellationCallback@cpr@@QEAA@XZ
	??1CertInfo@cpr@@QEAA@XZ
	??1Cookie@cpr@@QEAA@XZ
	??1Cookies@cpr@@QEAA@XZ
	??1CurlHolder@cpr@@QEAA@XZ
	??1CurlMultiHolder@cpr@@QEAA@XZ
	??1DebugCallback@cpr@@QEAA@XZ
	??1EncodedAuthentication@cpr@@UEAA@XZ
	??1Error@cpr@@QEAA@XZ
	??1File@cpr@@QEAA@XZ
	??1Files@cpr@@QEAA@XZ
	??1GlobalThreadPool@cpr@@UEAA@XZ
	??1HeaderCallback@cpr@@QEAA@XZ
	??1MultiPerform@cpr@@QEAA@XZ
	??1Pair@cpr@@QEAA@XZ
	??1Parameter@cpr@@QEAA@XZ
	??1Parameters@cpr@@QEAA@XZ
	??1Part@cpr@@QEAA@XZ
	??1ProgressCallback@cpr@@QEAA@XZ
	??1Proxies@cpr@@QEAA@XZ
	??1ProxyAuthentication@cpr@@QEAA@XZ
	??1ReadCallback@cpr@@QEAA@XZ
	??1Resolve@cpr@@QEAA@XZ
	??1Response@cpr@@QEAA@XZ
	??1ThreadData@ThreadPool@cpr@@QEAA@XZ
	??1ThreadPool@cpr@@UEAA@XZ
	??1Url@cpr@@UEAA@XZ
	??1WriteCallback@cpr@@QEAA@XZ
	??1_Bxty@?$_String_val@U?$_Simple_types@D@std@@@std@@QEAA@XZ
	??1_Clear_guard@?$_Hash@V?$_Uset_traits@V?$basic_string@DU?$char_traits@D@std@@V?$allocator@D@2@@std@@V?$_Uhash_compare@V?$basic_string@DU?$char_traits@D@std@@V?$allocator@D@2@@std@@U?$hash@V?$basic_string@DU?$char_traits@D@std@@V?$allocator@D@2@@std@@@2@U?$equal_to@V?$basic_string@DU?$char_traits@D@std@@V?$allocator@D@2@@std@@@2@@2@V?$allocator@V?$basic_string@DU?$char_traits@D@std@@V?$allocator@D@2@@std@@@2@$0A@@std@@@std@@QEAA@XZ
	??1_Future_error_category2@std@@UEAA@XZ
	??1_Iterator_base12@std@@QEAA@XZ
	??1_Mutex_base@std@@QEAA@XZ
	??1_Range_eraser@?$_Hash@V?$_Uset_traits@V?$basic_string@DU?$char_traits@D@std@@V?$allocator@D@2@@std@@V?$_Uhash_compare@V?$basic_string@DU?$char_traits@D@std@@V?$allocator@D@2@@std@@U?$hash@V?$basic_string@DU?$char_traits@D@std@@V?$allocator@D@2@@std@@@2@U?$equal_to@V?$basic_string@DU?$char_traits@D@std@@V?$allocator@D@2@@std@@@2@@2@V?$allocator@V?$basic_string@DU?$char_traits@D@std@@V?$allocator@D@2@@std@@@2@$0A@@std@@@std@@QEAA@XZ
	??1_Ref_count_base@std@@UEAA@XZ
	??1_Sentry_base@?$basic_istream@DU?$char_traits@D@std@@@std@@QEAA@XZ
	??1_Sentry_base@?$basic_ostream@DU?$char_traits@D@std@@@std@@QEAA@XZ
	??1bad_alloc@std@@UEAA@XZ
	??1bad_array_new_length@std@@UEAA@XZ
	??1bad_cast@std@@UEAA@XZ
	??1bad_weak_ptr@std@@UEAA@XZ
	??1condition_variable@std@@QEAA@XZ
	??1error_category@std@@UEAA@XZ
	??1exception@std@@UEAA@XZ
	??1exception_ptr@std@@QEAA@XZ
	??1future_error@std@@UEAA@XZ
	??1invalid_argument@std@@UEAA@XZ
	??1locale@std@@QEAA@XZ
	??1logic_error@std@@UEAA@XZ
	??1mutex@std@@QEAA@XZ
	??1overflow_error@std@@UEAA@XZ
	??1runtime_error@std@@UEAA@XZ
	??1sentry@?$basic_istream@DU?$char_traits@D@std@@@std@@QEAA@XZ
	??1sentry@?$basic_ostream@DU?$char_traits@D@std@@@std@@QEAA@XZ
	??1thread@std@@QEAA@XZ
	??1underflow_error@std@@UEAA@XZ
	??2@YAPEAX_KPEAX@Z
	??4?$CurlContainer@UParameter@cpr@@@cpr@@QEAAAEAV01@$$QEAV01@@Z
	??4?$CurlContainer@UParameter@cpr@@@cpr@@QEAAAEAV01@AEBV01@@Z
	??4?$StringHolder@VUrl@cpr@@@cpr@@QEAAAEAV01@$$QEAV01@@Z
	??4?$StringHolder@VUrl@cpr@@@cpr@@QEAAAEAV01@AEBV01@@Z
	??4?$_Hash@V?$_Uset_traits@V?$basic_string@DU?$char_traits@D@std@@V?$allocator@D@2@@std@@V?$_Uhash_compare@V?$basic_string@DU?$char_traits@D@std@@V?$allocator@D@2@@std@@U?$hash@V?$basic_string@DU?$char_traits@D@std@@V?$allocator@D@2@@std@@@2@U?$equal_to@V?$basic_string@DU?$char_traits@D@std@@V?$allocator@D@2@@std@@@2@@2@V?$allocator@V?$basic_string@DU?$char_traits@D@std@@V?$allocator@D@2@@std@@@2@$0A@@std@@@std@@QEAAAEAV01@$$QEAV01@@Z
	??4?$_Hash@V?$_Uset_traits@V?$basic_string@DU?$char_traits@D@std@@V?$allocator@D@2@@std@@V?$_Uhash_compare@V?$basic_string@DU?$char_traits@D@std@@V?$allocator@D@2@@std@@U?$hash@V?$basic_string@DU?$char_traits@D@std@@V?$allocator@D@2@@std@@@2@U?$equal_to@V?$basic_string@DU?$char_traits@D@std@@V?$allocator@D@2@@std@@@2@@2@V?$allocator@V?$basic_string@DU?$char_traits@D@std@@V?$allocator@D@2@@std@@@2@$0A@@std@@@std@@QEAAAEAV01@AEBV01@@Z
	??4?$_List_const_iterator@V?$_List_val@U?$_List_simple_types@UThreadData@ThreadPool@cpr@@@std@@@std@@@std@@QEAAAEAV01@$$QEAV01@@Z
	??4?$_List_const_iterator@V?$_List_val@U?$_List_simple_types@V?$basic_string@DU?$char_traits@D@std@@V?$allocator@D@2@@std@@@std@@@std@@@std@@QEAAAEAV01@$$QEAV01@@Z
	??4?$_List_const_iterator@V?$_List_val@U?$_List_simple_types@V?$basic_string@DU?$char_traits@D@std@@V?$allocator@D@2@@std@@@std@@@std@@@std@@QEAAAEAV01@AEBV01@@Z
	??4?$_List_iterator@V?$_List_val@U?$_List_simple_types@UThreadData@ThreadPool@cpr@@@std@@@std@@@std@@QEAAAEAV01@$$QEAV01@@Z
	??4?$_List_unchecked_const_iterator@V?$_List_val@U?$_List_simple_types@UThreadData@ThreadPool@cpr@@@std@@@std@@U_Iterator_base12@2@@std@@QEAAAEAV01@$$QEAV01@@Z
	??4?$_List_unchecked_const_iterator@V?$_List_val@U?$_List_simple_types@V?$basic_string@DU?$char_traits@D@std@@V?$allocator@D@2@@std@@@std@@@std@@U_Iterator_base12@2@@std@@QEAAAEAV01@$$QEAV01@@Z
	??4?$_List_unchecked_const_iterator@V?$_List_val@U?$_List_simple_types@V?$basic_string@DU?$char_traits@D@std@@V?$allocator@D@2@@std@@@std@@@std@@U_Iterator_base12@2@@std@@QEAAAEAV01@AEBV01@@Z
	??4?$_Tree@V?$_Tmap_traits@V?$basic_string@DU?$char_traits@D@std@@V?$allocator@D@2@@std@@V12@U?$less@V?$basic_string@DU?$char_traits@D@std@@V?$allocator@D@2@@std@@@2@V?$allocator@U?$pair@$$CBV?$basic_string@DU?$char_traits@D@std@@V?$allocator@D@2@@std@@V12@@std@@@2@$0A@@std@@@std@@QEAAAEAV01@$$QEAV01@@Z
	??4?$_Tree@V?$_Tmap_traits@V?$basic_string@DU?$char_traits@D@std@@V?$allocator@D@2@@std@@V12@U?$less@V?$basic_string@DU?$char_traits@D@std@@V?$allocator@D@2@@std@@@2@V?$allocator@U?$pair@$$CBV?$basic_string@DU?$char_traits@D@std@@V?$allocator@D@2@@std@@V12@@std@@@2@$0A@@std@@@std@@QEAAAEAV01@AEBV01@@Z
	??4?$_Tree@V?$_Tmap_traits@V?$basic_string@DU?$char_traits@D@std@@V?$allocator@D@2@@std@@V12@UCaseInsensitiveCompare@cpr@@V?$allocator@U?$pair@$$CBV?$basic_string@DU?$char_traits@D@std@@V?$allocator@D@2@@std@@V12@@std@@@2@$0A@@std@@@std@@QEAAAEAV01@$$QEAV01@@Z
	??4?$_Tree@V?$_Tmap_traits@V?$basic_string@DU?$char_traits@D@std@@V?$allocator@D@2@@std@@V12@UCaseInsensitiveCompare@cpr@@V?$allocator@U?$pair@$$CBV?$basic_string@DU?$char_traits@D@std@@V?$allocator@D@2@@std@@V12@@std@@@2@$0A@@std@@@std@@QEAAAEAV01@AEBV01@@Z
	??4?$_Tree@V?$_Tmap_traits@V?$basic_string@DU?$char_traits@D@std@@V?$allocator@D@2@@std@@VEncodedAuthentication@cpr@@U?$less@V?$basic_string@DU?$char_traits@D@std@@V?$allocator@D@2@@std@@@2@V?$allocator@U?$pair@$$CBV?$basic_string@DU?$char_traits@D@std@@V?$allocator@D@2@@std@@VEncodedAuthentication@cpr@@@std@@@2@$0A@@std@@@std@@QEAAAEAV01@$$QEAV01@@Z
	??4?$_Tree@V?$_Tmap_traits@V?$basic_string@DU?$char_traits@D@std@@V?$allocator@D@2@@std@@VEncodedAuthentication@cpr@@U?$less@V?$basic_string@DU?$char_traits@D@std@@V?$allocator@D@2@@std@@@2@V?$allocator@U?$pair@$$CBV?$basic_string@DU?$char_traits@D@std@@V?$allocator@D@2@@std@@VEncodedAuthentication@cpr@@@std@@@2@$0A@@std@@@std@@QEAAAEAV01@AEBV01@@Z
	??4?$atomic@W4Status@ThreadPool@cpr@@@std@@QEAA?AW4Status@ThreadPool@cpr@@W4234@@Z
	??4?$atomic@_K@std@@QEAA_K_K@Z
	??4?$back_insert_iterator@V?$vector@UPair@cpr@@V?$allocator@UPair@cpr@@@std@@@std@@@std@@QEAAAEAV01@$$QEAUPair@cpr@@@Z
	??4?$back_insert_iterator@V?$vector@UParameter@cpr@@V?$allocator@UParameter@cpr@@@std@@@std@@@std@@QEAAAEAV01@$$QEAUParameter@cpr@@@Z
	??4?$basic_string@DU?$char_traits@D@std@@V?$allocator@D@2@@std@@QEAAAEAV01@$$QEAV01@@Z
	??4?$basic_string@DU?$char_traits@D@std@@V?$allocator@D@2@@std@@QEAAAEAV01@AEBV01@@Z
	??4?$function@$$A6AXW4InfoType@DebugCallback@cpr@@V?$basic_string@DU?$char_traits@D@std@@V?$allocator@D@2@@std@@_J@Z@std@@QEAAAEAV01@AEBV01@@Z
	??4?$function@$$A6AXXZ@std@@QEAAAEAV01@$$QEAV01@@Z
	??4?$function@$$A6A_NPEADAEA_K_J@Z@std@@QEAAAEAV01@AEBV01@@Z
	??4?$function@$$A6A_NV?$basic_string@DU?$char_traits@D@std@@V?$allocator@D@2@@std@@_J@Z@std@@QEAAAEAV01@AEBV01@@Z
	??4?$function@$$A6A_N_J0000@Z@std@@QEAAAEAV01@AEBV01@@Z
	??4?$insert_iterator@V?$unordered_set@V?$basic_string@DU?$char_traits@D@std@@V?$allocator@D@2@@std@@U?$hash@V?$basic_string@DU?$char_traits@D@std@@V?$allocator@D@2@@std@@@2@U?$equal_to@V?$basic_string@DU?$char_traits@D@std@@V?$allocator@D@2@@std@@@2@V?$allocator@V?$basic_string@DU?$char_traits@D@std@@V?$allocator@D@2@@std@@@2@@std@@@std@@QEAAAEAV01@$$QEAV?$basic_string@DU?$char_traits@D@std@@V?$allocator@D@2@@1@@Z
	??4?$insert_iterator@V?$unordered_set@V?$basic_string@DU?$char_traits@D@std@@V?$allocator@D@2@@std@@U?$hash@V?$basic_string@DU?$char_traits@D@std@@V?$allocator@D@2@@std@@@2@U?$equal_to@V?$basic_string@DU?$char_traits@D@std@@V?$allocator@D@2@@std@@@2@V?$allocator@V?$basic_string@DU?$char_traits@D@std@@V?$allocator@D@2@@std@@@2@@std@@@std@@QEAAAEAV01@AEBV01@@Z
	??4?$map@V?$basic_string@DU?$char_traits@D@std@@V?$allocator@D@2@@std@@V12@U?$less@V?$basic_string@DU?$char_traits@D@std@@V?$allocator@D@2@@std@@@2@V?$allocator@U?$pair@$$CBV?$basic_string@DU?$char_traits@D@std@@V?$allocator@D@2@@std@@V12@@std@@@2@@std@@QEAAAEAV01@$$QEAV01@@Z
	??4?$map@V?$basic_string@DU?$char_traits@D@std@@V?$allocator@D@2@@std@@V12@U?$less@V?$basic_string@DU?$char_traits@D@std@@V?$allocator@D@2@@std@@@2@V?$allocator@U?$pair@$$CBV?$basic_string@DU?$char_traits@D@std@@V?$allocator@D@2@@std@@V12@@std@@@2@@std@@QEAAAEAV01@AEBV01@@Z
	??4?$map@V?$basic_string@DU?$char_traits@D@std@@V?$allocator@D@2@@std@@V12@UCaseInsensitiveCompare@cpr@@V?$allocator@U?$pair@$$CBV?$basic_string@DU?$char_traits@D@std@@V?$allocator@D@2@@std@@V12@@std@@@2@@std@@QEAAAEAV01@$$QEAV01@@Z
	??4?$map@V?$basic_string@DU?$char_traits@D@std@@V?$allocator@D@2@@std@@V12@UCaseInsensitiveCompare@cpr@@V?$allocator@U?$pair@$$CBV?$basic_string@DU?$char_traits@D@std@@V?$allocator@D@2@@std@@V12@@std@@@2@@std@@QEAAAEAV01@AEBV01@@Z
	??4?$map@V?$basic_string@DU?$char_traits@D@std@@V?$allocator@D@2@@std@@VEncodedAuthentication@cpr@@U?$less@V?$basic_string@DU?$char_traits@D@std@@V?$allocator@D@2@@std@@@2@V?$allocator@U?$pair@$$CBV?$basic_string@DU?$char_traits@D@std@@V?$allocator@D@2@@std@@VEncodedAuthentication@cpr@@@std@@@2@@std@@QEAAAEAV01@$$QEAV01@@Z
	??4?$map@V?$basic_string@DU?$char_traits@D@std@@V?$allocator@D@2@@std@@VEncodedAuthentication@cpr@@U?$less@V?$basic_string@DU?$char_traits@D@std@@V?$allocator@D@2@@std@@@2@V?$allocator@U?$pair@$$CBV?$basic_string@DU?$char_traits@D@std@@V?$allocator@D@2@@std@@VEncodedAuthentication@cpr@@@std@@@2@@std@@QEAAAEAV01@AEBV01@@Z
	??4?$shared_ptr@U?$atomic@_N@std@@@std@@QEAAAEAV01@$$QEAV01@@Z
	??4?$shared_ptr@UCurlHolder@cpr@@@std@@QEAAAEAV01@$$QEAV01@@Z
	??4?$shared_ptr@VSession@cpr@@@std@@QEAAAEAV01@$$QEAV01@@Z
	??4?$shared_ptr@Vthread@std@@@std@@QEAAAEAV01@$$QEAV01@@Z
	??4?$unordered_set@V?$basic_string@DU?$char_traits@D@std@@V?$allocator@D@2@@std@@U?$hash@V?$basic_string@DU?$char_traits@D@std@@V?$allocator@D@2@@std@@@2@U?$equal_to@V?$basic_string@DU?$char_traits@D@std@@V?$allocator@D@2@@std@@@2@V?$allocator@V?$basic_string@DU?$char_traits@D@std@@V?$allocator@D@2@@std@@@2@@std@@QEAAAEAV01@$$QEAV01@@Z
	??4?$unordered_set@V?$basic_string@DU?$char_traits@D@std@@V?$allocator@D@2@@std@@U?$hash@V?$basic_string@DU?$char_traits@D@std@@V?$allocator@D@2@@std@@@2@U?$equal_to@V?$basic_string@DU?$char_traits@D@std@@V?$allocator@D@2@@std@@@2@V?$allocator@V?$basic_string@DU?$char_traits@D@std@@V?$allocator@D@2@@std@@@2@@std@@QEAAAEAV01@AEBV01@@Z
	??4?$vector@UFile@cpr@@V?$allocator@UFile@cpr@@@std@@@std@@QEAAAEAV01@$$QEAV01@@Z
	??4?$vector@UFile@cpr@@V?$allocator@UFile@cpr@@@std@@@std@@QEAAAEAV01@AEBV01@@Z
	??4?$vector@UParameter@cpr@@V?$allocator@UParameter@cpr@@@std@@@std@@QEAAAEAV01@$$QEAV01@@Z
	??4?$vector@UParameter@cpr@@V?$allocator@UParameter@cpr@@@std@@@std@@QEAAAEAV01@AEBV01@@Z
	??4?$vector@VCookie@cpr@@V?$allocator@VCookie@cpr@@@std@@@std@@QEAAAEAV01@$$QEAV01@@Z
	??4AcceptEncoding@cpr@@QEAAAEAV01@$$QEAV01@@Z
	??4AcceptEncoding@cpr@@QEAAAEAV01@AEBV01@@Z
	??4CancellationCallback@cpr@@QEAAAEAV01@$$QEAV01@@Z
	??4Cookies@cpr@@QEAAAEAV01@$$QEAV01@@Z
	??4DebugCallback@cpr@@QEAAAEAV01@AEBV01@@Z
	??4Error@cpr@@QEAAAEAV01@$$QEAV01@@Z
	??4File@cpr@@QEAAAEAU01@AEBU01@@Z
	??4Files@cpr@@QEAAAEAV01@$$QEAV01@@Z
	??4Files@cpr@@QEAAAEAV01@AEBV01@@Z
	??4HeaderCallback@cpr@@QEAAAEAV01@AEBV01@@Z
	??4Parameter@cpr@@QEAAAEAU01@AEBU01@@Z
	??4Parameters@cpr@@QEAAAEAV01@$$QEAV01@@Z
	??4Parameters@cpr@@QEAAAEAV01@AEBV01@@Z
	??4ProgressCallback@cpr@@QEAAAEAV01@AEBV01@@Z
	??4Proxies@cpr@@QEAAAEAV01@$$QEAV01@@Z
	??4Proxies@cpr@@QEAAAEAV01@AEBV01@@Z
	??4ProxyAuthentication@cpr@@QEAAAEAV01@$$QEAV01@@Z
	??4ProxyAuthentication@cpr@@QEAAAEAV01@AEBV01@@Z
	??4ReadCallback@cpr@@QEAAAEAV01@AEBV01@@Z
	??4Response@cpr@@QEAAAEAV01@$$QEAV01@@Z
	??4Url@cpr@@QEAAAEAV01@$$QEAV01@@Z
	??4Url@cpr@@QEAAAEAV01@AEBV01@@Z
	??4WriteCallback@cpr@@QEAAAEAV01@AEBV01@@Z
	??4_Iterator_base12@std@@QEAAAEAU01@AEBU01@@Z
	??4exception_ptr@std@@QEAAAEAV01@AEBV01@@Z
	??8?$_List_const_iterator@V?$_List_val@U?$_List_simple_types@UThreadData@ThreadPool@cpr@@@std@@@std@@@std@@QEBA_NAEBV01@@Z
	??8?$_List_const_iterator@V?$_List_val@U?$_List_simple_types@V?$basic_string@DU?$char_traits@D@std@@V?$allocator@D@2@@std@@@std@@@std@@@std@@QEBA_NAEBV01@@Z
	??8?$_List_unchecked_const_iterator@V?$_List_val@U?$_List_simple_types@UThreadData@ThreadPool@cpr@@@std@@@std@@U_Iterator_base0@2@@std@@QEBA_NAEBV01@@Z
	??8?$_List_unchecked_const_iterator@V?$_List_val@U?$_List_simple_types@V?$basic_string@DU?$char_traits@D@std@@V?$allocator@D@2@@std@@@std@@@std@@U_Iterator_base0@2@@std@@QEBA_NAEBV01@@Z
	??8?$_Tree_const_iterator@V?$_Tree_val@U?$_Tree_simple_types@U?$pair@$$CBV?$basic_string@DU?$char_traits@D@std@@V?$allocator@D@2@@std@@V12@@std@@@std@@@std@@@std@@QEBA_NAEBV01@@Z
	??8?$_Vector_const_iterator@V?$_Vector_val@U?$_Simple_types@U?$pair@V?$shared_ptr@VSession@cpr@@@std@@W4HttpMethod@MultiPerform@cpr@@@std@@@std@@@std@@@std@@QEBA_NAEBV01@@Z
	??8?$_Vector_const_iterator@V?$_Vector_val@U?$_Simple_types@UFile@cpr@@@std@@@std@@@std@@QEBA_NAEBV01@@Z
	??8error_category@std@@QEBA_NAEBV01@@Z
	??8std@@YA_NAEBVerror_condition@0@0@Z
	??8std@@YA_NAEBVexception_ptr@0@$$T@Z
	??8std@@YA_NVid@thread@0@0@Z
	??9?$_List_const_iterator@V?$_List_val@U?$_List_simple_types@UThreadData@ThreadPool@cpr@@@std@@@std@@@std@@QEBA_NAEBV01@@Z
	??9?$_List_const_iterator@V?$_List_val@U?$_List_simple_types@V?$basic_string@DU?$char_traits@D@std@@V?$allocator@D@2@@std@@@std@@@std@@@std@@QEBA_NAEBV01@@Z
	??9?$_List_unchecked_const_iterator@V?$_List_val@U?$_List_simple_types@UThreadData@ThreadPool@cpr@@@std@@@std@@U_Iterator_base0@2@@std@@QEBA_NAEBV01@@Z
	??9?$_List_unchecked_const_iterator@V?$_List_val@U?$_List_simple_types@V?$basic_string@DU?$char_traits@D@std@@V?$allocator@D@2@@std@@@std@@@std@@U_Iterator_base0@2@@std@@QEBA_NAEBV01@@Z
	??9?$_Tree_unchecked_const_iterator@V?$_Tree_val@U?$_Tree_simple_types@G@std@@@std@@U_Iterator_base0@2@@std@@QEBA_NU_Default_sentinel@1@@Z
	??9?$_Tree_unchecked_const_iterator@V?$_Tree_val@U?$_Tree_simple_types@U?$pair@$$CBV?$basic_string@DU?$char_traits@D@std@@V?$allocator@D@2@@std@@V12@@std@@@std@@@std@@U_Iterator_base0@2@@std@@QEBA_NU_Default_sentinel@1@@Z
	??9?$_Vector_const_iterator@V?$_Vector_val@U?$_Simple_types@UFile@cpr@@@std@@@std@@@std@@QEBA_NAEBV01@@Z
	??9std@@YA_NAEBVexception_ptr@0@$$T@Z
	??A?$array@D$0BAA@@std@@QEAAAEAD_K@Z
	??A?$basic_string@DU?$char_traits@D@std@@V?$allocator@D@2@@std@@QEAAAEAD_K@Z
	??A?$map@V?$basic_string@DU?$char_traits@D@std@@V?$allocator@D@2@@std@@V12@U?$less@V?$basic_string@DU?$char_traits@D@std@@V?$allocator@D@2@@std@@@2@V?$allocator@U?$pair@$$CBV?$basic_string@DU?$char_traits@D@std@@V?$allocator@D@2@@std@@V12@@std@@@2@@std@@QEAAAEAV?$basic_string@DU?$char_traits@D@std@@V?$allocator@D@2@@1@AEBV21@@Z
	??A?$map@V?$basic_string@DU?$char_traits@D@std@@V?$allocator@D@2@@std@@V12@UCaseInsensitiveCompare@cpr@@V?$allocator@U?$pair@$$CBV?$basic_string@DU?$char_traits@D@std@@V?$allocator@D@2@@std@@V12@@std@@@2@@std@@QEAAAEAV?$basic_string@DU?$char_traits@D@std@@V?$allocator@D@2@@1@$$QEAV21@@Z
	??A?$map@V?$basic_string@DU?$char_traits@D@std@@V?$allocator@D@2@@std@@V12@UCaseInsensitiveCompare@cpr@@V?$allocator@U?$pair@$$CBV?$basic_string@DU?$char_traits@D@std@@V?$allocator@D@2@@std@@V12@@std@@@2@@std@@QEAAAEAV?$basic_string@DU?$char_traits@D@std@@V?$allocator@D@2@@1@AEBV21@@Z
	??A?$map@V?$basic_string@DU?$char_traits@D@std@@V?$allocator@D@2@@std@@VEncodedAuthentication@cpr@@U?$less@V?$basic_string@DU?$char_traits@D@std@@V?$allocator@D@2@@std@@@2@V?$allocator@U?$pair@$$CBV?$basic_string@DU?$char_traits@D@std@@V?$allocator@D@2@@std@@VEncodedAuthentication@cpr@@@std@@@2@@std@@QEAAAEAVEncodedAuthentication@cpr@@AEBV?$basic_string@DU?$char_traits@D@std@@V?$allocator@D@2@@1@@Z
	??A?$vector@U?$pair@V?$shared_ptr@VSession@cpr@@@std@@W4HttpMethod@MultiPerform@cpr@@@std@@V?$allocator@U?$pair@V?$shared_ptr@VSession@cpr@@@std@@W4HttpMethod@MultiPerform@cpr@@@std@@@2@@std@@QEAAAEAU?$pair@V?$shared_ptr@VSession@cpr@@@std@@W4HttpMethod@MultiPerform@cpr@@@1@_K@Z
	??A?$vector@V?$basic_string@DU?$char_traits@D@std@@V?$allocator@D@2@@std@@V?$allocator@V?$basic_string@DU?$char_traits@D@std@@V?$allocator@D@2@@std@@@2@@std@@QEAAAEAV?$basic_string@DU?$char_traits@D@std@@V?$allocator@D@2@@1@_K@Z
	??A?$vector@VCookie@cpr@@V?$allocator@VCookie@cpr@@@std@@@std@@QEAAAEAVCookie@cpr@@_K@Z
	??ACertInfo@cpr@@QEAAAEAV?$basic_string@DU?$char_traits@D@std@@V?$allocator@D@2@@std@@AEB_K@Z
	??ACookies@cpr@@QEAAAEAVCookie@1@_K@Z
	??AProxies@cpr@@QEAAAEBV?$basic_string@DU?$char_traits@D@std@@V?$allocator@D@2@@std@@AEBV23@@Z
	??AProxyAuthentication@cpr@@QEAAPEBDAEBV?$basic_string@DU?$char_traits@D@std@@V?$allocator@D@2@@std@@@Z
	??B?$atomic@W4Status@ThreadPool@cpr@@@std@@QEBA?AW4Status@ThreadPool@cpr@@XZ
	??B?$atomic@_K@std@@QEBA_KXZ
	??B?$fpos@U_Mbstatet@@@std@@QEBA_JXZ
	??B?$function@$$A6AXXZ@std@@QEBA_NXZ
	??B?$function@$$A6A_NPEADAEA_K_J@Z@std@@QEBA_NXZ
	??B?$function@$$A6A_NV?$basic_string@DU?$char_traits@D@std@@V?$allocator@D@2@@std@@_J@Z@std@@QEBA_NXZ
	??B?$optional@V?$reference_wrapper@VProgressCallback@cpr@@@std@@@std@@QEBA_NXZ
	??B?$shared_ptr@UCurlHolder@cpr@@@std@@QEBA_NXZ
	??BVerifySsl@cpr@@QEBA_NXZ
	??Bexception_ptr@std@@QEBA_NXZ
	??Bsentry@?$basic_istream@DU?$char_traits@D@std@@@std@@QEBA_NXZ
	??Bsentry@?$basic_ostream@DU?$char_traits@D@std@@@std@@QEBA_NXZ
	??C?$_List_iterator@V?$_List_val@U?$_List_simple_types@UThreadData@ThreadPool@cpr@@@std@@@std@@@std@@QEBAPEAUThreadData@ThreadPool@cpr@@XZ
	??C?$unique_ptr@VCurlMultiHolder@cpr@@U?$default_delete@VCurlMultiHolder@cpr@@@std@@@std@@QEBAPEAVCurlMultiHolder@cpr@@XZ
	??D?$_Deque_unchecked_const_iterator@V?$_Deque_val@U?$_Deque_simple_types@V?$function@$$A6AXXZ@std@@@std@@@std@@@std@@QEBAAEBV?$function@$$A6AXXZ@1@XZ
	??D?$_Deque_unchecked_const_iterator@V?$_Deque_val@U?$_Deque_simple_types@V?$shared_ptr@VInterceptor@cpr@@@std@@@std@@@std@@@std@@QEBAAEBV?$shared_ptr@VInterceptor@cpr@@@1@XZ
	??D?$_Deque_unchecked_const_iterator@V?$_Deque_val@U?$_Deque_simple_types@V?$shared_ptr@VInterceptorMulti@cpr@@@std@@@std@@@std@@@std@@QEBAAEBV?$shared_ptr@VInterceptorMulti@cpr@@@1@XZ
	??D?$_Deque_unchecked_iterator@V?$_Deque_val@U?$_Deque_simple_types@V?$function@$$A6AXXZ@std@@@std@@@std@@@std@@QEBAAEAV?$function@$$A6AXXZ@1@XZ
	??D?$_Deque_unchecked_iterator@V?$_Deque_val@U?$_Deque_simple_types@V?$shared_ptr@VInterceptor@cpr@@@std@@@std@@@std@@@std@@QEBAAEAV?$shared_ptr@VInterceptor@cpr@@@1@XZ
	??D?$_Deque_unchecked_iterator@V?$_Deque_val@U?$_Deque_simple_types@V?$shared_ptr@VInterceptorMulti@cpr@@@std@@@std@@@std@@@std@@QEBAAEAV?$shared_ptr@VInterceptorMulti@cpr@@@1@XZ
	??D?$_List_const_iterator@V?$_List_val@U?$_List_simple_types@UThreadData@ThreadPool@cpr@@@std@@@std@@@std@@QEBAAEBUThreadData@ThreadPool@cpr@@XZ
	??D?$_List_const_iterator@V?$_List_val@U?$_List_simple_types@V?$basic_string@DU?$char_traits@D@std@@V?$allocator@D@2@@std@@@std@@@std@@@std@@QEBAAEBV?$basic_string@DU?$char_traits@D@std@@V?$allocator@D@2@@1@XZ
	??D?$_List_iterator@V?$_List_val@U?$_List_simple_types@UThreadData@ThreadPool@cpr@@@std@@@std@@@std@@QEBAAEAUThreadData@ThreadPool@cpr@@XZ
	??D?$_List_unchecked_const_iterator@V?$_List_val@U?$_List_simple_types@UThreadData@ThreadPool@cpr@@@std@@@std@@U_Iterator_base0@2@@std@@QEBAAEBUThreadData@ThreadPool@cpr@@XZ
	??D?$_List_unchecked_const_iterator@V?$_List_val@U?$_List_simple_types@V?$basic_string@DU?$char_traits@D@std@@V?$allocator@D@2@@std@@@std@@@std@@U_Iterator_base0@2@@std@@QEBAAEBV?$basic_string@DU?$char_traits@D@std@@V?$allocator@D@2@@1@XZ
	??D?$_List_unchecked_iterator@V?$_List_val@U?$_List_simple_types@UThreadData@ThreadPool@cpr@@@std@@@std@@@std@@QEBAAEAUThreadData@ThreadPool@cpr@@XZ
	??D?$_Optional_construct_base@V?$reference_wrapper@VProgressCallback@cpr@@@std@@@std@@QEGBAAEBV?$reference_wrapper@VProgressCallback@cpr@@@1@XZ
	??D?$_Tree_unchecked_const_iterator@V?$_Tree_val@U?$_Tree_simple_types@G@std@@@std@@U_Iterator_base0@2@@std@@QEBAAEBGXZ
	??D?$_Tree_unchecked_const_iterator@V?$_Tree_val@U?$_Tree_simple_types@U?$pair@$$CBV?$basic_string@DU?$char_traits@D@std@@V?$allocator@D@2@@std@@V12@@std@@@std@@@std@@U_Iterator_base0@2@@std@@QEBAAEBU?$pair@$$CBV?$basic_string@DU?$char_traits@D@std@@V?$allocator@D@2@@std@@V12@@1@XZ
	??D?$_Tree_unchecked_iterator@V?$_Tree_val@U?$_Tree_simple_types@U?$pair@$$CBV?$basic_string@DU?$char_traits@D@std@@V?$allocator@D@2@@std@@V12@@std@@@std@@@std@@@std@@QEBAAEAU?$pair@$$CBV?$basic_string@DU?$char_traits@D@std@@V?$allocator@D@2@@std@@V12@@1@XZ
	??D?$_Vector_const_iterator@V?$_Vector_val@U?$_Simple_types@U?$pair@V?$shared_ptr@VSession@cpr@@@std@@W4HttpMethod@MultiPerform@cpr@@@std@@@std@@@std@@@std@@QEBAAEBU?$pair@V?$shared_ptr@VSession@cpr@@@std@@W4HttpMethod@MultiPerform@cpr@@@1@XZ
	??D?$_Vector_const_iterator@V?$_Vector_val@U?$_Simple_types@UFile@cpr@@@std@@@std@@@std@@QEBAAEBUFile@cpr@@XZ
	??D?$_Vector_const_iterator@V?$_Vector_val@U?$_Simple_types@VResponse@cpr@@@std@@@std@@@std@@QEBAAEBVResponse@cpr@@XZ
	??D?$_Vector_iterator@V?$_Vector_val@U?$_Simple_types@U?$pair@V?$shared_ptr@VSession@cpr@@@std@@W4HttpMethod@MultiPerform@cpr@@@std@@@std@@@std@@@std@@QEBAAEAU?$pair@V?$shared_ptr@VSession@cpr@@@std@@W4HttpMethod@MultiPerform@cpr@@@1@XZ
	??D?$_Vector_iterator@V?$_Vector_val@U?$_Simple_types@VResponse@cpr@@@std@@@std@@@std@@QEBAAEAVResponse@cpr@@XZ
	??D?$back_insert_iterator@V?$vector@UPair@cpr@@V?$allocator@UPair@cpr@@@std@@@std@@@std@@QEAAAEAV01@XZ
	??D?$back_insert_iterator@V?$vector@UParameter@cpr@@V?$allocator@UParameter@cpr@@@std@@@std@@@std@@QEAAAEAV01@XZ
	??D?$insert_iterator@V?$unordered_set@V?$basic_string@DU?$char_traits@D@std@@V?$allocator@D@2@@std@@U?$hash@V?$basic_string@DU?$char_traits@D@std@@V?$allocator@D@2@@std@@@2@U?$equal_to@V?$basic_string@DU?$char_traits@D@std@@V?$allocator@D@2@@std@@@2@V?$allocator@V?$basic_string@DU?$char_traits@D@std@@V?$allocator@D@2@@std@@@2@@std@@@std@@QEAAAEAV01@XZ
	??E?$_Atomic_integral@_K$07@std@@QEAA_KXZ
	??E?$_List_const_iterator@V?$_List_val@U?$_List_simple_types@UThreadData@ThreadPool@cpr@@@std@@@std@@@std@@QEAAAEAV01@XZ
	??E?$_List_const_iterator@V?$_List_val@U?$_List_simple_types@V?$basic_string@DU?$char_traits@D@std@@V?$allocator@D@2@@std@@@std@@@std@@@std@@QEAAAEAV01@XZ
	??E?$_List_iterator@V?$_List_val@U?$_List_simple_types@UThreadData@ThreadPool@cpr@@@std@@@std@@@std@@QEAAAEAV01@XZ
	??E?$_List_unchecked_const_iterator@V?$_List_val@U?$_List_simple_types@UThreadData@ThreadPool@cpr@@@std@@@std@@U_Iterator_base0@2@@std@@QEAAAEAV01@XZ
	??E?$_List_unchecked_const_iterator@V?$_List_val@U?$_List_simple_types@V?$basic_string@DU?$char_traits@D@std@@V?$allocator@D@2@@std@@@std@@@std@@U_Iterator_base0@2@@std@@QEAAAEAV01@XZ
	??E?$_List_unchecked_iterator@V?$_List_val@U?$_List_simple_types@UThreadData@ThreadPool@cpr@@@std@@@std@@@std@@QEAAAEAV01@XZ
	??E?$_Tree_unchecked_const_iterator@V?$_Tree_val@U?$_Tree_simple_types@G@std@@@std@@U_Iterator_base0@2@@std@@QEAAAEAV01@XZ
	??E?$_Tree_unchecked_const_iterator@V?$_Tree_val@U?$_Tree_simple_types@U?$pair@$$CBV?$basic_string@DU?$char_traits@D@std@@V?$allocator@D@2@@std@@V12@@std@@@std@@@std@@U_Iterator_base0@2@@std@@QEAAAEAV01@XZ
	??E?$_Tree_unchecked_const_iterator@V?$_Tree_val@U?$_Tree_simple_types@U?$pair@$$CBW4AcceptEncodingMethods@cpr@@V?$basic_string@DU?$char_traits@D@std@@V?$allocator@D@2@@std@@@std@@@std@@@std@@U_Iterator_base0@2@@std@@QEAAAEAV01@XZ
	??E?$_Tree_unchecked_iterator@V?$_Tree_val@U?$_Tree_simple_types@U?$pair@$$CBV?$basic_string@DU?$char_traits@D@std@@V?$allocator@D@2@@std@@V12@@std@@@std@@@std@@@std@@QEAAAEAV01@XZ
	??E?$_Vector_const_iterator@V?$_Vector_val@U?$_Simple_types@UFile@cpr@@@std@@@std@@@std@@QEAAAEAV01@XZ
	??E?$back_insert_iterator@V?$vector@UPair@cpr@@V?$allocator@UPair@cpr@@@std@@@std@@@std@@QEAAAEAV01@XZ
	??E?$back_insert_iterator@V?$vector@UParameter@cpr@@V?$allocator@UParameter@cpr@@@std@@@std@@@std@@QEAAAEAV01@XZ
	??E?$insert_iterator@V?$unordered_set@V?$basic_string@DU?$char_traits@D@std@@V?$allocator@D@2@@std@@U?$hash@V?$basic_string@DU?$char_traits@D@std@@V?$allocator@D@2@@std@@@2@U?$equal_to@V?$basic_string@DU?$char_traits@D@std@@V?$allocator@D@2@@std@@@2@V?$allocator@V?$basic_string@DU?$char_traits@D@std@@V?$allocator@D@2@@std@@@2@@std@@@std@@QEAAAEAV01@XZ
	??F?$_Atomic_integral@_K$07@std@@QEAA_KXZ
	??F?$_Deque_unchecked_const_iterator@V?$_Deque_val@U?$_Deque_simple_types@V?$function@$$A6AXXZ@std@@@std@@@std@@@std@@QEAAAEAV01@XZ
	??F?$_Deque_unchecked_iterator@V?$_Deque_val@U?$_Deque_simple_types@V?$function@$$A6AXXZ@std@@@std@@@std@@@std@@QEAAAEAV01@XZ
	??F?$_List_const_iterator@V?$_List_val@U?$_List_simple_types@V?$basic_string@DU?$char_traits@D@std@@V?$allocator@D@2@@std@@@std@@@std@@@std@@QEAAAEAV01@XZ
	??F?$_List_unchecked_const_iterator@V?$_List_val@U?$_List_simple_types@V?$basic_string@DU?$char_traits@D@std@@V?$allocator@D@2@@std@@@std@@@std@@U_Iterator_base0@2@@std@@QEAAAEAV01@XZ
	??F?$_Tree_unchecked_const_iterator@V?$_Tree_val@U?$_Tree_simple_types@U?$pair@$$CBV?$basic_string@DU?$char_traits@D@std@@V?$allocator@D@2@@std@@V12@@std@@@std@@@std@@U_Iterator_base0@2@@std@@QEAAAEAV01@XZ
	??F?$_Tree_unchecked_const_iterator@V?$_Tree_val@U?$_Tree_simple_types@U?$pair@$$CBW4AcceptEncodingMethods@cpr@@V?$basic_string@DU?$char_traits@D@std@@V?$allocator@D@2@@std@@@std@@@std@@@std@@U_Iterator_base0@2@@std@@QEAAAEAV01@XZ
	??H?$StringHolder@VUrl@cpr@@@cpr@@QEBA?AVUrl@1@AEBV?$basic_string@DU?$char_traits@D@std@@V?$allocator@D@2@@std@@@Z
	??H?$StringHolder@VUrl@cpr@@@cpr@@QEBA?AVUrl@1@PEBD@Z
	??Icpr@@YA?AW4PostRedirectFlags@0@W410@0@Z
	??R<lambda_319d5e083f45f90dcdce5dce53cbb275>@@QEBA@QEADQEBD_KD@Z
	??R<lambda_4208477ec92b050ac68c36e087bc7382>@@QEBA@AEBUPair@cpr@@@Z
	??R<lambda_65e615be2a453ca0576c979606f46740>@@QEBA@QEADQEBD_K12@Z
	??R<lambda_66f57f934f28d61049862f64df852ff0>@@QEBA@QEAD_KQEBD@Z
	??R<lambda_8fe359263d7c8380db28e128f5237e27>@@QEBA@AEBUParameter@cpr@@@Z
	??R<lambda_9013ee9e23efe4882b67eff5b0ecf103>@@QEBA@QEADQEBD_K@Z
	??R<lambda_e1befb086ad3257e3f042a63030725f7>@@QEBA@QEADQEBD_K2D@Z
	??R<lambda_f3a66ab6a0570788f31503db83886f49>@@QEBA@QEADQEBD_K212@Z
	??R?$_Conditionally_enabled_hash@V?$basic_string@DU?$char_traits@D@std@@V?$allocator@D@2@@std@@$00@std@@QEBA_KAEBV?$basic_string@DU?$char_traits@D@std@@V?$allocator@D@2@@1@@Z
	??R?$_Func_class@VResponse@cpr@@$$V@std@@QEBA?AVResponse@cpr@@XZ
	??R?$_Func_class@VResponse@cpr@@AEAVSession@2@W4CURLcode@@@std@@QEBA?AVResponse@cpr@@AEAVSession@3@W4CURLcode@@@Z
	??R?$_Func_class@X$$V@std@@QEBAXXZ
	??R?$_Func_class@XW4InfoType@DebugCallback@cpr@@V?$basic_string@DU?$char_traits@D@std@@V?$allocator@D@2@@std@@_J@std@@QEBAXW4InfoType@DebugCallback@cpr@@V?$basic_string@DU?$char_traits@D@std@@V?$allocator@D@2@@1@_J@Z
	??R?$_Func_class@_NPEADAEA_K_J@std@@QEBA_NPEADAEA_K_J@Z
	??R?$_Func_class@_NV?$basic_string@DU?$char_traits@D@std@@V?$allocator@D@2@@std@@_J@std@@QEBA_NV?$basic_string@DU?$char_traits@D@std@@V?$allocator@D@2@@1@_J@Z
	??R?$_Func_class@_N_J_J_J_J_J@std@@QEBA_N_J0000@Z
	??R?$default_delete@VCurlMultiHolder@cpr@@@std@@QEBAXPEAVCurlMultiHolder@cpr@@@Z
	??R?$default_delete@V_Facet_base@std@@@std@@QEBAXPEAV_Facet_base@1@@Z
	??R?$equal_to@V?$basic_string@DU?$char_traits@D@std@@V?$allocator@D@2@@std@@@std@@QEBA_NAEBV?$basic_string@DU?$char_traits@D@std@@V?$allocator@D@2@@1@0@Z
	??R?$less@V?$basic_string@DU?$char_traits@D@std@@V?$allocator@D@2@@std@@@std@@QEBA_NAEBV?$basic_string@DU?$char_traits@D@std@@V?$allocator@D@2@@1@0@Z
	??R?$less@W4AcceptEncodingMethods@cpr@@@std@@QEBA_NAEBW4AcceptEncodingMethods@cpr@@0@Z
	??R?$packaged_task@$$A6A?AVResponse@cpr@@XZ@std@@QEAAXXZ
	??RCancellationCallback@cpr@@QEBA_N_J000@Z
	??RCaseInsensitiveCompare@cpr@@QEBA_NAEBV?$basic_string@DU?$char_traits@D@std@@V?$allocator@D@2@@std@@0@Z
	??RDebugCallback@cpr@@QEBAXW4InfoType@01@V?$basic_string@DU?$char_traits@D@std@@V?$allocator@D@2@@std@@@Z
	??RHeaderCallback@cpr@@QEBA_NV?$basic_string@DU?$char_traits@D@std@@V?$allocator@D@2@@std@@@Z
	??RProgressCallback@cpr@@QEBA_N_J000@Z
	??RReadCallback@cpr@@QEBA_NPEADAEA_K@Z
	??RWriteCallback@cpr@@QEBA_NV?$basic_string@DU?$char_traits@D@std@@V?$allocator@D@2@@std@@@Z
	??Scpr@@YA?AW4PostRedirectFlags@0@W410@@Z
	??Tcpr@@YA?AW4PostRedirectFlags@0@W410@0@Z
	??Ucpr@@YA?AW4PostRedirectFlags@0@W410@0@Z
	??Y?$basic_string@DU?$char_traits@D@std@@V?$allocator@D@2@@std@@QEAAAEAV01@AEBV01@@Z
	??Y?$basic_string@DU?$char_traits@D@std@@V?$allocator@D@2@@std@@QEAAAEAV01@D@Z
	??Y?$basic_string@DU?$char_traits@D@std@@V?$allocator@D@2@@std@@QEAAAEAV01@QEBD@Z
	??Y?$duration@_JU?$ratio@$00$0DLJKMKAA@@std@@@chrono@std@@QEAAAEAV012@AEBV012@@Z
	??Y?$time_point@Usteady_clock@chrono@std@@V?$duration@_JU?$ratio@$00$0DLJKMKAA@@std@@@23@@chrono@std@@QEAAAEAV012@AEBV?$duration@_JU?$ratio@$00$0DLJKMKAA@@std@@@12@@Z
	??Z?$duration@_JU?$ratio@$00$0DLJKMKAA@@std@@@chrono@std@@QEAAAEAV012@AEBV012@@Z
	??_4cpr@@YAAEAW4PostRedirectFlags@0@AEAW410@W410@@Z
	??_5cpr@@YAAEAW4PostRedirectFlags@0@AEAW410@W410@@Z
	??_6cpr@@YAAEAW4PostRedirectFlags@0@AEAW410@W410@@Z
	??_7?$StringHolder@VUrl@cpr@@@cpr@@6B@
	??_7?$_Associated_state@VResponse@cpr@@@std@@6B@
	??_7?$_Packaged_state@$$A6A?AVResponse@cpr@@XZ@std@@6B@
	??_7?$_Ref_count@UCurlHolder@cpr@@@std@@6B@
	??_7?$_Ref_count@Vthread@std@@@std@@6B@
	??_7?$_Ref_count_obj2@V?$packaged_task@$$A6A?AVResponse@cpr@@XZ@std@@@std@@6B@
	??_7?$basic_istringstream@DU?$char_traits@D@std@@V?$allocator@D@2@@std@@6B@
	??_7?$basic_stringbuf@DU?$char_traits@D@std@@V?$allocator@D@2@@std@@6B@
	??_7?$basic_stringstream@DU?$char_traits@D@std@@V?$allocator@D@2@@std@@6B@
	??_7Bearer@cpr@@6B@
	??_7EncodedAuthentication@cpr@@6B@
	??_7GlobalThreadPool@cpr@@6B@
	??_7ThreadPool@cpr@@6B@
	??_7Url@cpr@@6B@
	??_7_Future_error_category2@std@@6B@
	??_7bad_alloc@std@@6B@
	??_7bad_array_new_length@std@@6B@
	??_7bad_cast@std@@6B@
	??_7bad_weak_ptr@std@@6B@
	??_7exception@std@@6B@
	??_7future_error@std@@6B@
	??_7invalid_argument@std@@6B@
	??_7logic_error@std@@6B@
	??_7overflow_error@std@@6B@
	??_7runtime_error@std@@6B@
	??_7underflow_error@std@@6B@
	??_D?$basic_istringstream@DU?$char_traits@D@std@@V?$allocator@D@2@@std@@QEAAXXZ
	??_D?$basic_stringstream@DU?$char_traits@D@std@@V?$allocator@D@2@@std@@QEAAXXZ
	??__Fcurl_easy_init_mutex_@?1??curl_easy_init_mutex_@CurlHolder@cpr@@CAAEAVmutex@std@@XZ@YAXXZ
	?Add@?$CurlContainer@UPair@cpr@@@cpr@@QEAAXAEBUPair@2@@Z
	?Add@?$CurlContainer@UPair@cpr@@@cpr@@QEAAXAEBV?$initializer_list@UPair@cpr@@@std@@@Z
	?Add@?$CurlContainer@UParameter@cpr@@@cpr@@QEAAXAEBUParameter@2@@Z
	?Add@?$CurlContainer@UParameter@cpr@@@cpr@@QEAAXAEBV?$initializer_list@UParameter@cpr@@@std@@@Z
	?AddInterceptor@MultiPerform@cpr@@QEAAXAEBV?$shared_ptr@VInterceptorMulti@cpr@@@std@@@Z
	?AddInterceptor@Session@cpr@@QEAAXAEBV?$shared_ptr@VInterceptor@cpr@@@std@@@Z
	?AddSession@MultiPerform@cpr@@QEAAXAEAV?$shared_ptr@VSession@cpr@@@std@@W4HttpMethod@12@@Z
	?AddThread@ThreadPool@cpr@@AEAAXPEAVthread@std@@@Z
	?Complete@Session@cpr@@QEAA?AVResponse@2@W4CURLcode@@@Z
	?CompleteDownload@Session@cpr@@QEAA?AVResponse@2@W4CURLcode@@@Z
	?CreateThread@ThreadPool@cpr@@AEAA_NXZ
	?DelThread@ThreadPool@cpr@@AEAAXVid@thread@std@@@Z
	?Delete@MultiPerform@cpr@@QEAA?AV?$vector@VResponse@cpr@@V?$allocator@VResponse@cpr@@@std@@@std@@XZ
	?Delete@Session@cpr@@QEAA?AVResponse@2@XZ
	?DeleteAsync@Session@cpr@@QEAA?AV?$AsyncWrapper@VResponse@cpr@@$0A@@2@XZ
	?DoEasyPerform@Session@cpr@@AEAA?AW4CURLcode@@XZ
	?DoMultiPerform@MultiPerform@cpr@@AEAAXXZ
	?Download@Session@cpr@@QEAA?AVResponse@2@AEAV?$basic_ofstream@DU?$char_traits@D@std@@@std@@@Z
	?Download@Session@cpr@@QEAA?AVResponse@2@AEBVWriteCallback@2@@Z
	?DownloadAsync@Session@cpr@@QEAA?AV?$AsyncWrapper@VResponse@cpr@@$0A@@2@AEAV?$basic_ofstream@DU?$char_traits@D@std@@@std@@@Z
	?DownloadAsync@Session@cpr@@QEAA?AV?$AsyncWrapper@VResponse@cpr@@$0A@@2@AEBVWriteCallback@2@@Z
	?ExitInstance@GlobalThreadPool@cpr@@SAXXZ
	?Get@MultiPerform@cpr@@QEAA?AV?$vector@VResponse@cpr@@V?$allocator@VResponse@cpr@@@std@@@std@@XZ
	?Get@Session@cpr@@QEAA?AVResponse@2@XZ
	?GetAsync@Session@cpr@@QEAA?AV?$AsyncWrapper@VResponse@cpr@@$0A@@2@XZ
	?GetAuthMode@Authentication@cpr@@QEBA?AW4AuthMode@2@XZ
	?GetAuthString@Authentication@cpr@@QEBAPEBDXZ
	?GetAuthString@EncodedAuthentication@cpr@@QEBAPEBDXZ
	?GetCertInfos@Response@cpr@@QEAA?AV?$vector@VCertInfo@cpr@@V?$allocator@VCertInfo@cpr@@@std@@@std@@XZ
	?GetContent@?$CurlContainer@UPair@cpr@@@cpr@@QEBA?BV?$basic_string@DU?$char_traits@D@std@@V?$allocator@D@2@@std@@AEBUCurlHolder@2@@Z
	?GetContent@?$CurlContainer@UParameter@cpr@@@cpr@@QEBA?BV?$basic_string@DU?$char_traits@D@std@@V?$allocator@D@2@@std@@AEBUCurlHolder@2@@Z
	?GetCurlHolder@Session@cpr@@QEAA?AV?$shared_ptr@UCurlHolder@cpr@@@std@@XZ
	?GetDomain@Cookie@cpr@@QEBA?BV?$basic_string@DU?$char_traits@D@std@@V?$allocator@D@2@@std@@XZ
	?GetDownloadFileLength@Session@cpr@@QEAA_JXZ
	?GetEncoded@Cookies@cpr@@QEBA?BV?$basic_string@DU?$char_traits@D@std@@V?$allocator@D@2@@std@@AEBUCurlHolder@2@@Z
	?GetExpires@Cookie@cpr@@QEBA?BV?$time_point@Usystem_clock@chrono@std@@V?$duration@_JU?$ratio@$00$0JIJGIA@@std@@@23@@chrono@std@@XZ
	?GetExpiresString@Cookie@cpr@@QEBA?BV?$basic_string@DU?$char_traits@D@std@@V?$allocator@D@2@@std@@XZ
	?GetFullRequestUrl@Session@cpr@@QEAA?AV?$basic_string@DU?$char_traits@D@std@@V?$allocator@D@2@@std@@XZ
	?GetInstance@GlobalThreadPool@cpr@@SAPEAV12@XZ
	?GetName@Cookie@cpr@@QEBA?BV?$basic_string@DU?$char_traits@D@std@@V?$allocator@D@2@@std@@XZ
	?GetPath@Cookie@cpr@@QEBA?BV?$basic_string@DU?$char_traits@D@std@@V?$allocator@D@2@@std@@XZ
	?GetSessions@MultiPerform@cpr@@QEAAAEAV?$vector@U?$pair@V?$shared_ptr@VSession@cpr@@@std@@W4HttpMethod@MultiPerform@cpr@@@std@@V?$allocator@U?$pair@V?$shared_ptr@VSession@cpr@@@std@@W4HttpMethod@MultiPerform@cpr@@@std@@@2@@std@@XZ
	?GetSessions@MultiPerform@cpr@@QEBAAEBV?$vector@U?$pair@V?$shared_ptr@VSession@cpr@@@std@@W4HttpMethod@MultiPerform@cpr@@@std@@V?$allocator@U?$pair@V?$shared_ptr@VSession@cpr@@@std@@W4HttpMethod@MultiPerform@cpr@@@std@@@2@@std@@XZ
	?GetSharedPtrFromThis@Session@cpr@@AEAA?AV?$shared_ptr@VSession@cpr@@@std@@XZ
	?GetToken@Bearer@cpr@@UEBAPEBDXZ
	?GetUnixSocketString@UnixSocket@cpr@@QEBAPEBDXZ
	?GetValue@Cookie@cpr@@QEBA?BV?$basic_string@DU?$char_traits@D@std@@V?$allocator@D@2@@std@@XZ
	?Head@MultiPerform@cpr@@QEAA?AV?$vector@VResponse@cpr@@V?$allocator@VResponse@cpr@@@std@@@std@@XZ
	?Head@Session@cpr@@QEAA?AVResponse@2@XZ
	?HeadAsync@Session@cpr@@QEAA?AV?$AsyncWrapper@VResponse@cpr@@$0A@@2@XZ
	?IsHttpsOnly@Cookie@cpr@@QEBA_NXZ
	?IsIncludingSubdomains@Cookie@cpr@@QEBA_NXZ
	?MakeDownloadRequest@MultiPerform@cpr@@AEAA?AV?$vector@VResponse@cpr@@V?$allocator@VResponse@cpr@@@std@@@std@@XZ
	?MakeRequest@MultiPerform@cpr@@AEAA?AV?$vector@VResponse@cpr@@V?$allocator@VResponse@cpr@@@std@@@std@@XZ
	?Milliseconds@Timeout@cpr@@QEBAJXZ
	?Options@MultiPerform@cpr@@QEAA?AV?$vector@VResponse@cpr@@V?$allocator@VResponse@cpr@@@std@@@std@@XZ
	?Options@Session@cpr@@QEAA?AVResponse@2@XZ
	?OptionsAsync@Session@cpr@@QEAA?AV?$AsyncWrapper@VResponse@cpr@@$0A@@2@XZ
	?Patch@MultiPerform@cpr@@QEAA?AV?$vector@VResponse@cpr@@V?$allocator@VResponse@cpr@@@std@@@std@@XZ
	?Patch@Session@cpr@@QEAA?AVResponse@2@XZ
	?PatchAsync@Session@cpr@@QEAA?AV?$AsyncWrapper@VResponse@cpr@@$0A@@2@XZ
	?Pause@ThreadPool@cpr@@QEAAHXZ
	?Perform@MultiPerform@cpr@@QEAA?AV?$vector@VResponse@cpr@@V?$allocator@VResponse@cpr@@@std@@@std@@XZ
	?Post@MultiPerform@cpr@@QEAA?AV?$vector@VResponse@cpr@@V?$allocator@VResponse@cpr@@@std@@@std@@XZ
	?Post@Session@cpr@@QEAA?AVResponse@2@XZ
	?PostAsync@Session@cpr@@QEAA?AV?$AsyncWrapper@VResponse@cpr@@$0A@@2@XZ
	?PrepareDelete@MultiPerform@cpr@@AEAAXXZ
	?PrepareDelete@Session@cpr@@QEAAXXZ
	?PrepareDownload@Session@cpr@@QEAAXAEAV?$basic_ofstream@DU?$char_traits@D@std@@@std@@@Z
	?PrepareDownload@Session@cpr@@QEAAXAEBVWriteCallback@2@@Z
	?PrepareDownloadSession@InterceptorMulti@cpr@@KAXAEAVMultiPerform@2@_KAEBVWriteCallback@2@@Z
	?PrepareDownloadSession@MultiPerform@cpr@@AEAAX_KAEAV?$basic_ofstream@DU?$char_traits@D@std@@@std@@@Z
	?PrepareDownloadSession@MultiPerform@cpr@@AEAAX_KAEBVWriteCallback@2@@Z
	?PrepareGet@MultiPerform@cpr@@AEAAXXZ
	?PrepareGet@Session@cpr@@QEAAXXZ
	?PrepareHead@MultiPerform@cpr@@AEAAXXZ
	?PrepareHead@Session@cpr@@QEAAXXZ
	?PrepareOptions@MultiPerform@cpr@@AEAAXXZ
	?PrepareOptions@Session@cpr@@QEAAXXZ
	?PreparePatch@MultiPerform@cpr@@AEAAXXZ
	?PreparePatch@Session@cpr@@QEAAXXZ
	?PreparePost@MultiPerform@cpr@@AEAAXXZ
	?PreparePost@Session@cpr@@QEAAXXZ
	?PreparePut@MultiPerform@cpr@@AEAAXXZ
	?PreparePut@Session@cpr@@QEAAXXZ
	?PrepareSessions@MultiPerform@cpr@@AEAAXXZ
	?Put@MultiPerform@cpr@@QEAA?AV?$vector@VResponse@cpr@@V?$allocator@VResponse@cpr@@@std@@@std@@XZ
	?Put@Session@cpr@@QEAA?AVResponse@2@XZ
	?PutAsync@Session@cpr@@QEAA?AV?$AsyncWrapper@VResponse@cpr@@$0A@@2@XZ
	?ReadMultiInfo@MultiPerform@cpr@@AEAA?AV?$vector@VResponse@cpr@@V?$allocator@VResponse@cpr@@@std@@@std@@$$QEAV?$function@$$A6A?AVResponse@cpr@@AEAVSession@2@W4CURLcode@@@Z@4@@Z
	?RemoveSession@MultiPerform@cpr@@QEAAXAEBV?$shared_ptr@VSession@cpr@@@std@@@Z
	?ResponseStringReserve@Session@cpr@@QEAAX_K@Z
	?Resume@ThreadPool@cpr@@QEAAHXZ
	?SetAcceptEncoding@Session@cpr@@QEAAX$$QEAVAcceptEncoding@2@@Z
	?SetAcceptEncoding@Session@cpr@@QEAAXAEBVAcceptEncoding@2@@Z
	?SetAuth@Session@cpr@@QEAAXAEBVAuthentication@2@@Z
	?SetBearer@Session@cpr@@QEAAXAEBVBearer@2@@Z
	?SetBody@Session@cpr@@QEAAX$$QEAVBody@2@@Z
	?SetBody@Session@cpr@@QEAAXAEBVBody@2@@Z
	?SetCancellationParam@Session@cpr@@QEAAXV?$shared_ptr@U?$atomic@_N@std@@@std@@@Z
	?SetConnectTimeout@Session@cpr@@QEAAXAEBVConnectTimeout@2@@Z
	?SetCookies@Session@cpr@@QEAAXAEBVCookies@2@@Z
	?SetDebugCallback@Session@cpr@@QEAAXAEBVDebugCallback@2@@Z
	?SetHeader@Session@cpr@@QEAAXAEBV?$map@V?$basic_string@DU?$char_traits@D@std@@V?$allocator@D@2@@std@@V12@UCaseInsensitiveCompare@cpr@@V?$allocator@U?$pair@$$CBV?$basic_string@DU?$char_traits@D@std@@V?$allocator@D@2@@std@@V12@@std@@@2@@std@@@Z
	?SetHeaderCallback@Session@cpr@@QEAAXAEBVHeaderCallback@2@@Z
	?SetHeaderInternal@Session@cpr@@AEAAXXZ
	?SetHttpMethod@MultiPerform@cpr@@AEAAXW4HttpMethod@12@@Z
	?SetHttpVersion@Session@cpr@@QEAAXAEBVHttpVersion@2@@Z
	?SetInterface@Session@cpr@@QEAAXAEBVInterface@2@@Z
	?SetLimitRate@Session@cpr@@QEAAXAEBVLimitRate@2@@Z
	?SetLocalPort@Session@cpr@@QEAAXAEBVLocalPort@2@@Z
	?SetLocalPortRange@Session@cpr@@QEAAXAEBVLocalPortRange@2@@Z
	?SetLowSpeed@Session@cpr@@QEAAXAEBVLowSpeed@2@@Z
	?SetMultiRange@Session@cpr@@QEAAXAEBVMultiRange@2@@Z
	?SetMultipart@Session@cpr@@QEAAX$$QEAVMultipart@2@@Z
	?SetMultipart@Session@cpr@@QEAAXAEBVMultipart@2@@Z
	?SetOption@Session@cpr@@QEAAX$$QEAVAcceptEncoding@2@@Z
	?SetOption@Session@cpr@@QEAAX$$QEAVBody@2@@Z
	?SetOption@Session@cpr@@QEAAX$$QEAVMultipart@2@@Z
	?SetOption@Session@cpr@@QEAAX$$QEAVParameters@2@@Z
	?SetOption@Session@cpr@@QEAAX$$QEAVPayload@2@@Z
	?SetOption@Session@cpr@@QEAAX$$QEAVProxies@2@@Z
	?SetOption@Session@cpr@@QEAAX$$QEAVProxyAuthentication@2@@Z
	?SetOption@Session@cpr@@QEAAXAEBUSslOptions@2@@Z
	?SetOption@Session@cpr@@QEAAXAEBV?$map@V?$basic_string@DU?$char_traits@D@std@@V?$allocator@D@2@@std@@V12@UCaseInsensitiveCompare@cpr@@V?$allocator@U?$pair@$$CBV?$basic_string@DU?$char_traits@D@std@@V?$allocator@D@2@@std@@V12@@std@@@2@@std@@@Z
	?SetOption@Session@cpr@@QEAAXAEBV?$vector@VResolve@cpr@@V?$allocator@VResolve@cpr@@@std@@@std@@@Z
	?SetOption@Session@cpr@@QEAAXAEBVAcceptEncoding@2@@Z
	?SetOption@Session@cpr@@QEAAXAEBVAuthentication@2@@Z
	?SetOption@Session@cpr@@QEAAXAEBVBearer@2@@Z
	?SetOption@Session@cpr@@QEAAXAEBVBody@2@@Z
	?SetOption@Session@cpr@@QEAAXAEBVConnectTimeout@2@@Z
	?SetOption@Session@cpr@@QEAAXAEBVCookies@2@@Z
	?SetOption@Session@cpr@@QEAAXAEBVDebugCallback@2@@Z
	?SetOption@Session@cpr@@QEAAXAEBVHeaderCallback@2@@Z
	?SetOption@Session@cpr@@QEAAXAEBVHttpVersion@2@@Z
	?SetOption@Session@cpr@@QEAAXAEBVInterface@2@@Z
	?SetOption@Session@cpr@@QEAAXAEBVLimitRate@2@@Z
	?SetOption@Session@cpr@@QEAAXAEBVLocalPort@2@@Z
	?SetOption@Session@cpr@@QEAAXAEBVLocalPortRange@2@@Z
	?SetOption@Session@cpr@@QEAAXAEBVLowSpeed@2@@Z
	?SetOption@Session@cpr@@QEAAXAEBVMultiRange@2@@Z
	?SetOption@Session@cpr@@QEAAXAEBVMultipart@2@@Z
	?SetOption@Session@cpr@@QEAAXAEBVParameters@2@@Z
	?SetOption@Session@cpr@@QEAAXAEBVPayload@2@@Z
	?SetOption@Session@cpr@@QEAAXAEBVProgressCallback@2@@Z
	?SetOption@Session@cpr@@QEAAXAEBVProxies@2@@Z
	?SetOption@Session@cpr@@QEAAXAEBVProxyAuthentication@2@@Z
	?SetOption@Session@cpr@@QEAAXAEBVRange@2@@Z
	?SetOption@Session@cpr@@QEAAXAEBVReadCallback@2@@Z
	?SetOption@Session@cpr@@QEAAXAEBVRedirect@2@@Z
	?SetOption@Session@cpr@@QEAAXAEBVReserveSize@2@@Z
	?SetOption@Session@cpr@@QEAAXAEBVResolve@2@@Z
	?SetOption@Session@cpr@@QEAAXAEBVTimeout@2@@Z
	?SetOption@Session@cpr@@QEAAXAEBVUnixSocket@2@@Z
	?SetOption@Session@cpr@@QEAAXAEBVUrl@2@@Z
	?SetOption@Session@cpr@@QEAAXAEBVUserAgent@2@@Z
	?SetOption@Session@cpr@@QEAAXAEBVVerbose@2@@Z
	?SetOption@Session@cpr@@QEAAXAEBVVerifySsl@2@@Z
	?SetOption@Session@cpr@@QEAAXAEBVWriteCallback@2@@Z
	?SetParameters@Session@cpr@@QEAAX$$QEAVParameters@2@@Z
	?SetParameters@Session@cpr@@QEAAXAEBVParameters@2@@Z
	?SetPayload@Session@cpr@@QEAAX$$QEAVPayload@2@@Z
	?SetPayload@Session@cpr@@QEAAXAEBVPayload@2@@Z
	?SetProgressCallback@CancellationCallback@cpr@@QEAAXAEAVProgressCallback@2@@Z
	?SetProgressCallback@Session@cpr@@QEAAXAEBVProgressCallback@2@@Z
	?SetProxies@Session@cpr@@QEAAX$$QEAVProxies@2@@Z
	?SetProxies@Session@cpr@@QEAAXAEBVProxies@2@@Z
	?SetProxyAuth@Session@cpr@@QEAAX$$QEAVProxyAuthentication@2@@Z
	?SetProxyAuth@Session@cpr@@QEAAXAEBVProxyAuthentication@2@@Z
	?SetRange@Session@cpr@@QEAAXAEBVRange@2@@Z
	?SetReadCallback@Session@cpr@@QEAAXAEBVReadCallback@2@@Z
	?SetRedirect@Session@cpr@@QEAAXAEBVRedirect@2@@Z
	?SetReserveSize@Session@cpr@@QEAAXAEBVReserveSize@2@@Z
	?SetResolve@Session@cpr@@QEAAXAEBVResolve@2@@Z
	?SetResolves@Session@cpr@@QEAAXAEBV?$vector@VResolve@cpr@@V?$allocator@VResolve@cpr@@@std@@@std@@@Z
	?SetSslOptions@Session@cpr@@QEAAXAEBUSslOptions@2@@Z
	?SetTimeout@Session@cpr@@QEAAXAEBVTimeout@2@@Z
	?SetUnixSocket@Session@cpr@@QEAAXAEBVUnixSocket@2@@Z
	?SetUrl@Session@cpr@@QEAAXAEBVUrl@2@@Z
	?SetUserAgent@Session@cpr@@QEAAXAEBVUserAgent@2@@Z
	?SetVerbose@Session@cpr@@QEAAXAEBVVerbose@2@@Z
	?SetVerifySsl@Session@cpr@@QEAAXAEBVVerifySsl@2@@Z
	?SetWriteCallback@Session@cpr@@QEAAXAEBVWriteCallback@2@@Z
	?Start@ThreadPool@cpr@@QEAAH_K@Z
	?Stop@ThreadPool@cpr@@QEAAHXZ
	?UpdateHeader@Session@cpr@@QEAAXAEBV?$map@V?$basic_string@DU?$char_traits@D@std@@V?$allocator@D@2@@std@@V12@UCaseInsensitiveCompare@cpr@@V?$allocator@U?$pair@$$CBV?$basic_string@DU?$char_traits@D@std@@V?$allocator@D@2@@std@@V12@@std@@@2@@std@@@Z
	?Wait@ThreadPool@cpr@@QEAAHXZ
	?_Abandon@?$_Associated_state@VResponse@cpr@@@std@@QEAAXXZ
	?_Abandon@?$_State_manager@VResponse@cpr@@@std@@QEAAXXZ
	?_Activate_SSO_buffer@?$_String_val@U?$_Simple_types@D@std@@@std@@QEAAXXZ
	?_Adjust_manually_vector_aligned@std@@YAXAEAPEAXAEA_K@Z
	?_Adopt@_Iterator_base0@std@@QEAAXPEBX@Z
	?_Adopt@_Iterator_base12@std@@QEAAXPEBU_Container_base12@2@@Z
	?_Adopt_locked@_Iterator_base12@std@@AEAAXPEBU_Container_base12@2@@Z
	?_Adopt_unlocked@_Iterator_base12@std@@AEAAXPEBU_Container_base12@2@@Z
	?_Alloc_sentinel_and_proxy@?$_Tree@V?$_Tmap_traits@V?$basic_string@DU?$char_traits@D@std@@V?$allocator@D@2@@std@@V12@U?$less@V?$basic_string@DU?$char_traits@D@std@@V?$allocator@D@2@@std@@@2@V?$allocator@U?$pair@$$CBV?$basic_string@DU?$char_traits@D@std@@V?$allocator@D@2@@std@@V12@@std@@@2@$0A@@std@@@std@@IEAAXXZ
	?_Alloc_sentinel_and_proxy@?$_Tree@V?$_Tmap_traits@V?$basic_string@DU?$char_traits@D@std@@V?$allocator@D@2@@std@@V12@UCaseInsensitiveCompare@cpr@@V?$allocator@U?$pair@$$CBV?$basic_string@DU?$char_traits@D@std@@V?$allocator@D@2@@std@@V12@@std@@@2@$0A@@std@@@std@@IEAAXXZ
	?_Alloc_sentinel_and_proxy@?$_Tree@V?$_Tmap_traits@V?$basic_string@DU?$char_traits@D@std@@V?$allocator@D@2@@std@@VEncodedAuthentication@cpr@@U?$less@V?$basic_string@DU?$char_traits@D@std@@V?$allocator@D@2@@std@@@2@V?$allocator@U?$pair@$$CBV?$basic_string@DU?$char_traits@D@std@@V?$allocator@D@2@@std@@VEncodedAuthentication@cpr@@@std@@@2@$0A@@std@@@std@@IEAAXXZ
	?_Alloc_sentinel_and_proxy@?$_Tree@V?$_Tmap_traits@W4AcceptEncodingMethods@cpr@@V?$basic_string@DU?$char_traits@D@std@@V?$allocator@D@2@@std@@U?$less@W4AcceptEncodingMethods@cpr@@@4@V?$allocator@U?$pair@$$CBW4AcceptEncodingMethods@cpr@@V?$basic_string@DU?$char_traits@D@std@@V?$allocator@D@2@@std@@@std@@@4@$0A@@std@@@std@@IEAAXXZ
	?_Alloc_sentinel_and_proxy@?$list@UThreadData@ThreadPool@cpr@@V?$allocator@UThreadData@ThreadPool@cpr@@@std@@@std@@AEAAXXZ
	?_Alloc_sentinel_and_proxy@?$list@V?$basic_string@DU?$char_traits@D@std@@V?$allocator@D@2@@std@@V?$allocator@V?$basic_string@DU?$char_traits@D@std@@V?$allocator@D@2@@std@@@2@@std@@AEAAXXZ
	?_Allocate@?$_Alloc_construct_ptr@V?$allocator@U?$_List_node@UThreadData@ThreadPool@cpr@@PEAX@std@@@std@@@std@@QEAAXXZ
	?_Allocate@?$_Alloc_construct_ptr@V?$allocator@U?$_List_node@V?$basic_string@DU?$char_traits@D@std@@V?$allocator@D@2@@std@@PEAX@std@@@std@@@std@@QEAAXXZ
	?_Allocate@?$_Alloc_construct_ptr@V?$allocator@U?$_Tree_node@GPEAX@std@@@std@@@std@@QEAAXXZ
	?_Allocate@?$_Alloc_construct_ptr@V?$allocator@U?$_Tree_node@U?$pair@$$CBV?$basic_string@DU?$char_traits@D@std@@V?$allocator@D@2@@std@@V12@@std@@PEAX@std@@@std@@@std@@QEAAXXZ
	?_Allocate@?$_Alloc_construct_ptr@V?$allocator@U?$_Tree_node@U?$pair@$$CBV?$basic_string@DU?$char_traits@D@std@@V?$allocator@D@2@@std@@VEncodedAuthentication@cpr@@@std@@PEAX@std@@@std@@@std@@QEAAXXZ
	?_Allocate@?$_Alloc_construct_ptr@V?$allocator@U?$_Tree_node@U?$pair@$$CBW4AcceptEncodingMethods@cpr@@V?$basic_string@DU?$char_traits@D@std@@V?$allocator@D@2@@std@@@std@@PEAX@std@@@std@@@std@@QEAAXXZ
	?_Allocate@_Default_allocate_traits@std@@SAPEAX_K@Z
	?_Already_has_stored_result@?$_Associated_state@VResponse@cpr@@@std@@QEBA_NXZ
	?_Already_retrieved@?$_Associated_state@VResponse@cpr@@@std@@QEBA_NXZ
	?_Assign_grow@?$_Hash_vec@V?$allocator@V?$_List_unchecked_const_iterator@V?$_List_val@U?$_List_simple_types@V?$basic_string@DU?$char_traits@D@std@@V?$allocator@D@2@@std@@@std@@@std@@U_Iterator_base0@2@@std@@@std@@@std@@QEAAX_KV?$_List_unchecked_const_iterator@V?$_List_val@U?$_List_simple_types@V?$basic_string@DU?$char_traits@D@std@@V?$allocator@D@2@@std@@@std@@@std@@U_Iterator_base0@2@@2@@Z
	?_Assign_locked@_Iterator_base12@std@@AEAAXAEBU12@@Z
	?_Assign_unlocked@_Iterator_base12@std@@AEAAXAEBU12@@Z
	?_Become_small@?$basic_string@DU?$char_traits@D@std@@V?$allocator@D@2@@std@@AEAAXXZ
	?_Bump_erased@_Range_eraser@?$_Hash@V?$_Uset_traits@V?$basic_string@DU?$char_traits@D@std@@V?$allocator@D@2@@std@@V?$_Uhash_compare@V?$basic_string@DU?$char_traits@D@std@@V?$allocator@D@2@@std@@U?$hash@V?$basic_string@DU?$char_traits@D@std@@V?$allocator@D@2@@std@@@2@U?$equal_to@V?$basic_string@DU?$char_traits@D@std@@V?$allocator@D@2@@std@@@2@@2@V?$allocator@V?$basic_string@DU?$char_traits@D@std@@V?$allocator@D@2@@std@@@2@$0A@@std@@@std@@QEAAXXZ
	?_Buy_nonzero@?$vector@UFile@cpr@@V?$allocator@UFile@cpr@@@std@@@std@@AEAAX_K@Z
	?_Buy_nonzero@?$vector@UPair@cpr@@V?$allocator@UPair@cpr@@@std@@@std@@AEAAX_K@Z
	?_Buy_nonzero@?$vector@UParameter@cpr@@V?$allocator@UParameter@cpr@@@std@@@std@@AEAAX_K@Z
	?_Buy_nonzero@?$vector@UPart@cpr@@V?$allocator@UPart@cpr@@@std@@@std@@AEAAX_K@Z
	?_Buy_nonzero@?$vector@V?$basic_string@DU?$char_traits@D@std@@V?$allocator@D@2@@std@@V?$allocator@V?$basic_string@DU?$char_traits@D@std@@V?$allocator@D@2@@std@@@2@@std@@AEAAX_K@Z
	?_Buy_nonzero@?$vector@VCookie@cpr@@V?$allocator@VCookie@cpr@@@std@@@std@@AEAAX_K@Z
	?_Buy_nonzero@?$vector@VResolve@cpr@@V?$allocator@VResolve@cpr@@@std@@@std@@AEAAX_K@Z
	?_Buy_raw@?$vector@UFile@cpr@@V?$allocator@UFile@cpr@@@std@@@std@@AEAAX_K@Z
	?_Buy_raw@?$vector@UPair@cpr@@V?$allocator@UPair@cpr@@@std@@@std@@AEAAX_K@Z
	?_Buy_raw@?$vector@UParameter@cpr@@V?$allocator@UParameter@cpr@@@std@@@std@@AEAAX_K@Z
	?_Buy_raw@?$vector@UPart@cpr@@V?$allocator@UPart@cpr@@@std@@@std@@AEAAX_K@Z
	?_Buy_raw@?$vector@V?$basic_string@DU?$char_traits@D@std@@V?$allocator@D@2@@std@@V?$allocator@V?$basic_string@DU?$char_traits@D@std@@V?$allocator@D@2@@std@@@2@@std@@AEAAX_K@Z
	?_Buy_raw@?$vector@VCookie@cpr@@V?$allocator@VCookie@cpr@@@std@@@std@@AEAAX_K@Z
	?_Buy_raw@?$vector@VResolve@cpr@@V?$allocator@VResolve@cpr@@@std@@@std@@AEAAX_K@Z
	?_Calculate_growth@?$basic_string@DU?$char_traits@D@std@@V?$allocator@D@2@@std@@AEBA_K_K@Z
	?_Calculate_growth@?$basic_string@DU?$char_traits@D@std@@V?$allocator@D@2@@std@@CA_K_K00@Z
	?_Calculate_growth@?$vector@U?$pair@V?$shared_ptr@VSession@cpr@@@std@@W4HttpMethod@MultiPerform@cpr@@@std@@V?$allocator@U?$pair@V?$shared_ptr@VSession@cpr@@@std@@W4HttpMethod@MultiPerform@cpr@@@std@@@2@@std@@AEBA_K_K@Z
	?_Calculate_growth@?$vector@UFile@cpr@@V?$allocator@UFile@cpr@@@std@@@std@@AEBA_K_K@Z
	?_Calculate_growth@?$vector@UPair@cpr@@V?$allocator@UPair@cpr@@@std@@@std@@AEBA_K_K@Z
	?_Calculate_growth@?$vector@UParameter@cpr@@V?$allocator@UParameter@cpr@@@std@@@std@@AEBA_K_K@Z
	?_Calculate_growth@?$vector@V?$basic_string@DU?$char_traits@D@std@@V?$allocator@D@2@@std@@V?$allocator@V?$basic_string@DU?$char_traits@D@std@@V?$allocator@D@2@@std@@@2@@std@@AEBA_K_K@Z
	?_Calculate_growth@?$vector@VCertInfo@cpr@@V?$allocator@VCertInfo@cpr@@@std@@@std@@AEBA_K_K@Z
	?_Calculate_growth@?$vector@VCookie@cpr@@V?$allocator@VCookie@cpr@@@std@@@std@@AEBA_K_K@Z
	?_Calculate_growth@?$vector@VResponse@cpr@@V?$allocator@VResponse@cpr@@@std@@@std@@AEBA_K_K@Z
	?_Call_immediate@?$_Packaged_state@$$A6A?AVResponse@cpr@@XZ@std@@QEAAXXZ
	?_Ceiling_of_log_2@std@@YAK_K@Z
	?_Change_array@?$vector@U?$pair@V?$shared_ptr@VSession@cpr@@@std@@W4HttpMethod@MultiPerform@cpr@@@std@@V?$allocator@U?$pair@V?$shared_ptr@VSession@cpr@@@std@@W4HttpMethod@MultiPerform@cpr@@@std@@@2@@std@@AEAAXQEAU?$pair@V?$shared_ptr@VSession@cpr@@@std@@W4HttpMethod@MultiPerform@cpr@@@2@_K1@Z
	?_Change_array@?$vector@UFile@cpr@@V?$allocator@UFile@cpr@@@std@@@std@@AEAAXQEAUFile@cpr@@_K1@Z
	?_Change_array@?$vector@UPair@cpr@@V?$allocator@UPair@cpr@@@std@@@std@@AEAAXQEAUPair@cpr@@_K1@Z
	?_Change_array@?$vector@UParameter@cpr@@V?$allocator@UParameter@cpr@@@std@@@std@@AEAAXQEAUParameter@cpr@@_K1@Z
	?_Change_array@?$vector@V?$basic_string@DU?$char_traits@D@std@@V?$allocator@D@2@@std@@V?$allocator@V?$basic_string@DU?$char_traits@D@std@@V?$allocator@D@2@@std@@@2@@std@@AEAAXQEAV?$basic_string@DU?$char_traits@D@std@@V?$allocator@D@2@@2@_K1@Z
	?_Change_array@?$vector@VCertInfo@cpr@@V?$allocator@VCertInfo@cpr@@@std@@@std@@AEAAXQEAVCertInfo@cpr@@_K1@Z
	?_Change_array@?$vector@VCookie@cpr@@V?$allocator@VCookie@cpr@@@std@@@std@@AEAAXQEAVCookie@cpr@@_K1@Z
	?_Change_array@?$vector@VResponse@cpr@@V?$allocator@VResponse@cpr@@@std@@@std@@AEAAXQEAVResponse@cpr@@_K1@Z
	?_Check_grow_by_1@?$_Tree@V?$_Tmap_traits@V?$basic_string@DU?$char_traits@D@std@@V?$allocator@D@2@@std@@V12@U?$less@V?$basic_string@DU?$char_traits@D@std@@V?$allocator@D@2@@std@@@2@V?$allocator@U?$pair@$$CBV?$basic_string@DU?$char_traits@D@std@@V?$allocator@D@2@@std@@V12@@std@@@2@$0A@@std@@@std@@IEAAXXZ
	?_Check_grow_by_1@?$_Tree@V?$_Tmap_traits@V?$basic_string@DU?$char_traits@D@std@@V?$allocator@D@2@@std@@V12@UCaseInsensitiveCompare@cpr@@V?$allocator@U?$pair@$$CBV?$basic_string@DU?$char_traits@D@std@@V?$allocator@D@2@@std@@V12@@std@@@2@$0A@@std@@@std@@IEAAXXZ
	?_Check_grow_by_1@?$_Tree@V?$_Tmap_traits@V?$basic_string@DU?$char_traits@D@std@@V?$allocator@D@2@@std@@VEncodedAuthentication@cpr@@U?$less@V?$basic_string@DU?$char_traits@D@std@@V?$allocator@D@2@@std@@@2@V?$allocator@U?$pair@$$CBV?$basic_string@DU?$char_traits@D@std@@V?$allocator@D@2@@std@@VEncodedAuthentication@cpr@@@std@@@2@$0A@@std@@@std@@IEAAXXZ
	?_Check_grow_by_1@?$_Tree@V?$_Tmap_traits@W4AcceptEncodingMethods@cpr@@V?$basic_string@DU?$char_traits@D@std@@V?$allocator@D@2@@std@@U?$less@W4AcceptEncodingMethods@cpr@@@4@V?$allocator@U?$pair@$$CBW4AcceptEncodingMethods@cpr@@V?$basic_string@DU?$char_traits@D@std@@V?$allocator@D@2@@std@@@std@@@4@$0A@@std@@@std@@IEAAXXZ
	?_Check_max_size@?$_Hash@V?$_Uset_traits@V?$basic_string@DU?$char_traits@D@std@@V?$allocator@D@2@@std@@V?$_Uhash_compare@V?$basic_string@DU?$char_traits@D@std@@V?$allocator@D@2@@std@@U?$hash@V?$basic_string@DU?$char_traits@D@std@@V?$allocator@D@2@@std@@@2@U?$equal_to@V?$basic_string@DU?$char_traits@D@std@@V?$allocator@D@2@@std@@@2@@2@V?$allocator@V?$basic_string@DU?$char_traits@D@std@@V?$allocator@D@2@@std@@@2@$0A@@std@@@std@@IEBAXXZ
	?_Check_offset@?$_String_val@U?$_Simple_types@D@std@@@std@@QEBAX_K@Z
	?_Check_rehash_required_1@?$_Hash@V?$_Uset_traits@V?$basic_string@DU?$char_traits@D@std@@V?$allocator@D@2@@std@@V?$_Uhash_compare@V?$basic_string@DU?$char_traits@D@std@@V?$allocator@D@2@@std@@U?$hash@V?$basic_string@DU?$char_traits@D@std@@V?$allocator@D@2@@std@@@2@U?$equal_to@V?$basic_string@DU?$char_traits@D@std@@V?$allocator@D@2@@std@@@2@@2@V?$allocator@V?$basic_string@DU?$char_traits@D@std@@V?$allocator@D@2@@std@@@2@$0A@@std@@@std@@IEBA_NXZ
	?_Clamp_suffix_size@?$_String_val@U?$_Simple_types@D@std@@@std@@QEBA_K_K0@Z
	?_Clear_and_reserve_geometric@?$vector@UFile@cpr@@V?$allocator@UFile@cpr@@@std@@@std@@AEAAX_K@Z
	?_Clear_and_reserve_geometric@?$vector@UParameter@cpr@@V?$allocator@UParameter@cpr@@@std@@@std@@AEAAX_K@Z
	?_Compat@?$_Vector_const_iterator@V?$_Vector_val@U?$_Simple_types@U?$pair@V?$shared_ptr@VSession@cpr@@@std@@W4HttpMethod@MultiPerform@cpr@@@std@@@std@@@std@@@std@@QEBAXAEBV12@@Z
	?_Compat@?$_Vector_const_iterator@V?$_Vector_val@U?$_Simple_types@UFile@cpr@@@std@@@std@@@std@@QEBAXAEBV12@@Z
	?_Copy_exception@exception_ptr@std@@SA?AV12@PEAXPEBX@Z
	?_Current_exception@exception_ptr@std@@SA?AV12@XZ
	?_Deallocate_for_capacity@?$basic_string@DU?$char_traits@D@std@@V?$allocator@D@2@@std@@CAXAEAV?$allocator@D@2@QEAD_K@Z
	?_Decref@?$_Ptr_base@U?$atomic@_N@std@@@std@@IEAAXXZ
	?_Decref@?$_Ptr_base@UCurlHolder@cpr@@@std@@IEAAXXZ
	?_Decref@?$_Ptr_base@V?$packaged_task@$$A6A?AVResponse@cpr@@XZ@std@@@std@@IEAAXXZ
	?_Decref@?$_Ptr_base@VInterceptor@cpr@@@std@@IEAAXXZ
	?_Decref@?$_Ptr_base@VInterceptorMulti@cpr@@@std@@IEAAXXZ
	?_Decref@?$_Ptr_base@VSession@cpr@@@std@@IEAAXXZ
	?_Decref@?$_Ptr_base@Vthread@std@@@std@@IEAAXXZ
	?_Decref@_Ref_count_base@std@@QEAAXXZ
	?_Decwref@?$_Ptr_base@VSession@cpr@@@std@@IEAAXXZ
	?_Decwref@_Ref_count_base@std@@QEAAXXZ
	?_Delete_this@?$_Associated_state@VResponse@cpr@@@std@@AEAAXXZ
	?_Delete_this@?$_Ref_count@UCurlHolder@cpr@@@std@@EEAAXXZ
	?_Delete_this@?$_Ref_count@Vthread@std@@@std@@EEAAXXZ
	?_Delete_this@?$_Ref_count_obj2@V?$packaged_task@$$A6A?AVResponse@cpr@@XZ@std@@@std@@EEAAXXZ
	?_Desired_grow_bucket_count@?$_Hash@V?$_Uset_traits@V?$basic_string@DU?$char_traits@D@std@@V?$allocator@D@2@@std@@V?$_Uhash_compare@V?$basic_string@DU?$char_traits@D@std@@V?$allocator@D@2@@std@@U?$hash@V?$basic_string@DU?$char_traits@D@std@@V?$allocator@D@2@@std@@@2@U?$equal_to@V?$basic_string@DU?$char_traits@D@std@@V?$allocator@D@2@@std@@@2@@2@V?$allocator@V?$basic_string@DU?$char_traits@D@std@@V?$allocator@D@2@@std@@@2@$0A@@std@@@std@@IEBA_K_K@Z
	?_Destroy@?$_Ref_count@UCurlHolder@cpr@@@std@@EEAAXXZ
	?_Destroy@?$_Ref_count@Vthread@std@@@std@@EEAAXXZ
	?_Destroy@?$_Ref_count_obj2@V?$packaged_task@$$A6A?AVResponse@cpr@@XZ@std@@@std@@EEAAXXZ
	?_Do_hash@?$hash@V?$basic_string@DU?$char_traits@D@std@@V?$allocator@D@2@@std@@@std@@SA_KAEBV?$basic_string@DU?$char_traits@D@std@@V?$allocator@D@2@@2@@Z
	?_Do_notify@?$_Associated_state@VResponse@cpr@@@std@@EEAAXPEAV?$unique_lock@Vmutex@std@@@2@_N@Z
	?_Empty@?$_Func_class@VResponse@cpr@@$$V@std@@IEBA_NXZ
	?_Empty@?$_Func_class@VResponse@cpr@@AEAVSession@2@W4CURLcode@@@std@@IEBA_NXZ
	?_Empty@?$_Func_class@X$$V@std@@IEBA_NXZ
	?_Empty@?$_Func_class@XW4InfoType@DebugCallback@cpr@@V?$basic_string@DU?$char_traits@D@std@@V?$allocator@D@2@@std@@_J@std@@IEBA_NXZ
	?_Empty@?$_Func_class@_NPEADAEA_K_J@std@@IEBA_NXZ
	?_Empty@?$_Func_class@_NV?$basic_string@DU?$char_traits@D@std@@V?$allocator@D@2@@std@@_J@std@@IEBA_NXZ
	?_Empty@?$_Func_class@_N_J_J_J_J_J@std@@IEBA_NXZ
	?_Eos@?$basic_string@DU?$char_traits@D@std@@V?$allocator@D@2@@std@@AEAAX_K@Z
	?_Equal@?$basic_string@DU?$char_traits@D@std@@V?$allocator@D@2@@std@@QEBA_NAEBV12@@Z
	?_Equal@?$basic_string@DU?$char_traits@D@std@@V?$allocator@D@2@@std@@QEBA_NQEBD@Z
	?_Erase_noexcept@?$basic_string@DU?$char_traits@D@std@@V?$allocator@D@2@@std@@AEAAAEAV12@_K_K@Z
	?_Extract@?$_In_place_key_extract_map@V?$basic_string@DU?$char_traits@D@std@@V?$allocator@D@2@@std@@U?$pair@$$CBV?$basic_string@DU?$char_traits@D@std@@V?$allocator@D@2@@std@@V12@@2@@std@@SAAEBV?$basic_string@DU?$char_traits@D@std@@V?$allocator@D@2@@2@AEBU?$pair@$$CBV?$basic_string@DU?$char_traits@D@std@@V?$allocator@D@2@@std@@V12@@2@@Z
	?_Extract@?$_In_place_key_extract_map@W4AcceptEncodingMethods@cpr@@U?$pair@$$CBW4AcceptEncodingMethods@cpr@@V?$basic_string@DU?$char_traits@D@std@@V?$allocator@D@2@@std@@@std@@@std@@SAAEBW4AcceptEncodingMethods@cpr@@AEBU?$pair@$$CBW4AcceptEncodingMethods@cpr@@V?$basic_string@DU?$char_traits@D@std@@V?$allocator@D@2@@std@@@2@@Z
	?_Extract@?$_In_place_key_extract_set@V?$basic_string@DU?$char_traits@D@std@@V?$allocator@D@2@@std@@V12@@std@@SAAEBV?$basic_string@DU?$char_traits@D@std@@V?$allocator@D@2@@2@AEBV32@@Z
	?_Floor_of_log_2@std@@YAK_K@Z
	?_Fnv1a_append_bytes@std@@YA_K_KQEBE_K@Z
	?_Forced_rehash@?$_Hash@V?$_Uset_traits@V?$basic_string@DU?$char_traits@D@std@@V?$allocator@D@2@@std@@V?$_Uhash_compare@V?$basic_string@DU?$char_traits@D@std@@V?$allocator@D@2@@std@@U?$hash@V?$basic_string@DU?$char_traits@D@std@@V?$allocator@D@2@@std@@@2@U?$equal_to@V?$basic_string@DU?$char_traits@D@std@@V?$allocator@D@2@@std@@@2@@2@V?$allocator@V?$basic_string@DU?$char_traits@D@std@@V?$allocator@D@2@@std@@@2@$0A@@std@@@std@@IEAAX_K@Z
	?_Future_error_map@std@@YAPEBDH@Z
	?_Get_buffer_view@?$basic_stringbuf@DU?$char_traits@D@std@@V?$allocator@D@2@@std@@QEBA?AU_Buffer_view@12@XZ
	?_Get_data@?$deque@V?$function@$$A6AXXZ@std@@V?$allocator@V?$function@$$A6AXXZ@std@@@2@@std@@AEAAAEAV?$_Deque_val@U?$_Deque_simple_types@V?$function@$$A6AXXZ@std@@@std@@@2@XZ
	?_Get_data@?$deque@V?$function@$$A6AXXZ@std@@V?$allocator@V?$function@$$A6AXXZ@std@@@2@@std@@AEBAAEBV?$_Deque_val@U?$_Deque_simple_types@V?$function@$$A6AXXZ@std@@@std@@@2@XZ
	?_Get_data@?$deque@V?$shared_ptr@VInterceptor@cpr@@@std@@V?$allocator@V?$shared_ptr@VInterceptor@cpr@@@std@@@2@@std@@AEAAAEAV?$_Deque_val@U?$_Deque_simple_types@V?$shared_ptr@VInterceptor@cpr@@@std@@@std@@@2@XZ
	?_Get_data@?$deque@V?$shared_ptr@VInterceptor@cpr@@@std@@V?$allocator@V?$shared_ptr@VInterceptor@cpr@@@std@@@2@@std@@AEBAAEBV?$_Deque_val@U?$_Deque_simple_types@V?$shared_ptr@VInterceptor@cpr@@@std@@@std@@@2@XZ
	?_Get_data@?$deque@V?$shared_ptr@VInterceptorMulti@cpr@@@std@@V?$allocator@V?$shared_ptr@VInterceptorMulti@cpr@@@std@@@2@@std@@AEAAAEAV?$_Deque_val@U?$_Deque_simple_types@V?$shared_ptr@VInterceptorMulti@cpr@@@std@@@std@@@2@XZ
	?_Get_data@?$deque@V?$shared_ptr@VInterceptorMulti@cpr@@@std@@V?$allocator@V?$shared_ptr@VInterceptorMulti@cpr@@@std@@@2@@std@@AEBAAEBV?$_Deque_val@U?$_Deque_simple_types@V?$shared_ptr@VInterceptorMulti@cpr@@@std@@@std@@@2@XZ
	?_Get_deleter@_Ref_count_base@std@@UEBAPEAXAEBVtype_info@@@Z
	?_Get_first@?$_Compressed_pair@U?$default_delete@VCurlMultiHolder@cpr@@@std@@PEAVCurlMultiHolder@cpr@@$00@std@@QEAAAEAU?$default_delete@VCurlMultiHolder@cpr@@@2@XZ
	?_Get_first@?$_Compressed_pair@U?$default_delete@V_Facet_base@std@@@std@@PEAV_Facet_base@2@$00@std@@QEAAAEAU?$default_delete@V_Facet_base@std@@@2@XZ
	?_Get_first@?$_Compressed_pair@U?$equal_to@V?$basic_string@DU?$char_traits@D@std@@V?$allocator@D@2@@std@@@std@@M$00@std@@QEBAAEBU?$equal_to@V?$basic_string@DU?$char_traits@D@std@@V?$allocator@D@2@@std@@@2@XZ
	?_Get_first@?$_Compressed_pair@U?$hash@V?$basic_string@DU?$char_traits@D@std@@V?$allocator@D@2@@std@@@std@@V?$_Compressed_pair@U?$equal_to@V?$basic_string@DU?$char_traits@D@std@@V?$allocator@D@2@@std@@@std@@M$00@2@$00@std@@QEBAAEBU?$hash@V?$basic_string@DU?$char_traits@D@std@@V?$allocator@D@2@@std@@@2@XZ
	?_Get_first@?$_Compressed_pair@U?$less@G@std@@V?$_Compressed_pair@V?$allocator@U?$_Tree_node@GPEAX@std@@@std@@V?$_Tree_val@U?$_Tree_simple_types@G@std@@@2@$00@2@$00@std@@QEBAAEBU?$less@G@2@XZ
	?_Get_first@?$_Compressed_pair@U?$less@V?$basic_string@DU?$char_traits@D@std@@V?$allocator@D@2@@std@@@std@@V?$_Compressed_pair@V?$allocator@U?$_Tree_node@U?$pair@$$CBV?$basic_string@DU?$char_traits@D@std@@V?$allocator@D@2@@std@@V12@@std@@PEAX@std@@@std@@V?$_Tree_val@U?$_Tree_simple_types@U?$pair@$$CBV?$basic_string@DU?$char_traits@D@std@@V?$allocator@D@2@@std@@V12@@std@@@std@@@2@$00@2@$00@std@@QEAAAEAU?$less@V?$basic_string@DU?$char_traits@D@std@@V?$allocator@D@2@@std@@@2@XZ
	?_Get_first@?$_Compressed_pair@U?$less@V?$basic_string@DU?$char_traits@D@std@@V?$allocator@D@2@@std@@@std@@V?$_Compressed_pair@V?$allocator@U?$_Tree_node@U?$pair@$$CBV?$basic_string@DU?$char_traits@D@std@@V?$allocator@D@2@@std@@V12@@std@@PEAX@std@@@std@@V?$_Tree_val@U?$_Tree_simple_types@U?$pair@$$CBV?$basic_string@DU?$char_traits@D@std@@V?$allocator@D@2@@std@@V12@@std@@@std@@@2@$00@2@$00@std@@QEBAAEBU?$less@V?$basic_string@DU?$char_traits@D@std@@V?$allocator@D@2@@std@@@2@XZ
	?_Get_first@?$_Compressed_pair@U?$less@V?$basic_string@DU?$char_traits@D@std@@V?$allocator@D@2@@std@@@std@@V?$_Compressed_pair@V?$allocator@U?$_Tree_node@U?$pair@$$CBV?$basic_string@DU?$char_traits@D@std@@V?$allocator@D@2@@std@@VEncodedAuthentication@cpr@@@std@@PEAX@std@@@std@@V?$_Tree_val@U?$_Tree_simple_types@U?$pair@$$CBV?$basic_string@DU?$char_traits@D@std@@V?$allocator@D@2@@std@@VEncodedAuthentication@cpr@@@std@@@std@@@2@$00@2@$00@std@@QEAAAEAU?$less@V?$basic_string@DU?$char_traits@D@std@@V?$allocator@D@2@@std@@@2@XZ
	?_Get_first@?$_Compressed_pair@U?$less@V?$basic_string@DU?$char_traits@D@std@@V?$allocator@D@2@@std@@@std@@V?$_Compressed_pair@V?$allocator@U?$_Tree_node@U?$pair@$$CBV?$basic_string@DU?$char_traits@D@std@@V?$allocator@D@2@@std@@VEncodedAuthentication@cpr@@@std@@PEAX@std@@@std@@V?$_Tree_val@U?$_Tree_simple_types@U?$pair@$$CBV?$basic_string@DU?$char_traits@D@std@@V?$allocator@D@2@@std@@VEncodedAuthentication@cpr@@@std@@@std@@@2@$00@2@$00@std@@QEBAAEBU?$less@V?$basic_string@DU?$char_traits@D@std@@V?$allocator@D@2@@std@@@2@XZ
	?_Get_first@?$_Compressed_pair@U?$less@W4AcceptEncodingMethods@cpr@@@std@@V?$_Compressed_pair@V?$allocator@U?$_Tree_node@U?$pair@$$CBW4AcceptEncodingMethods@cpr@@V?$basic_string@DU?$char_traits@D@std@@V?$allocator@D@2@@std@@@std@@PEAX@std@@@std@@V?$_Tree_val@U?$_Tree_simple_types@U?$pair@$$CBW4AcceptEncodingMethods@cpr@@V?$basic_string@DU?$char_traits@D@std@@V?$allocator@D@2@@std@@@std@@@std@@@2@$00@2@$00@std@@QEBAAEBU?$less@W4AcceptEncodingMethods@cpr@@@2@XZ
	?_Get_first@?$_Compressed_pair@UCaseInsensitiveCompare@cpr@@V?$_Compressed_pair@V?$allocator@U?$_Tree_node@U?$pair@$$CBV?$basic_string@DU?$char_traits@D@std@@V?$allocator@D@2@@std@@V12@@std@@PEAX@std@@@std@@V?$_Tree_val@U?$_Tree_simple_types@U?$pair@$$CBV?$basic_string@DU?$char_traits@D@std@@V?$allocator@D@2@@std@@V12@@std@@@std@@@2@$00@std@@$00@std@@QEAAAEAUCaseInsensitiveCompare@cpr@@XZ
	?_Get_first@?$_Compressed_pair@UCaseInsensitiveCompare@cpr@@V?$_Compressed_pair@V?$allocator@U?$_Tree_node@U?$pair@$$CBV?$basic_string@DU?$char_traits@D@std@@V?$allocator@D@2@@std@@V12@@std@@PEAX@std@@@std@@V?$_Tree_val@U?$_Tree_simple_types@U?$pair@$$CBV?$basic_string@DU?$char_traits@D@std@@V?$allocator@D@2@@std@@V12@@std@@@std@@@2@$00@std@@$00@std@@QEBAAEBUCaseInsensitiveCompare@cpr@@XZ
	?_Get_first@?$_Compressed_pair@V?$allocator@D@std@@V?$_String_val@U?$_Simple_types@D@std@@@2@$00@std@@QEAAAEAV?$allocator@D@2@XZ
	?_Get_first@?$_Compressed_pair@V?$allocator@D@std@@V?$_String_val@U?$_Simple_types@D@std@@@2@$00@std@@QEBAAEBV?$allocator@D@2@XZ
	?_Get_first@?$_Compressed_pair@V?$allocator@U?$_List_node@UThreadData@ThreadPool@cpr@@PEAX@std@@@std@@V?$_List_val@U?$_List_simple_types@UThreadData@ThreadPool@cpr@@@std@@@2@$00@std@@QEAAAEAV?$allocator@U?$_List_node@UThreadData@ThreadPool@cpr@@PEAX@std@@@2@XZ
	?_Get_first@?$_Compressed_pair@V?$allocator@U?$_List_node@UThreadData@ThreadPool@cpr@@PEAX@std@@@std@@V?$_List_val@U?$_List_simple_types@UThreadData@ThreadPool@cpr@@@std@@@2@$00@std@@QEBAAEBV?$allocator@U?$_List_node@UThreadData@ThreadPool@cpr@@PEAX@std@@@2@XZ
	?_Get_first@?$_Compressed_pair@V?$allocator@U?$_List_node@V?$basic_string@DU?$char_traits@D@std@@V?$allocator@D@2@@std@@PEAX@std@@@std@@V?$_List_val@U?$_List_simple_types@V?$basic_string@DU?$char_traits@D@std@@V?$allocator@D@2@@std@@@std@@@2@$00@std@@QEAAAEAV?$allocator@U?$_List_node@V?$basic_string@DU?$char_traits@D@std@@V?$allocator@D@2@@std@@PEAX@std@@@2@XZ
	?_Get_first@?$_Compressed_pair@V?$allocator@U?$_List_node@V?$basic_string@DU?$char_traits@D@std@@V?$allocator@D@2@@std@@PEAX@std@@@std@@V?$_List_val@U?$_List_simple_types@V?$basic_string@DU?$char_traits@D@std@@V?$allocator@D@2@@std@@@std@@@2@$00@std@@QEBAAEBV?$allocator@U?$_List_node@V?$basic_string@DU?$char_traits@D@std@@V?$allocator@D@2@@std@@PEAX@std@@@2@XZ
	?_Get_first@?$_Compressed_pair@V?$allocator@U?$_Tree_node@GPEAX@std@@@std@@V?$_Tree_val@U?$_Tree_simple_types@G@std@@@2@$00@std@@QEAAAEAV?$allocator@U?$_Tree_node@GPEAX@std@@@2@XZ
	?_Get_first@?$_Compressed_pair@V?$allocator@U?$_Tree_node@GPEAX@std@@@std@@V?$_Tree_val@U?$_Tree_simple_types@G@std@@@2@$00@std@@QEBAAEBV?$allocator@U?$_Tree_node@GPEAX@std@@@2@XZ
	?_Get_first@?$_Compressed_pair@V?$allocator@U?$_Tree_node@U?$pair@$$CBV?$basic_string@DU?$char_traits@D@std@@V?$allocator@D@2@@std@@V12@@std@@PEAX@std@@@std@@V?$_Tree_val@U?$_Tree_simple_types@U?$pair@$$CBV?$basic_string@DU?$char_traits@D@std@@V?$allocator@D@2@@std@@V12@@std@@@std@@@2@$00@std@@QEAAAEAV?$allocator@U?$_Tree_node@U?$pair@$$CBV?$basic_string@DU?$char_traits@D@std@@V?$allocator@D@2@@std@@V12@@std@@PEAX@std@@@2@XZ
	?_Get_first@?$_Compressed_pair@V?$allocator@U?$_Tree_node@U?$pair@$$CBV?$basic_string@DU?$char_traits@D@std@@V?$allocator@D@2@@std@@V12@@std@@PEAX@std@@@std@@V?$_Tree_val@U?$_Tree_simple_types@U?$pair@$$CBV?$basic_string@DU?$char_traits@D@std@@V?$allocator@D@2@@std@@V12@@std@@@std@@@2@$00@std@@QEBAAEBV?$allocator@U?$_Tree_node@U?$pair@$$CBV?$basic_string@DU?$char_traits@D@std@@V?$allocator@D@2@@std@@V12@@std@@PEAX@std@@@2@XZ
	?_Get_first@?$_Compressed_pair@V?$allocator@U?$_Tree_node@U?$pair@$$CBV?$basic_string@DU?$char_traits@D@std@@V?$allocator@D@2@@std@@VEncodedAuthentication@cpr@@@std@@PEAX@std@@@std@@V?$_Tree_val@U?$_Tree_simple_types@U?$pair@$$CBV?$basic_string@DU?$char_traits@D@std@@V?$allocator@D@2@@std@@VEncodedAuthentication@cpr@@@std@@@std@@@2@$00@std@@QEAAAEAV?$allocator@U?$_Tree_node@U?$pair@$$CBV?$basic_string@DU?$char_traits@D@std@@V?$allocator@D@2@@std@@VEncodedAuthentication@cpr@@@std@@PEAX@std@@@2@XZ
	?_Get_first@?$_Compressed_pair@V?$allocator@U?$_Tree_node@U?$pair@$$CBV?$basic_string@DU?$char_traits@D@std@@V?$allocator@D@2@@std@@VEncodedAuthentication@cpr@@@std@@PEAX@std@@@std@@V?$_Tree_val@U?$_Tree_simple_types@U?$pair@$$CBV?$basic_string@DU?$char_traits@D@std@@V?$allocator@D@2@@std@@VEncodedAuthentication@cpr@@@std@@@std@@@2@$00@std@@QEBAAEBV?$allocator@U?$_Tree_node@U?$pair@$$CBV?$basic_string@DU?$char_traits@D@std@@V?$allocator@D@2@@std@@VEncodedAuthentication@cpr@@@std@@PEAX@std@@@2@XZ
	?_Get_first@?$_Compressed_pair@V?$allocator@U?$_Tree_node@U?$pair@$$CBW4AcceptEncodingMethods@cpr@@V?$basic_string@DU?$char_traits@D@std@@V?$allocator@D@2@@std@@@std@@PEAX@std@@@std@@V?$_Tree_val@U?$_Tree_simple_types@U?$pair@$$CBW4AcceptEncodingMethods@cpr@@V?$basic_string@DU?$char_traits@D@std@@V?$allocator@D@2@@std@@@std@@@std@@@2@$00@std@@QEAAAEAV?$allocator@U?$_Tree_node@U?$pair@$$CBW4AcceptEncodingMethods@cpr@@V?$basic_string@DU?$char_traits@D@std@@V?$allocator@D@2@@std@@@std@@PEAX@std@@@2@XZ
	?_Get_first@?$_Compressed_pair@V?$allocator@U?$_Tree_node@U?$pair@$$CBW4AcceptEncodingMethods@cpr@@V?$basic_string@DU?$char_traits@D@std@@V?$allocator@D@2@@std@@@std@@PEAX@std@@@std@@V?$_Tree_val@U?$_Tree_simple_types@U?$pair@$$CBW4AcceptEncodingMethods@cpr@@V?$basic_string@DU?$char_traits@D@std@@V?$allocator@D@2@@std@@@std@@@std@@@2@$00@std@@QEBAAEBV?$allocator@U?$_Tree_node@U?$pair@$$CBW4AcceptEncodingMethods@cpr@@V?$basic_string@DU?$char_traits@D@std@@V?$allocator@D@2@@std@@@std@@PEAX@std@@@2@XZ
	?_Get_first@?$_Compressed_pair@V?$allocator@U?$pair@V?$shared_ptr@VSession@cpr@@@std@@W4HttpMethod@MultiPerform@cpr@@@std@@@std@@V?$_Vector_val@U?$_Simple_types@U?$pair@V?$shared_ptr@VSession@cpr@@@std@@W4HttpMethod@MultiPerform@cpr@@@std@@@std@@@2@$00@std@@QEAAAEAV?$allocator@U?$pair@V?$shared_ptr@VSession@cpr@@@std@@W4HttpMethod@MultiPerform@cpr@@@std@@@2@XZ
	?_Get_first@?$_Compressed_pair@V?$allocator@U?$pair@V?$shared_ptr@VSession@cpr@@@std@@W4HttpMethod@MultiPerform@cpr@@@std@@@std@@V?$_Vector_val@U?$_Simple_types@U?$pair@V?$shared_ptr@VSession@cpr@@@std@@W4HttpMethod@MultiPerform@cpr@@@std@@@std@@@2@$00@std@@QEBAAEBV?$allocator@U?$pair@V?$shared_ptr@VSession@cpr@@@std@@W4HttpMethod@MultiPerform@cpr@@@std@@@2@XZ
	?_Get_first@?$_Compressed_pair@V?$allocator@UFile@cpr@@@std@@V?$_Vector_val@U?$_Simple_types@UFile@cpr@@@std@@@2@$00@std@@QEAAAEAV?$allocator@UFile@cpr@@@2@XZ
	?_Get_first@?$_Compressed_pair@V?$allocator@UFile@cpr@@@std@@V?$_Vector_val@U?$_Simple_types@UFile@cpr@@@std@@@2@$00@std@@QEBAAEBV?$allocator@UFile@cpr@@@2@XZ
	?_Get_first@?$_Compressed_pair@V?$allocator@UPair@cpr@@@std@@V?$_Vector_val@U?$_Simple_types@UPair@cpr@@@std@@@2@$00@std@@QEAAAEAV?$allocator@UPair@cpr@@@2@XZ
	?_Get_first@?$_Compressed_pair@V?$allocator@UPair@cpr@@@std@@V?$_Vector_val@U?$_Simple_types@UPair@cpr@@@std@@@2@$00@std@@QEBAAEBV?$allocator@UPair@cpr@@@2@XZ
	?_Get_first@?$_Compressed_pair@V?$allocator@UParameter@cpr@@@std@@V?$_Vector_val@U?$_Simple_types@UParameter@cpr@@@std@@@2@$00@std@@QEAAAEAV?$allocator@UParameter@cpr@@@2@XZ
	?_Get_first@?$_Compressed_pair@V?$allocator@UParameter@cpr@@@std@@V?$_Vector_val@U?$_Simple_types@UParameter@cpr@@@std@@@2@$00@std@@QEBAAEBV?$allocator@UParameter@cpr@@@2@XZ
	?_Get_first@?$_Compressed_pair@V?$allocator@UPart@cpr@@@std@@V?$_Vector_val@U?$_Simple_types@UPart@cpr@@@std@@@2@$00@std@@QEAAAEAV?$allocator@UPart@cpr@@@2@XZ
	?_Get_first@?$_Compressed_pair@V?$allocator@UPart@cpr@@@std@@V?$_Vector_val@U?$_Simple_types@UPart@cpr@@@std@@@2@$00@std@@QEBAAEBV?$allocator@UPart@cpr@@@2@XZ
	?_Get_first@?$_Compressed_pair@V?$allocator@V?$_List_unchecked_const_iterator@V?$_List_val@U?$_List_simple_types@V?$basic_string@DU?$char_traits@D@std@@V?$allocator@D@2@@std@@@std@@@std@@U_Iterator_base0@2@@std@@@std@@V?$_Vector_val@U?$_Simple_types@V?$_List_unchecked_const_iterator@V?$_List_val@U?$_List_simple_types@V?$basic_string@DU?$char_traits@D@std@@V?$allocator@D@2@@std@@@std@@@std@@U_Iterator_base0@2@@std@@@std@@@2@$00@std@@QEAAAEAV?$allocator@V?$_List_unchecked_const_iterator@V?$_List_val@U?$_List_simple_types@V?$basic_string@DU?$char_traits@D@std@@V?$allocator@D@2@@std@@@std@@@std@@U_Iterator_base0@2@@std@@@2@XZ
	?_Get_first@?$_Compressed_pair@V?$allocator@V?$_List_unchecked_const_iterator@V?$_List_val@U?$_List_simple_types@V?$basic_string@DU?$char_traits@D@std@@V?$allocator@D@2@@std@@@std@@@std@@U_Iterator_base0@2@@std@@@std@@V?$_Vector_val@U?$_Simple_types@V?$_List_unchecked_const_iterator@V?$_List_val@U?$_List_simple_types@V?$basic_string@DU?$char_traits@D@std@@V?$allocator@D@2@@std@@@std@@@std@@U_Iterator_base0@2@@std@@@std@@@2@$00@std@@QEBAAEBV?$allocator@V?$_List_unchecked_const_iterator@V?$_List_val@U?$_List_simple_types@V?$basic_string@DU?$char_traits@D@std@@V?$allocator@D@2@@std@@@std@@@std@@U_Iterator_base0@2@@std@@@2@XZ
	?_Get_first@?$_Compressed_pair@V?$allocator@V?$basic_string@DU?$char_traits@D@std@@V?$allocator@D@2@@std@@@std@@V?$_Vector_val@U?$_Simple_types@V?$basic_string@DU?$char_traits@D@std@@V?$allocator@D@2@@std@@@std@@@2@$00@std@@QEAAAEAV?$allocator@V?$basic_string@DU?$char_traits@D@std@@V?$allocator@D@2@@std@@@2@XZ
	?_Get_first@?$_Compressed_pair@V?$allocator@V?$basic_string@DU?$char_traits@D@std@@V?$allocator@D@2@@std@@@std@@V?$_Vector_val@U?$_Simple_types@V?$basic_string@DU?$char_traits@D@std@@V?$allocator@D@2@@std@@@std@@@2@$00@std@@QEBAAEBV?$allocator@V?$basic_string@DU?$char_traits@D@std@@V?$allocator@D@2@@std@@@2@XZ
	?_Get_first@?$_Compressed_pair@V?$allocator@V?$function@$$A6AXXZ@std@@@std@@V?$_Deque_val@U?$_Deque_simple_types@V?$function@$$A6AXXZ@std@@@std@@@2@$00@std@@QEAAAEAV?$allocator@V?$function@$$A6AXXZ@std@@@2@XZ
	?_Get_first@?$_Compressed_pair@V?$allocator@V?$function@$$A6AXXZ@std@@@std@@V?$_Deque_val@U?$_Deque_simple_types@V?$function@$$A6AXXZ@std@@@std@@@2@$00@std@@QEBAAEBV?$allocator@V?$function@$$A6AXXZ@std@@@2@XZ
	?_Get_first@?$_Compressed_pair@V?$allocator@V?$shared_ptr@VInterceptor@cpr@@@std@@@std@@V?$_Deque_val@U?$_Deque_simple_types@V?$shared_ptr@VInterceptor@cpr@@@std@@@std@@@2@$00@std@@QEAAAEAV?$allocator@V?$shared_ptr@VInterceptor@cpr@@@std@@@2@XZ
	?_Get_first@?$_Compressed_pair@V?$allocator@V?$shared_ptr@VInterceptor@cpr@@@std@@@std@@V?$_Deque_val@U?$_Deque_simple_types@V?$shared_ptr@VInterceptor@cpr@@@std@@@std@@@2@$00@std@@QEBAAEBV?$allocator@V?$shared_ptr@VInterceptor@cpr@@@std@@@2@XZ
	?_Get_first@?$_Compressed_pair@V?$allocator@V?$shared_ptr@VInterceptorMulti@cpr@@@std@@@std@@V?$_Deque_val@U?$_Deque_simple_types@V?$shared_ptr@VInterceptorMulti@cpr@@@std@@@std@@@2@$00@std@@QEAAAEAV?$allocator@V?$shared_ptr@VInterceptorMulti@cpr@@@std@@@2@XZ
	?_Get_first@?$_Compressed_pair@V?$allocator@V?$shared_ptr@VInterceptorMulti@cpr@@@std@@@std@@V?$_Deque_val@U?$_Deque_simple_types@V?$shared_ptr@VInterceptorMulti@cpr@@@std@@@std@@@2@$00@std@@QEBAAEBV?$allocator@V?$shared_ptr@VInterceptorMulti@cpr@@@std@@@2@XZ
	?_Get_first@?$_Compressed_pair@V?$allocator@VCertInfo@cpr@@@std@@V?$_Vector_val@U?$_Simple_types@VCertInfo@cpr@@@std@@@2@$00@std@@QEAAAEAV?$allocator@VCertInfo@cpr@@@2@XZ
	?_Get_first@?$_Compressed_pair@V?$allocator@VCertInfo@cpr@@@std@@V?$_Vector_val@U?$_Simple_types@VCertInfo@cpr@@@std@@@2@$00@std@@QEBAAEBV?$allocator@VCertInfo@cpr@@@2@XZ
	?_Get_first@?$_Compressed_pair@V?$allocator@VCookie@cpr@@@std@@V?$_Vector_val@U?$_Simple_types@VCookie@cpr@@@std@@@2@$00@std@@QEAAAEAV?$allocator@VCookie@cpr@@@2@XZ
	?_Get_first@?$_Compressed_pair@V?$allocator@VCookie@cpr@@@std@@V?$_Vector_val@U?$_Simple_types@VCookie@cpr@@@std@@@2@$00@std@@QEBAAEBV?$allocator@VCookie@cpr@@@2@XZ
	?_Get_first@?$_Compressed_pair@V?$allocator@VResolve@cpr@@@std@@V?$_Vector_val@U?$_Simple_types@VResolve@cpr@@@std@@@2@$00@std@@QEAAAEAV?$allocator@VResolve@cpr@@@2@XZ
	?_Get_first@?$_Compressed_pair@V?$allocator@VResolve@cpr@@@std@@V?$_Vector_val@U?$_Simple_types@VResolve@cpr@@@std@@@2@$00@std@@QEBAAEBV?$allocator@VResolve@cpr@@@2@XZ
	?_Get_first@?$_Compressed_pair@V?$allocator@VResponse@cpr@@@std@@V?$_Vector_val@U?$_Simple_types@VResponse@cpr@@@std@@@2@$00@std@@QEAAAEAV?$allocator@VResponse@cpr@@@2@XZ
	?_Get_first@?$_Compressed_pair@V?$allocator@VResponse@cpr@@@std@@V?$_Vector_val@U?$_Simple_types@VResponse@cpr@@@std@@@2@$00@std@@QEBAAEBV?$allocator@VResponse@cpr@@@2@XZ
	?_Get_max_bucket_size@?$_Uhash_compare@V?$basic_string@DU?$char_traits@D@std@@V?$allocator@D@2@@std@@U?$hash@V?$basic_string@DU?$char_traits@D@std@@V?$allocator@D@2@@std@@@2@U?$equal_to@V?$basic_string@DU?$char_traits@D@std@@V?$allocator@D@2@@std@@@2@@std@@QEAAAEAMXZ
	?_Get_max_bucket_size@?$_Uhash_compare@V?$basic_string@DU?$char_traits@D@std@@V?$allocator@D@2@@std@@U?$hash@V?$basic_string@DU?$char_traits@D@std@@V?$allocator@D@2@@std@@@2@U?$equal_to@V?$basic_string@DU?$char_traits@D@std@@V?$allocator@D@2@@std@@@2@@std@@QEBAAEBMXZ
	?_Get_scary@?$_Tree@V?$_Tmap_traits@V?$basic_string@DU?$char_traits@D@std@@V?$allocator@D@2@@std@@V12@U?$less@V?$basic_string@DU?$char_traits@D@std@@V?$allocator@D@2@@std@@@2@V?$allocator@U?$pair@$$CBV?$basic_string@DU?$char_traits@D@std@@V?$allocator@D@2@@std@@V12@@std@@@2@$0A@@std@@@std@@IEAAPEAV?$_Tree_val@U?$_Tree_simple_types@U?$pair@$$CBV?$basic_string@DU?$char_traits@D@std@@V?$allocator@D@2@@std@@V12@@std@@@std@@@2@XZ
	?_Get_scary@?$_Tree@V?$_Tmap_traits@V?$basic_string@DU?$char_traits@D@std@@V?$allocator@D@2@@std@@V12@U?$less@V?$basic_string@DU?$char_traits@D@std@@V?$allocator@D@2@@std@@@2@V?$allocator@U?$pair@$$CBV?$basic_string@DU?$char_traits@D@std@@V?$allocator@D@2@@std@@V12@@std@@@2@$0A@@std@@@std@@IEBAPEBV?$_Tree_val@U?$_Tree_simple_types@U?$pair@$$CBV?$basic_string@DU?$char_traits@D@std@@V?$allocator@D@2@@std@@V12@@std@@@std@@@2@XZ
	?_Get_scary@?$_Tree@V?$_Tmap_traits@V?$basic_string@DU?$char_traits@D@std@@V?$allocator@D@2@@std@@V12@UCaseInsensitiveCompare@cpr@@V?$allocator@U?$pair@$$CBV?$basic_string@DU?$char_traits@D@std@@V?$allocator@D@2@@std@@V12@@std@@@2@$0A@@std@@@std@@IEAAPEAV?$_Tree_val@U?$_Tree_simple_types@U?$pair@$$CBV?$basic_string@DU?$char_traits@D@std@@V?$allocator@D@2@@std@@V12@@std@@@std@@@2@XZ
	?_Get_scary@?$_Tree@V?$_Tmap_traits@V?$basic_string@DU?$char_traits@D@std@@V?$allocator@D@2@@std@@V12@UCaseInsensitiveCompare@cpr@@V?$allocator@U?$pair@$$CBV?$basic_string@DU?$char_traits@D@std@@V?$allocator@D@2@@std@@V12@@std@@@2@$0A@@std@@@std@@IEBAPEBV?$_Tree_val@U?$_Tree_simple_types@U?$pair@$$CBV?$basic_string@DU?$char_traits@D@std@@V?$allocator@D@2@@std@@V12@@std@@@std@@@2@XZ
	?_Get_scary@?$_Tree@V?$_Tmap_traits@V?$basic_string@DU?$char_traits@D@std@@V?$allocator@D@2@@std@@VEncodedAuthentication@cpr@@U?$less@V?$basic_string@DU?$char_traits@D@std@@V?$allocator@D@2@@std@@@2@V?$allocator@U?$pair@$$CBV?$basic_string@DU?$char_traits@D@std@@V?$allocator@D@2@@std@@VEncodedAuthentication@cpr@@@std@@@2@$0A@@std@@@std@@IEAAPEAV?$_Tree_val@U?$_Tree_simple_types@U?$pair@$$CBV?$basic_string@DU?$char_traits@D@std@@V?$allocator@D@2@@std@@VEncodedAuthentication@cpr@@@std@@@std@@@2@XZ
	?_Get_scary@?$_Tree@V?$_Tmap_traits@V?$basic_string@DU?$char_traits@D@std@@V?$allocator@D@2@@std@@VEncodedAuthentication@cpr@@U?$less@V?$basic_string@DU?$char_traits@D@std@@V?$allocator@D@2@@std@@@2@V?$allocator@U?$pair@$$CBV?$basic_string@DU?$char_traits@D@std@@V?$allocator@D@2@@std@@VEncodedAuthentication@cpr@@@std@@@2@$0A@@std@@@std@@IEBAPEBV?$_Tree_val@U?$_Tree_simple_types@U?$pair@$$CBV?$basic_string@DU?$char_traits@D@std@@V?$allocator@D@2@@std@@VEncodedAuthentication@cpr@@@std@@@std@@@2@XZ
	?_Get_scary@?$_Tree@V?$_Tmap_traits@W4AcceptEncodingMethods@cpr@@V?$basic_string@DU?$char_traits@D@std@@V?$allocator@D@2@@std@@U?$less@W4AcceptEncodingMethods@cpr@@@4@V?$allocator@U?$pair@$$CBW4AcceptEncodingMethods@cpr@@V?$basic_string@DU?$char_traits@D@std@@V?$allocator@D@2@@std@@@std@@@4@$0A@@std@@@std@@IEAAPEAV?$_Tree_val@U?$_Tree_simple_types@U?$pair@$$CBW4AcceptEncodingMethods@cpr@@V?$basic_string@DU?$char_traits@D@std@@V?$allocator@D@2@@std@@@std@@@std@@@2@XZ
	?_Get_scary@?$_Tree@V?$_Tmap_traits@W4AcceptEncodingMethods@cpr@@V?$basic_string@DU?$char_traits@D@std@@V?$allocator@D@2@@std@@U?$less@W4AcceptEncodingMethods@cpr@@@4@V?$allocator@U?$pair@$$CBW4AcceptEncodingMethods@cpr@@V?$basic_string@DU?$char_traits@D@std@@V?$allocator@D@2@@std@@@std@@@4@$0A@@std@@@std@@IEBAPEBV?$_Tree_val@U?$_Tree_simple_types@U?$pair@$$CBW4AcceptEncodingMethods@cpr@@V?$basic_string@DU?$char_traits@D@std@@V?$allocator@D@2@@std@@@std@@@std@@@2@XZ
	?_Get_scary@?$_Tree@V?$_Tset_traits@GU?$less@G@std@@V?$allocator@G@2@$0A@@std@@@std@@IEAAPEAV?$_Tree_val@U?$_Tree_simple_types@G@std@@@2@XZ
	?_Get_scary@?$_Tree@V?$_Tset_traits@GU?$less@G@std@@V?$allocator@G@2@$0A@@std@@@std@@IEBAPEBV?$_Tree_val@U?$_Tree_simple_types@G@std@@@2@XZ
	?_Get_state@?$_Promise@VResponse@cpr@@@std@@QEAAAEAV?$_State_manager@VResponse@cpr@@@2@XZ
	?_Get_state_for_future@?$_Promise@VResponse@cpr@@@std@@QEAAAEAV?$_State_manager@VResponse@cpr@@@2@XZ
	?_Get_state_for_set@?$_Promise@VResponse@cpr@@@std@@QEAAAEAV?$_State_manager@VResponse@cpr@@@2@XZ
	?_Get_value@?$_Associated_state@VResponse@cpr@@@std@@UEAAAEAVResponse@cpr@@_N@Z
	?_Getal@?$_Hash@V?$_Uset_traits@V?$basic_string@DU?$char_traits@D@std@@V?$allocator@D@2@@std@@V?$_Uhash_compare@V?$basic_string@DU?$char_traits@D@std@@V?$allocator@D@2@@std@@U?$hash@V?$basic_string@DU?$char_traits@D@std@@V?$allocator@D@2@@std@@@2@U?$equal_to@V?$basic_string@DU?$char_traits@D@std@@V?$allocator@D@2@@std@@@2@@2@V?$allocator@V?$basic_string@DU?$char_traits@D@std@@V?$allocator@D@2@@std@@@2@$0A@@std@@@std@@IEAAAEAV?$allocator@U?$_List_node@V?$basic_string@DU?$char_traits@D@std@@V?$allocator@D@2@@std@@PEAX@std@@@2@XZ
	?_Getal@?$_Tree@V?$_Tmap_traits@V?$basic_string@DU?$char_traits@D@std@@V?$allocator@D@2@@std@@V12@U?$less@V?$basic_string@DU?$char_traits@D@std@@V?$allocator@D@2@@std@@@2@V?$allocator@U?$pair@$$CBV?$basic_string@DU?$char_traits@D@std@@V?$allocator@D@2@@std@@V12@@std@@@2@$0A@@std@@@std@@IEAAAEAV?$allocator@U?$_Tree_node@U?$pair@$$CBV?$basic_string@DU?$char_traits@D@std@@V?$allocator@D@2@@std@@V12@@std@@PEAX@std@@@2@XZ
	?_Getal@?$_Tree@V?$_Tmap_traits@V?$basic_string@DU?$char_traits@D@std@@V?$allocator@D@2@@std@@V12@U?$less@V?$basic_string@DU?$char_traits@D@std@@V?$allocator@D@2@@std@@@2@V?$allocator@U?$pair@$$CBV?$basic_string@DU?$char_traits@D@std@@V?$allocator@D@2@@std@@V12@@std@@@2@$0A@@std@@@std@@IEBAAEBV?$allocator@U?$_Tree_node@U?$pair@$$CBV?$basic_string@DU?$char_traits@D@std@@V?$allocator@D@2@@std@@V12@@std@@PEAX@std@@@2@XZ
	?_Getal@?$_Tree@V?$_Tmap_traits@V?$basic_string@DU?$char_traits@D@std@@V?$allocator@D@2@@std@@V12@UCaseInsensitiveCompare@cpr@@V?$allocator@U?$pair@$$CBV?$basic_string@DU?$char_traits@D@std@@V?$allocator@D@2@@std@@V12@@std@@@2@$0A@@std@@@std@@IEAAAEAV?$allocator@U?$_Tree_node@U?$pair@$$CBV?$basic_string@DU?$char_traits@D@std@@V?$allocator@D@2@@std@@V12@@std@@PEAX@std@@@2@XZ
	?_Getal@?$_Tree@V?$_Tmap_traits@V?$basic_string@DU?$char_traits@D@std@@V?$allocator@D@2@@std@@V12@UCaseInsensitiveCompare@cpr@@V?$allocator@U?$pair@$$CBV?$basic_string@DU?$char_traits@D@std@@V?$allocator@D@2@@std@@V12@@std@@@2@$0A@@std@@@std@@IEBAAEBV?$allocator@U?$_Tree_node@U?$pair@$$CBV?$basic_string@DU?$char_traits@D@std@@V?$allocator@D@2@@std@@V12@@std@@PEAX@std@@@2@XZ
	?_Getal@?$_Tree@V?$_Tmap_traits@V?$basic_string@DU?$char_traits@D@std@@V?$allocator@D@2@@std@@VEncodedAuthentication@cpr@@U?$less@V?$basic_string@DU?$char_traits@D@std@@V?$allocator@D@2@@std@@@2@V?$allocator@U?$pair@$$CBV?$basic_string@DU?$char_traits@D@std@@V?$allocator@D@2@@std@@VEncodedAuthentication@cpr@@@std@@@2@$0A@@std@@@std@@IEAAAEAV?$allocator@U?$_Tree_node@U?$pair@$$CBV?$basic_string@DU?$char_traits@D@std@@V?$allocator@D@2@@std@@VEncodedAuthentication@cpr@@@std@@PEAX@std@@@2@XZ
	?_Getal@?$_Tree@V?$_Tmap_traits@V?$basic_string@DU?$char_traits@D@std@@V?$allocator@D@2@@std@@VEncodedAuthentication@cpr@@U?$less@V?$basic_string@DU?$char_traits@D@std@@V?$allocator@D@2@@std@@@2@V?$allocator@U?$pair@$$CBV?$basic_string@DU?$char_traits@D@std@@V?$allocator@D@2@@std@@VEncodedAuthentication@cpr@@@std@@@2@$0A@@std@@@std@@IEBAAEBV?$allocator@U?$_Tree_node@U?$pair@$$CBV?$basic_string@DU?$char_traits@D@std@@V?$allocator@D@2@@std@@VEncodedAuthentication@cpr@@@std@@PEAX@std@@@2@XZ
	?_Getal@?$_Tree@V?$_Tmap_traits@W4AcceptEncodingMethods@cpr@@V?$basic_string@DU?$char_traits@D@std@@V?$allocator@D@2@@std@@U?$less@W4AcceptEncodingMethods@cpr@@@4@V?$allocator@U?$pair@$$CBW4AcceptEncodingMethods@cpr@@V?$basic_string@DU?$char_traits@D@std@@V?$allocator@D@2@@std@@@std@@@4@$0A@@std@@@std@@IEAAAEAV?$allocator@U?$_Tree_node@U?$pair@$$CBW4AcceptEncodingMethods@cpr@@V?$basic_string@DU?$char_traits@D@std@@V?$allocator@D@2@@std@@@std@@PEAX@std@@@2@XZ
	?_Getal@?$_Tree@V?$_Tmap_traits@W4AcceptEncodingMethods@cpr@@V?$basic_string@DU?$char_traits@D@std@@V?$allocator@D@2@@std@@U?$less@W4AcceptEncodingMethods@cpr@@@4@V?$allocator@U?$pair@$$CBW4AcceptEncodingMethods@cpr@@V?$basic_string@DU?$char_traits@D@std@@V?$allocator@D@2@@std@@@std@@@4@$0A@@std@@@std@@IEBAAEBV?$allocator@U?$_Tree_node@U?$pair@$$CBW4AcceptEncodingMethods@cpr@@V?$basic_string@DU?$char_traits@D@std@@V?$allocator@D@2@@std@@@std@@PEAX@std@@@2@XZ
	?_Getal@?$_Tree@V?$_Tset_traits@GU?$less@G@std@@V?$allocator@G@2@$0A@@std@@@std@@IEAAAEAV?$allocator@U?$_Tree_node@GPEAX@std@@@2@XZ
	?_Getal@?$_Tree@V?$_Tset_traits@GU?$less@G@std@@V?$allocator@G@2@$0A@@std@@@std@@IEBAAEBV?$allocator@U?$_Tree_node@GPEAX@std@@@2@XZ
	?_Getal@?$basic_string@DU?$char_traits@D@std@@V?$allocator@D@2@@std@@AEAAAEAV?$allocator@D@2@XZ
	?_Getal@?$basic_string@DU?$char_traits@D@std@@V?$allocator@D@2@@std@@AEBAAEBV?$allocator@D@2@XZ
	?_Getal@?$deque@V?$function@$$A6AXXZ@std@@V?$allocator@V?$function@$$A6AXXZ@std@@@2@@std@@AEAAAEAV?$allocator@V?$function@$$A6AXXZ@std@@@2@XZ
	?_Getal@?$deque@V?$function@$$A6AXXZ@std@@V?$allocator@V?$function@$$A6AXXZ@std@@@2@@std@@AEBAAEBV?$allocator@V?$function@$$A6AXXZ@std@@@2@XZ
	?_Getal@?$deque@V?$shared_ptr@VInterceptor@cpr@@@std@@V?$allocator@V?$shared_ptr@VInterceptor@cpr@@@std@@@2@@std@@AEAAAEAV?$allocator@V?$shared_ptr@VInterceptor@cpr@@@std@@@2@XZ
	?_Getal@?$deque@V?$shared_ptr@VInterceptor@cpr@@@std@@V?$allocator@V?$shared_ptr@VInterceptor@cpr@@@std@@@2@@std@@AEBAAEBV?$allocator@V?$shared_ptr@VInterceptor@cpr@@@std@@@2@XZ
	?_Getal@?$deque@V?$shared_ptr@VInterceptorMulti@cpr@@@std@@V?$allocator@V?$shared_ptr@VInterceptorMulti@cpr@@@std@@@2@@std@@AEAAAEAV?$allocator@V?$shared_ptr@VInterceptorMulti@cpr@@@std@@@2@XZ
	?_Getal@?$deque@V?$shared_ptr@VInterceptorMulti@cpr@@@std@@V?$allocator@V?$shared_ptr@VInterceptorMulti@cpr@@@std@@@2@@std@@AEBAAEBV?$allocator@V?$shared_ptr@VInterceptorMulti@cpr@@@std@@@2@XZ
	?_Getal@?$list@UThreadData@ThreadPool@cpr@@V?$allocator@UThreadData@ThreadPool@cpr@@@std@@@std@@AEAAAEAV?$allocator@U?$_List_node@UThreadData@ThreadPool@cpr@@PEAX@std@@@2@XZ
	?_Getal@?$list@UThreadData@ThreadPool@cpr@@V?$allocator@UThreadData@ThreadPool@cpr@@@std@@@std@@AEBAAEBV?$allocator@U?$_List_node@UThreadData@ThreadPool@cpr@@PEAX@std@@@2@XZ
	?_Getal@?$list@V?$basic_string@DU?$char_traits@D@std@@V?$allocator@D@2@@std@@V?$allocator@V?$basic_string@DU?$char_traits@D@std@@V?$allocator@D@2@@std@@@2@@std@@AEAAAEAV?$allocator@U?$_List_node@V?$basic_string@DU?$char_traits@D@std@@V?$allocator@D@2@@std@@PEAX@std@@@2@XZ
	?_Getal@?$list@V?$basic_string@DU?$char_traits@D@std@@V?$allocator@D@2@@std@@V?$allocator@V?$basic_string@DU?$char_traits@D@std@@V?$allocator@D@2@@std@@@2@@std@@AEBAAEBV?$allocator@U?$_List_node@V?$basic_string@DU?$char_traits@D@std@@V?$allocator@D@2@@std@@PEAX@std@@@2@XZ
	?_Getal@?$vector@U?$pair@V?$shared_ptr@VSession@cpr@@@std@@W4HttpMethod@MultiPerform@cpr@@@std@@V?$allocator@U?$pair@V?$shared_ptr@VSession@cpr@@@std@@W4HttpMethod@MultiPerform@cpr@@@std@@@2@@std@@AEAAAEAV?$allocator@U?$pair@V?$shared_ptr@VSession@cpr@@@std@@W4HttpMethod@MultiPerform@cpr@@@std@@@2@XZ
	?_Getal@?$vector@U?$pair@V?$shared_ptr@VSession@cpr@@@std@@W4HttpMethod@MultiPerform@cpr@@@std@@V?$allocator@U?$pair@V?$shared_ptr@VSession@cpr@@@std@@W4HttpMethod@MultiPerform@cpr@@@std@@@2@@std@@AEBAAEBV?$allocator@U?$pair@V?$shared_ptr@VSession@cpr@@@std@@W4HttpMethod@MultiPerform@cpr@@@std@@@2@XZ
	?_Getal@?$vector@UFile@cpr@@V?$allocator@UFile@cpr@@@std@@@std@@AEAAAEAV?$allocator@UFile@cpr@@@2@XZ
	?_Getal@?$vector@UFile@cpr@@V?$allocator@UFile@cpr@@@std@@@std@@AEBAAEBV?$allocator@UFile@cpr@@@2@XZ
	?_Getal@?$vector@UPair@cpr@@V?$allocator@UPair@cpr@@@std@@@std@@AEAAAEAV?$allocator@UPair@cpr@@@2@XZ
	?_Getal@?$vector@UPair@cpr@@V?$allocator@UPair@cpr@@@std@@@std@@AEBAAEBV?$allocator@UPair@cpr@@@2@XZ
	?_Getal@?$vector@UParameter@cpr@@V?$allocator@UParameter@cpr@@@std@@@std@@AEAAAEAV?$allocator@UParameter@cpr@@@2@XZ
	?_Getal@?$vector@UParameter@cpr@@V?$allocator@UParameter@cpr@@@std@@@std@@AEBAAEBV?$allocator@UParameter@cpr@@@2@XZ
	?_Getal@?$vector@UPart@cpr@@V?$allocator@UPart@cpr@@@std@@@std@@AEAAAEAV?$allocator@UPart@cpr@@@2@XZ
	?_Getal@?$vector@UPart@cpr@@V?$allocator@UPart@cpr@@@std@@@std@@AEBAAEBV?$allocator@UPart@cpr@@@2@XZ
	?_Getal@?$vector@V?$basic_string@DU?$char_traits@D@std@@V?$allocator@D@2@@std@@V?$allocator@V?$basic_string@DU?$char_traits@D@std@@V?$allocator@D@2@@std@@@2@@std@@AEAAAEAV?$allocator@V?$basic_string@DU?$char_traits@D@std@@V?$allocator@D@2@@std@@@2@XZ
	?_Getal@?$vector@V?$basic_string@DU?$char_traits@D@std@@V?$allocator@D@2@@std@@V?$allocator@V?$basic_string@DU?$char_traits@D@std@@V?$allocator@D@2@@std@@@2@@std@@AEBAAEBV?$allocator@V?$basic_string@DU?$char_traits@D@std@@V?$allocator@D@2@@std@@@2@XZ
	?_Getal@?$vector@VCertInfo@cpr@@V?$allocator@VCertInfo@cpr@@@std@@@std@@AEAAAEAV?$allocator@VCertInfo@cpr@@@2@XZ
	?_Getal@?$vector@VCertInfo@cpr@@V?$allocator@VCertInfo@cpr@@@std@@@std@@AEBAAEBV?$allocator@VCertInfo@cpr@@@2@XZ
	?_Getal@?$vector@VCookie@cpr@@V?$allocator@VCookie@cpr@@@std@@@std@@AEAAAEAV?$allocator@VCookie@cpr@@@2@XZ
	?_Getal@?$vector@VCookie@cpr@@V?$allocator@VCookie@cpr@@@std@@@std@@AEBAAEBV?$allocator@VCookie@cpr@@@2@XZ
	?_Getal@?$vector@VResolve@cpr@@V?$allocator@VResolve@cpr@@@std@@@std@@AEAAAEAV?$allocator@VResolve@cpr@@@2@XZ
	?_Getal@?$vector@VResolve@cpr@@V?$allocator@VResolve@cpr@@@std@@@std@@AEBAAEBV?$allocator@VResolve@cpr@@@2@XZ
	?_Getal@?$vector@VResponse@cpr@@V?$allocator@VResponse@cpr@@@std@@@std@@AEAAAEAV?$allocator@VResponse@cpr@@@2@XZ
	?_Getal@?$vector@VResponse@cpr@@V?$allocator@VResponse@cpr@@@std@@@std@@AEBAAEBV?$allocator@VResponse@cpr@@@2@XZ
	?_Getblock@?$_Deque_val@U?$_Deque_simple_types@V?$function@$$A6AXXZ@std@@@std@@@std@@QEBA_K_K@Z
	?_Getblock@?$_Deque_val@U?$_Deque_simple_types@V?$shared_ptr@VInterceptor@cpr@@@std@@@std@@@std@@QEBA_K_K@Z
	?_Getblock@?$_Deque_val@U?$_Deque_simple_types@V?$shared_ptr@VInterceptorMulti@cpr@@@std@@@std@@@std@@QEBA_K_K@Z
	?_Getblock@?$deque@V?$function@$$A6AXXZ@std@@V?$allocator@V?$function@$$A6AXXZ@std@@@2@@std@@AEBA_K_K@Z
	?_Getblock@?$deque@V?$shared_ptr@VInterceptor@cpr@@@std@@V?$allocator@V?$shared_ptr@VInterceptor@cpr@@@std@@@2@@std@@AEBA_K_K@Z
	?_Getblock@?$deque@V?$shared_ptr@VInterceptorMulti@cpr@@@std@@V?$allocator@V?$shared_ptr@VInterceptorMulti@cpr@@@std@@@2@@std@@AEBA_K_K@Z
	?_Getcomp@?$_Tree@V?$_Tmap_traits@V?$basic_string@DU?$char_traits@D@std@@V?$allocator@D@2@@std@@V12@U?$less@V?$basic_string@DU?$char_traits@D@std@@V?$allocator@D@2@@std@@@2@V?$allocator@U?$pair@$$CBV?$basic_string@DU?$char_traits@D@std@@V?$allocator@D@2@@std@@V12@@std@@@2@$0A@@std@@@std@@IEAAAEAU?$less@V?$basic_string@DU?$char_traits@D@std@@V?$allocator@D@2@@std@@@2@XZ
	?_Getcomp@?$_Tree@V?$_Tmap_traits@V?$basic_string@DU?$char_traits@D@std@@V?$allocator@D@2@@std@@V12@U?$less@V?$basic_string@DU?$char_traits@D@std@@V?$allocator@D@2@@std@@@2@V?$allocator@U?$pair@$$CBV?$basic_string@DU?$char_traits@D@std@@V?$allocator@D@2@@std@@V12@@std@@@2@$0A@@std@@@std@@IEBAAEBU?$less@V?$basic_string@DU?$char_traits@D@std@@V?$allocator@D@2@@std@@@2@XZ
	?_Getcomp@?$_Tree@V?$_Tmap_traits@V?$basic_string@DU?$char_traits@D@std@@V?$allocator@D@2@@std@@V12@UCaseInsensitiveCompare@cpr@@V?$allocator@U?$pair@$$CBV?$basic_string@DU?$char_traits@D@std@@V?$allocator@D@2@@std@@V12@@std@@@2@$0A@@std@@@std@@IEAAAEAUCaseInsensitiveCompare@cpr@@XZ
	?_Getcomp@?$_Tree@V?$_Tmap_traits@V?$basic_string@DU?$char_traits@D@std@@V?$allocator@D@2@@std@@V12@UCaseInsensitiveCompare@cpr@@V?$allocator@U?$pair@$$CBV?$basic_string@DU?$char_traits@D@std@@V?$allocator@D@2@@std@@V12@@std@@@2@$0A@@std@@@std@@IEBAAEBUCaseInsensitiveCompare@cpr@@XZ
	?_Getcomp@?$_Tree@V?$_Tmap_traits@V?$basic_string@DU?$char_traits@D@std@@V?$allocator@D@2@@std@@VEncodedAuthentication@cpr@@U?$less@V?$basic_string@DU?$char_traits@D@std@@V?$allocator@D@2@@std@@@2@V?$allocator@U?$pair@$$CBV?$basic_string@DU?$char_traits@D@std@@V?$allocator@D@2@@std@@VEncodedAuthentication@cpr@@@std@@@2@$0A@@std@@@std@@IEAAAEAU?$less@V?$basic_string@DU?$char_traits@D@std@@V?$allocator@D@2@@std@@@2@XZ
	?_Getcomp@?$_Tree@V?$_Tmap_traits@V?$basic_string@DU?$char_traits@D@std@@V?$allocator@D@2@@std@@VEncodedAuthentication@cpr@@U?$less@V?$basic_string@DU?$char_traits@D@std@@V?$allocator@D@2@@std@@@2@V?$allocator@U?$pair@$$CBV?$basic_string@DU?$char_traits@D@std@@V?$allocator@D@2@@std@@VEncodedAuthentication@cpr@@@std@@@2@$0A@@std@@@std@@IEBAAEBU?$less@V?$basic_string@DU?$char_traits@D@std@@V?$allocator@D@2@@std@@@2@XZ
	?_Getcomp@?$_Tree@V?$_Tmap_traits@W4AcceptEncodingMethods@cpr@@V?$basic_string@DU?$char_traits@D@std@@V?$allocator@D@2@@std@@U?$less@W4AcceptEncodingMethods@cpr@@@4@V?$allocator@U?$pair@$$CBW4AcceptEncodingMethods@cpr@@V?$basic_string@DU?$char_traits@D@std@@V?$allocator@D@2@@std@@@std@@@4@$0A@@std@@@std@@IEBAAEBU?$less@W4AcceptEncodingMethods@cpr@@@2@XZ
	?_Getcomp@?$_Tree@V?$_Tset_traits@GU?$less@G@std@@V?$allocator@G@2@$0A@@std@@@std@@IEBAAEBU?$less@G@2@XZ
	?_Getcont@_Iterator_base12@std@@QEBAPEBU_Container_base12@2@XZ
	?_Getfacet@locale@std@@QEBAPEBVfacet@12@_K@Z
	?_Getimpl@?$_Func_class@VResponse@cpr@@$$V@std@@AEBAPEAV?$_Func_base@VResponse@cpr@@$$V@2@XZ
	?_Getimpl@?$_Func_class@VResponse@cpr@@AEAVSession@2@W4CURLcode@@@std@@AEBAPEAV?$_Func_base@VResponse@cpr@@AEAVSession@2@W4CURLcode@@@2@XZ
	?_Getimpl@?$_Func_class@X$$V@std@@AEBAPEAV?$_Func_base@X$$V@2@XZ
	?_Getimpl@?$_Func_class@XW4InfoType@DebugCallback@cpr@@V?$basic_string@DU?$char_traits@D@std@@V?$allocator@D@2@@std@@_J@std@@AEBAPEAV?$_Func_base@XW4InfoType@DebugCallback@cpr@@V?$basic_string@DU?$char_traits@D@std@@V?$allocator@D@2@@std@@_J@2@XZ
	?_Getimpl@?$_Func_class@_NPEADAEA_K_J@std@@AEBAPEAV?$_Func_base@_NPEADAEA_K_J@2@XZ
	?_Getimpl@?$_Func_class@_NV?$basic_string@DU?$char_traits@D@std@@V?$allocator@D@2@@std@@_J@std@@AEBAPEAV?$_Func_base@_NV?$basic_string@DU?$char_traits@D@std@@V?$allocator@D@2@@std@@_J@2@XZ
	?_Getimpl@?$_Func_class@_N_J_J_J_J_J@std@@AEBAPEAV?$_Func_base@_N_J_J_J_J_J@2@XZ
	?_Getstate@?$basic_stringbuf@DU?$char_traits@D@std@@V?$allocator@D@2@@std@@CAHH@Z
	?_Growmap@?$deque@V?$function@$$A6AXXZ@std@@V?$allocator@V?$function@$$A6AXXZ@std@@@2@@std@@AEAAX_K@Z
	?_Growmap@?$deque@V?$shared_ptr@VInterceptor@cpr@@@std@@V?$allocator@V?$shared_ptr@VInterceptor@cpr@@@std@@@2@@std@@AEAAX_K@Z
	?_Growmap@?$deque@V?$shared_ptr@VInterceptorMulti@cpr@@@std@@V?$allocator@V?$shared_ptr@VInterceptorMulti@cpr@@@std@@@2@@std@@AEAAX_K@Z
	?_Has_deferred_function@?$_Associated_state@VResponse@cpr@@@std@@EEBA_NXZ
	?_Incref@?$_Ptr_base@UCurlHolder@cpr@@@std@@IEBAXXZ
	?_Incref@?$_Ptr_base@V?$packaged_task@$$A6A?AVResponse@cpr@@XZ@std@@@std@@IEBAXXZ
	?_Incref@?$_Ptr_base@VInterceptor@cpr@@@std@@IEBAXXZ
	?_Incref@?$_Ptr_base@VInterceptorMulti@cpr@@@std@@IEBAXXZ
	?_Incref@?$_Ptr_base@VSession@cpr@@@std@@IEBAXXZ
	?_Incref@?$_Ptr_base@Vthread@std@@@std@@IEBAXXZ
	?_Incref@_Ref_count_base@std@@QEAAXXZ
	?_Incref_nz@_Ref_count_base@std@@QEAA_NXZ
	?_Init@?$basic_stringbuf@DU?$char_traits@D@std@@V?$allocator@D@2@@std@@IEAAXPEBD_KH@Z
	?_Insert_new_node_before@?$_Hash@V?$_Uset_traits@V?$basic_string@DU?$char_traits@D@std@@V?$allocator@D@2@@std@@V?$_Uhash_compare@V?$basic_string@DU?$char_traits@D@std@@V?$allocator@D@2@@std@@U?$hash@V?$basic_string@DU?$char_traits@D@std@@V?$allocator@D@2@@std@@@2@U?$equal_to@V?$basic_string@DU?$char_traits@D@std@@V?$allocator@D@2@@std@@@2@@2@V?$allocator@V?$basic_string@DU?$char_traits@D@std@@V?$allocator@D@2@@std@@@2@$0A@@std@@@std@@IEAAPEAU?$_List_node@V?$basic_string@DU?$char_traits@D@std@@V?$allocator@D@2@@std@@PEAX@2@_KQEAU32@1@Z
	?_Insert_node@?$_Tree_val@U?$_Tree_simple_types@U?$pair@$$CBV?$basic_string@DU?$char_traits@D@std@@V?$allocator@D@2@@std@@V12@@std@@@std@@@std@@QEAAPEAU?$_Tree_node@U?$pair@$$CBV?$basic_string@DU?$char_traits@D@std@@V?$allocator@D@2@@std@@V12@@std@@PEAX@2@U?$_Tree_id@PEAU?$_Tree_node@U?$pair@$$CBV?$basic_string@DU?$char_traits@D@std@@V?$allocator@D@2@@std@@V12@@std@@PEAX@std@@@2@QEAU32@@Z
	?_Insert_node@?$_Tree_val@U?$_Tree_simple_types@U?$pair@$$CBV?$basic_string@DU?$char_traits@D@std@@V?$allocator@D@2@@std@@VEncodedAuthentication@cpr@@@std@@@std@@@std@@QEAAPEAU?$_Tree_node@U?$pair@$$CBV?$basic_string@DU?$char_traits@D@std@@V?$allocator@D@2@@std@@VEncodedAuthentication@cpr@@@std@@PEAX@2@U?$_Tree_id@PEAU?$_Tree_node@U?$pair@$$CBV?$basic_string@DU?$char_traits@D@std@@V?$allocator@D@2@@std@@VEncodedAuthentication@cpr@@@std@@PEAX@std@@@2@QEAU32@@Z
	?_Insert_node@?$_Tree_val@U?$_Tree_simple_types@U?$pair@$$CBW4AcceptEncodingMethods@cpr@@V?$basic_string@DU?$char_traits@D@std@@V?$allocator@D@2@@std@@@std@@@std@@@std@@QEAAPEAU?$_Tree_node@U?$pair@$$CBW4AcceptEncodingMethods@cpr@@V?$basic_string@DU?$char_traits@D@std@@V?$allocator@D@2@@std@@@std@@PEAX@2@U?$_Tree_id@PEAU?$_Tree_node@U?$pair@$$CBW4AcceptEncodingMethods@cpr@@V?$basic_string@DU?$char_traits@D@std@@V?$allocator@D@2@@std@@@std@@PEAX@std@@@2@QEAU32@@Z
	?_Is_ready@?$_Associated_state@VResponse@cpr@@@std@@QEBA_NXZ
	?_Is_ready@?$_Promise@VResponse@cpr@@@std@@QEBA_NXZ
	?_Is_ready@?$_State_manager@VResponse@cpr@@@std@@QEBA_NXZ
	?_Kfn@?$_Uset_traits@V?$basic_string@DU?$char_traits@D@std@@V?$allocator@D@2@@std@@V?$_Uhash_compare@V?$basic_string@DU?$char_traits@D@std@@V?$allocator@D@2@@std@@U?$hash@V?$basic_string@DU?$char_traits@D@std@@V?$allocator@D@2@@std@@@2@U?$equal_to@V?$basic_string@DU?$char_traits@D@std@@V?$allocator@D@2@@std@@@2@@2@V?$allocator@V?$basic_string@DU?$char_traits@D@std@@V?$allocator@D@2@@std@@@2@$0A@@std@@SAAEBV?$basic_string@DU?$char_traits@D@std@@V?$allocator@D@2@@2@AEBV32@@Z
	?_Large_mode_engaged@?$_String_val@U?$_Simple_types@D@std@@@std@@QEBA_NXZ
	?_Local@?$_Func_class@VResponse@cpr@@$$V@std@@AEBA_NXZ
	?_Local@?$_Func_class@VResponse@cpr@@AEAVSession@2@W4CURLcode@@@std@@AEBA_NXZ
	?_Local@?$_Func_class@X$$V@std@@AEBA_NXZ
	?_Local@?$_Func_class@XW4InfoType@DebugCallback@cpr@@V?$basic_string@DU?$char_traits@D@std@@V?$allocator@D@2@@std@@_J@std@@AEBA_NXZ
	?_Local@?$_Func_class@_NPEADAEA_K_J@std@@AEBA_NXZ
	?_Local@?$_Func_class@_NV?$basic_string@DU?$char_traits@D@std@@V?$allocator@D@2@@std@@_J@std@@AEBA_NXZ
	?_Local@?$_Func_class@_N_J_J_J_J_J@std@@AEBA_NXZ
	?_Lrotate@?$_Tree_val@U?$_Tree_simple_types@U?$pair@$$CBV?$basic_string@DU?$char_traits@D@std@@V?$allocator@D@2@@std@@V12@@std@@@std@@@std@@QEAAXPEAU?$_Tree_node@U?$pair@$$CBV?$basic_string@DU?$char_traits@D@std@@V?$allocator@D@2@@std@@V12@@std@@PEAX@2@@Z
	?_Lrotate@?$_Tree_val@U?$_Tree_simple_types@U?$pair@$$CBV?$basic_string@DU?$char_traits@D@std@@V?$allocator@D@2@@std@@VEncodedAuthentication@cpr@@@std@@@std@@@std@@QEAAXPEAU?$_Tree_node@U?$pair@$$CBV?$basic_string@DU?$char_traits@D@std@@V?$allocator@D@2@@std@@VEncodedAuthentication@cpr@@@std@@PEAX@2@@Z
	?_Lrotate@?$_Tree_val@U?$_Tree_simple_types@U?$pair@$$CBW4AcceptEncodingMethods@cpr@@V?$basic_string@DU?$char_traits@D@std@@V?$allocator@D@2@@std@@@std@@@std@@@std@@QEAAXPEAU?$_Tree_node@U?$pair@$$CBW4AcceptEncodingMethods@cpr@@V?$basic_string@DU?$char_traits@D@std@@V?$allocator@D@2@@std@@@std@@PEAX@2@@Z
	?_Make_const_iter@?$list@V?$basic_string@DU?$char_traits@D@std@@V?$allocator@D@2@@std@@V?$allocator@V?$basic_string@DU?$char_traits@D@std@@V?$allocator@D@2@@std@@@2@@std@@QEBA?AV?$_List_const_iterator@V?$_List_val@U?$_List_simple_types@V?$basic_string@DU?$char_traits@D@std@@V?$allocator@D@2@@std@@@std@@@std@@@2@PEAU?$_List_node@V?$basic_string@DU?$char_traits@D@std@@V?$allocator@D@2@@std@@PEAX@2@@Z
	?_Make_iter@?$list@UThreadData@ThreadPool@cpr@@V?$allocator@UThreadData@ThreadPool@cpr@@@std@@@std@@QEBA?AV?$_List_iterator@V?$_List_val@U?$_List_simple_types@UThreadData@ThreadPool@cpr@@@std@@@std@@@2@PEAU?$_List_node@UThreadData@ThreadPool@cpr@@PEAX@2@@Z
	?_Make_iter@?$list@V?$basic_string@DU?$char_traits@D@std@@V?$allocator@D@2@@std@@V?$allocator@V?$basic_string@DU?$char_traits@D@std@@V?$allocator@D@2@@std@@@2@@std@@QEBA?AV?$_List_iterator@V?$_List_val@U?$_List_simple_types@V?$basic_string@DU?$char_traits@D@std@@V?$allocator@D@2@@std@@@std@@@std@@@2@PEAU?$_List_node@V?$basic_string@DU?$char_traits@D@std@@V?$allocator@D@2@@std@@PEAX@2@@Z
	?_Maklocwcs@std@@YAPEA_WPEB_W@Z
	?_Map@?$deque@V?$function@$$A6AXXZ@std@@V?$allocator@V?$function@$$A6AXXZ@std@@@2@@std@@AEAAAEAPEAPEAV?$function@$$A6AXXZ@2@XZ
	?_Map@?$deque@V?$shared_ptr@VInterceptor@cpr@@@std@@V?$allocator@V?$shared_ptr@VInterceptor@cpr@@@std@@@2@@std@@AEAAAEAPEAPEAV?$shared_ptr@VInterceptor@cpr@@@2@XZ
	?_Map@?$deque@V?$shared_ptr@VInterceptorMulti@cpr@@@std@@V?$allocator@V?$shared_ptr@VInterceptorMulti@cpr@@@std@@@2@@std@@AEAAAEAPEAPEAV?$shared_ptr@VInterceptorMulti@cpr@@@2@XZ
	?_Mapsize@?$deque@V?$function@$$A6AXXZ@std@@V?$allocator@V?$function@$$A6AXXZ@std@@@2@@std@@AEAAAEA_KXZ
	?_Mapsize@?$deque@V?$shared_ptr@VInterceptor@cpr@@@std@@V?$allocator@V?$shared_ptr@VInterceptor@cpr@@@std@@@2@@std@@AEAAAEA_KXZ
	?_Mapsize@?$deque@V?$shared_ptr@VInterceptorMulti@cpr@@@std@@V?$allocator@V?$shared_ptr@VInterceptorMulti@cpr@@@std@@@2@@std@@AEAAAEA_KXZ
	?_Mark@?$_String_bitmap@D$00@std@@QEAA_NPEBDQEBD@Z
	?_Match@?$_String_bitmap@D$00@std@@QEBA_ND@Z
	?_Max@?$_Tree_val@U?$_Tree_simple_types@G@std@@@std@@SAPEAU?$_Tree_node@GPEAX@2@PEAU32@@Z
	?_Max@?$_Tree_val@U?$_Tree_simple_types@U?$pair@$$CBV?$basic_string@DU?$char_traits@D@std@@V?$allocator@D@2@@std@@V12@@std@@@std@@@std@@SAPEAU?$_Tree_node@U?$pair@$$CBV?$basic_string@DU?$char_traits@D@std@@V?$allocator@D@2@@std@@V12@@std@@PEAX@2@PEAU32@@Z
	?_Max@?$_Tree_val@U?$_Tree_simple_types@U?$pair@$$CBV?$basic_string@DU?$char_traits@D@std@@V?$allocator@D@2@@std@@VEncodedAuthentication@cpr@@@std@@@std@@@std@@SAPEAU?$_Tree_node@U?$pair@$$CBV?$basic_string@DU?$char_traits@D@std@@V?$allocator@D@2@@std@@VEncodedAuthentication@cpr@@@std@@PEAX@2@PEAU32@@Z
	?_Max@?$_Tree_val@U?$_Tree_simple_types@U?$pair@$$CBW4AcceptEncodingMethods@cpr@@V?$basic_string@DU?$char_traits@D@std@@V?$allocator@D@2@@std@@@std@@@std@@@std@@SAPEAU?$_Tree_node@U?$pair@$$CBW4AcceptEncodingMethods@cpr@@V?$basic_string@DU?$char_traits@D@std@@V?$allocator@D@2@@std@@@std@@PEAX@2@PEAU32@@Z
	?_Max_bucket_size@?$_Hash@V?$_Uset_traits@V?$basic_string@DU?$char_traits@D@std@@V?$allocator@D@2@@std@@V?$_Uhash_compare@V?$basic_string@DU?$char_traits@D@std@@V?$allocator@D@2@@std@@U?$hash@V?$basic_string@DU?$char_traits@D@std@@V?$allocator@D@2@@std@@@2@U?$equal_to@V?$basic_string@DU?$char_traits@D@std@@V?$allocator@D@2@@std@@@2@@2@V?$allocator@V?$basic_string@DU?$char_traits@D@std@@V?$allocator@D@2@@std@@@2@$0A@@std@@@std@@IEAAAEAMXZ
	?_Max_bucket_size@?$_Hash@V?$_Uset_traits@V?$basic_string@DU?$char_traits@D@std@@V?$allocator@D@2@@std@@V?$_Uhash_compare@V?$basic_string@DU?$char_traits@D@std@@V?$allocator@D@2@@std@@U?$hash@V?$basic_string@DU?$char_traits@D@std@@V?$allocator@D@2@@std@@@2@U?$equal_to@V?$basic_string@DU?$char_traits@D@std@@V?$allocator@D@2@@std@@@2@@2@V?$allocator@V?$basic_string@DU?$char_traits@D@std@@V?$allocator@D@2@@std@@@2@$0A@@std@@@std@@IEBAAEBMXZ
	?_Maybe_run_deferred_function@?$_Associated_state@VResponse@cpr@@@std@@IEAAXAEAV?$unique_lock@Vmutex@std@@@2@@Z
	?_Memcpy_val_from@?$basic_string@DU?$char_traits@D@std@@V?$allocator@D@2@@std@@AEAAXAEBV12@@Z
	?_Min@?$_Tree_val@U?$_Tree_simple_types@G@std@@@std@@SAPEAU?$_Tree_node@GPEAX@2@PEAU32@@Z
	?_Min@?$_Tree_val@U?$_Tree_simple_types@U?$pair@$$CBV?$basic_string@DU?$char_traits@D@std@@V?$allocator@D@2@@std@@V12@@std@@@std@@@std@@SAPEAU?$_Tree_node@U?$pair@$$CBV?$basic_string@DU?$char_traits@D@std@@V?$allocator@D@2@@std@@V12@@std@@PEAX@2@PEAU32@@Z
	?_Min@?$_Tree_val@U?$_Tree_simple_types@U?$pair@$$CBV?$basic_string@DU?$char_traits@D@std@@V?$allocator@D@2@@std@@VEncodedAuthentication@cpr@@@std@@@std@@@std@@SAPEAU?$_Tree_node@U?$pair@$$CBV?$basic_string@DU?$char_traits@D@std@@V?$allocator@D@2@@std@@VEncodedAuthentication@cpr@@@std@@PEAX@2@PEAU32@@Z
	?_Min@?$_Tree_val@U?$_Tree_simple_types@U?$pair@$$CBW4AcceptEncodingMethods@cpr@@V?$basic_string@DU?$char_traits@D@std@@V?$allocator@D@2@@std@@@std@@@std@@@std@@SAPEAU?$_Tree_node@U?$pair@$$CBW4AcceptEncodingMethods@cpr@@V?$basic_string@DU?$char_traits@D@std@@V?$allocator@D@2@@std@@@std@@PEAX@2@PEAU32@@Z
	?_Min_load_factor_buckets@?$_Hash@V?$_Uset_traits@V?$basic_string@DU?$char_traits@D@std@@V?$allocator@D@2@@std@@V?$_Uhash_compare@V?$basic_string@DU?$char_traits@D@std@@V?$allocator@D@2@@std@@U?$hash@V?$basic_string@DU?$char_traits@D@std@@V?$allocator@D@2@@std@@@2@U?$equal_to@V?$basic_string@DU?$char_traits@D@std@@V?$allocator@D@2@@std@@@2@@2@V?$allocator@V?$basic_string@DU?$char_traits@D@std@@V?$allocator@D@2@@std@@@2@$0A@@std@@@std@@IEBA_K_K@Z
	?_Mycnd@condition_variable@std@@AEAAPEAU_Cnd_internal_imp_t@@XZ
	?_Mymtx@_Mutex_base@std@@AEAAPEAU_Mtx_internal_imp_t@@XZ
	?_Myoff@?$deque@V?$function@$$A6AXXZ@std@@V?$allocator@V?$function@$$A6AXXZ@std@@@2@@std@@AEAAAEA_KXZ
	?_Myoff@?$deque@V?$function@$$A6AXXZ@std@@V?$allocator@V?$function@$$A6AXXZ@std@@@2@@std@@AEBAAEB_KXZ
	?_Myoff@?$deque@V?$shared_ptr@VInterceptor@cpr@@@std@@V?$allocator@V?$shared_ptr@VInterceptor@cpr@@@std@@@2@@std@@AEAAAEA_KXZ
	?_Myoff@?$deque@V?$shared_ptr@VInterceptor@cpr@@@std@@V?$allocator@V?$shared_ptr@VInterceptor@cpr@@@std@@@2@@std@@AEBAAEB_KXZ
	?_Myoff@?$deque@V?$shared_ptr@VInterceptorMulti@cpr@@@std@@V?$allocator@V?$shared_ptr@VInterceptorMulti@cpr@@@std@@@2@@std@@AEAAAEA_KXZ
	?_Myoff@?$deque@V?$shared_ptr@VInterceptorMulti@cpr@@@std@@V?$allocator@V?$shared_ptr@VInterceptorMulti@cpr@@@std@@@2@@std@@AEBAAEB_KXZ
	?_Myptr@?$_String_val@U?$_Simple_types@D@std@@@std@@QEAAPEADXZ
	?_Myptr@?$_String_val@U?$_Simple_types@D@std@@@std@@QEBAPEBDXZ
	?_Mysize@?$deque@V?$function@$$A6AXXZ@std@@V?$allocator@V?$function@$$A6AXXZ@std@@@2@@std@@AEAAAEA_KXZ
	?_Mysize@?$deque@V?$function@$$A6AXXZ@std@@V?$allocator@V?$function@$$A6AXXZ@std@@@2@@std@@AEBAAEB_KXZ
	?_Mysize@?$deque@V?$shared_ptr@VInterceptor@cpr@@@std@@V?$allocator@V?$shared_ptr@VInterceptor@cpr@@@std@@@2@@std@@AEAAAEA_KXZ
	?_Mysize@?$deque@V?$shared_ptr@VInterceptor@cpr@@@std@@V?$allocator@V?$shared_ptr@VInterceptor@cpr@@@std@@@2@@std@@AEBAAEB_KXZ
	?_Mysize@?$deque@V?$shared_ptr@VInterceptorMulti@cpr@@@std@@V?$allocator@V?$shared_ptr@VInterceptorMulti@cpr@@@std@@@2@@std@@AEAAAEA_KXZ
	?_Mysize@?$deque@V?$shared_ptr@VInterceptorMulti@cpr@@@std@@V?$allocator@V?$shared_ptr@VInterceptorMulti@cpr@@@std@@@2@@std@@AEBAAEB_KXZ
	?_Orphan_all@?$deque@V?$function@$$A6AXXZ@std@@V?$allocator@V?$function@$$A6AXXZ@std@@@2@@std@@AEAAXXZ
	?_Orphan_all@?$deque@V?$shared_ptr@VInterceptor@cpr@@@std@@V?$allocator@V?$shared_ptr@VInterceptor@cpr@@@std@@@2@@std@@AEAAXXZ
	?_Orphan_all@?$deque@V?$shared_ptr@VInterceptorMulti@cpr@@@std@@V?$allocator@V?$shared_ptr@VInterceptorMulti@cpr@@@std@@@2@@std@@AEAAXXZ
	?_Orphan_all@_Container_base12@std@@QEAAXXZ
	?_Orphan_all_locked_v3@_Container_base12@std@@AEAAXXZ
	?_Orphan_all_unlocked_v3@_Container_base12@std@@AEAAXXZ
	?_Orphan_me_locked_v3@_Iterator_base12@std@@AEAAXXZ
	?_Orphan_me_unlocked_v3@_Iterator_base12@std@@AEAAXXZ
	?_Orphan_non_end@?$_List_val@U?$_List_simple_types@UThreadData@ThreadPool@cpr@@@std@@@std@@QEAAXXZ
	?_Orphan_non_end@?$_List_val@U?$_List_simple_types@V?$basic_string@DU?$char_traits@D@std@@V?$allocator@D@2@@std@@@std@@@std@@QEAAXXZ
	?_Orphan_off@?$deque@V?$function@$$A6AXXZ@std@@V?$allocator@V?$function@$$A6AXXZ@std@@@2@@std@@AEBAX_K@Z
	?_Orphan_off@?$deque@V?$shared_ptr@VInterceptor@cpr@@@std@@V?$allocator@V?$shared_ptr@VInterceptor@cpr@@@std@@@2@@std@@AEBAX_K@Z
	?_Orphan_off@?$deque@V?$shared_ptr@VInterceptorMulti@cpr@@@std@@V?$allocator@V?$shared_ptr@VInterceptorMulti@cpr@@@std@@@2@@std@@AEBAX_K@Z
	?_Orphan_ptr2@?$_List_val@U?$_List_simple_types@UThreadData@ThreadPool@cpr@@@std@@@std@@QEAAXPEAU?$_List_node@UThreadData@ThreadPool@cpr@@PEAX@2@@Z
	?_Orphan_ptr@?$_Tree_val@U?$_Tree_simple_types@G@std@@@std@@QEAAXQEAU?$_Tree_node@GPEAX@2@@Z
	?_Orphan_ptr@?$_Tree_val@U?$_Tree_simple_types@U?$pair@$$CBV?$basic_string@DU?$char_traits@D@std@@V?$allocator@D@2@@std@@V12@@std@@@std@@@std@@QEAAXQEAU?$_Tree_node@U?$pair@$$CBV?$basic_string@DU?$char_traits@D@std@@V?$allocator@D@2@@std@@V12@@std@@PEAX@2@@Z
	?_Orphan_ptr@?$_Tree_val@U?$_Tree_simple_types@U?$pair@$$CBV?$basic_string@DU?$char_traits@D@std@@V?$allocator@D@2@@std@@VEncodedAuthentication@cpr@@@std@@@std@@@std@@QEAAXQEAU?$_Tree_node@U?$pair@$$CBV?$basic_string@DU?$char_traits@D@std@@V?$allocator@D@2@@std@@VEncodedAuthentication@cpr@@@std@@PEAX@2@@Z
	?_Orphan_range@?$vector@U?$pair@V?$shared_ptr@VSession@cpr@@@std@@W4HttpMethod@MultiPerform@cpr@@@std@@V?$allocator@U?$pair@V?$shared_ptr@VSession@cpr@@@std@@W4HttpMethod@MultiPerform@cpr@@@std@@@2@@std@@AEBAXPEAU?$pair@V?$shared_ptr@VSession@cpr@@@std@@W4HttpMethod@MultiPerform@cpr@@@2@0@Z
	?_Orphan_range@?$vector@UFile@cpr@@V?$allocator@UFile@cpr@@@std@@@std@@AEBAXPEAUFile@cpr@@0@Z
	?_Orphan_range@?$vector@UPair@cpr@@V?$allocator@UPair@cpr@@@std@@@std@@AEBAXPEAUPair@cpr@@0@Z
	?_Orphan_range@?$vector@UParameter@cpr@@V?$allocator@UParameter@cpr@@@std@@@std@@AEBAXPEAUParameter@cpr@@0@Z
	?_Orphan_range@?$vector@V?$basic_string@DU?$char_traits@D@std@@V?$allocator@D@2@@std@@V?$allocator@V?$basic_string@DU?$char_traits@D@std@@V?$allocator@D@2@@std@@@2@@std@@AEBAXPEAV?$basic_string@DU?$char_traits@D@std@@V?$allocator@D@2@@2@0@Z
	?_Orphan_range@?$vector@VCertInfo@cpr@@V?$allocator@VCertInfo@cpr@@@std@@@std@@AEBAXPEAVCertInfo@cpr@@0@Z
	?_Orphan_range@?$vector@VCookie@cpr@@V?$allocator@VCookie@cpr@@@std@@@std@@AEBAXPEAVCookie@cpr@@0@Z
	?_Orphan_range@?$vector@VResponse@cpr@@V?$allocator@VResponse@cpr@@@std@@@std@@AEBAXPEAVResponse@cpr@@0@Z
	?_Orphan_range_locked@?$vector@U?$pair@V?$shared_ptr@VSession@cpr@@@std@@W4HttpMethod@MultiPerform@cpr@@@std@@V?$allocator@U?$pair@V?$shared_ptr@VSession@cpr@@@std@@W4HttpMethod@MultiPerform@cpr@@@std@@@2@@std@@AEBAXPEAU?$pair@V?$shared_ptr@VSession@cpr@@@std@@W4HttpMethod@MultiPerform@cpr@@@2@0@Z
	?_Orphan_range_locked@?$vector@UFile@cpr@@V?$allocator@UFile@cpr@@@std@@@std@@AEBAXPEAUFile@cpr@@0@Z
	?_Orphan_range_locked@?$vector@UPair@cpr@@V?$allocator@UPair@cpr@@@std@@@std@@AEBAXPEAUPair@cpr@@0@Z
	?_Orphan_range_locked@?$vector@UParameter@cpr@@V?$allocator@UParameter@cpr@@@std@@@std@@AEBAXPEAUParameter@cpr@@0@Z
	?_Orphan_range_locked@?$vector@V?$basic_string@DU?$char_traits@D@std@@V?$allocator@D@2@@std@@V?$allocator@V?$basic_string@DU?$char_traits@D@std@@V?$allocator@D@2@@std@@@2@@std@@AEBAXPEAV?$basic_string@DU?$char_traits@D@std@@V?$allocator@D@2@@2@0@Z
	?_Orphan_range_locked@?$vector@VCertInfo@cpr@@V?$allocator@VCertInfo@cpr@@@std@@@std@@AEBAXPEAVCertInfo@cpr@@0@Z
	?_Orphan_range_locked@?$vector@VCookie@cpr@@V?$allocator@VCookie@cpr@@@std@@@std@@AEBAXPEAVCookie@cpr@@0@Z
	?_Orphan_range_locked@?$vector@VResponse@cpr@@V?$allocator@VResponse@cpr@@@std@@@std@@AEBAXPEAVResponse@cpr@@0@Z
	?_Orphan_range_unlocked@?$vector@U?$pair@V?$shared_ptr@VSession@cpr@@@std@@W4HttpMethod@MultiPerform@cpr@@@std@@V?$allocator@U?$pair@V?$shared_ptr@VSession@cpr@@@std@@W4HttpMethod@MultiPerform@cpr@@@std@@@2@@std@@AEBAXPEAU?$pair@V?$shared_ptr@VSession@cpr@@@std@@W4HttpMethod@MultiPerform@cpr@@@2@0@Z
	?_Orphan_range_unlocked@?$vector@UFile@cpr@@V?$allocator@UFile@cpr@@@std@@@std@@AEBAXPEAUFile@cpr@@0@Z
	?_Orphan_range_unlocked@?$vector@UPair@cpr@@V?$allocator@UPair@cpr@@@std@@@std@@AEBAXPEAUPair@cpr@@0@Z
	?_Orphan_range_unlocked@?$vector@UParameter@cpr@@V?$allocator@UParameter@cpr@@@std@@@std@@AEBAXPEAUParameter@cpr@@0@Z
	?_Orphan_range_unlocked@?$vector@V?$basic_string@DU?$char_traits@D@std@@V?$allocator@D@2@@std@@V?$allocator@V?$basic_string@DU?$char_traits@D@std@@V?$allocator@D@2@@std@@@2@@std@@AEBAXPEAV?$basic_string@DU?$char_traits@D@std@@V?$allocator@D@2@@2@0@Z
	?_Orphan_range_unlocked@?$vector@VCertInfo@cpr@@V?$allocator@VCertInfo@cpr@@@std@@@std@@AEBAXPEAVCertInfo@cpr@@0@Z
	?_Orphan_range_unlocked@?$vector@VCookie@cpr@@V?$allocator@VCookie@cpr@@@std@@@std@@AEBAXPEAVCookie@cpr@@0@Z
	?_Orphan_range_unlocked@?$vector@VResponse@cpr@@V?$allocator@VResponse@cpr@@@std@@@std@@AEBAXPEAVResponse@cpr@@0@Z
	?_Pocca_both@?$_Hash@V?$_Uset_traits@V?$basic_string@DU?$char_traits@D@std@@V?$allocator@D@2@@std@@V?$_Uhash_compare@V?$basic_string@DU?$char_traits@D@std@@V?$allocator@D@2@@std@@U?$hash@V?$basic_string@DU?$char_traits@D@std@@V?$allocator@D@2@@std@@@2@U?$equal_to@V?$basic_string@DU?$char_traits@D@std@@V?$allocator@D@2@@std@@@2@@2@V?$allocator@V?$basic_string@DU?$char_traits@D@std@@V?$allocator@D@2@@std@@@2@$0A@@std@@@std@@AEAAXAEBV12@@Z
	?_Pocma_both@?$_Hash@V?$_Uset_traits@V?$basic_string@DU?$char_traits@D@std@@V?$allocator@D@2@@std@@V?$_Uhash_compare@V?$basic_string@DU?$char_traits@D@std@@V?$allocator@D@2@@std@@U?$hash@V?$basic_string@DU?$char_traits@D@std@@V?$allocator@D@2@@std@@@2@U?$equal_to@V?$basic_string@DU?$char_traits@D@std@@V?$allocator@D@2@@std@@@2@@2@V?$allocator@V?$basic_string@DU?$char_traits@D@std@@V?$allocator@D@2@@std@@@2@$0A@@std@@@std@@AEAAXAEAV12@@Z
	?_Ptr@?$_State_manager@VResponse@cpr@@@std@@QEBAPEAV?$_Associated_state@VResponse@cpr@@@2@XZ
	?_Register@condition_variable@std@@QEAAXAEAV?$unique_lock@Vmutex@std@@@2@PEAH@Z
	?_Rehash_for_1@?$_Hash@V?$_Uset_traits@V?$basic_string@DU?$char_traits@D@std@@V?$allocator@D@2@@std@@V?$_Uhash_compare@V?$basic_string@DU?$char_traits@D@std@@V?$allocator@D@2@@std@@U?$hash@V?$basic_string@DU?$char_traits@D@std@@V?$allocator@D@2@@std@@@2@U?$equal_to@V?$basic_string@DU?$char_traits@D@std@@V?$allocator@D@2@@std@@@2@@2@V?$allocator@V?$basic_string@DU?$char_traits@D@std@@V?$allocator@D@2@@std@@@2@$0A@@std@@@std@@IEAAXXZ
	?_Reinsert_with_invalid_vec@?$_Hash@V?$_Uset_traits@V?$basic_string@DU?$char_traits@D@std@@V?$allocator@D@2@@std@@V?$_Uhash_compare@V?$basic_string@DU?$char_traits@D@std@@V?$allocator@D@2@@std@@U?$hash@V?$basic_string@DU?$char_traits@D@std@@V?$allocator@D@2@@std@@@2@U?$equal_to@V?$basic_string@DU?$char_traits@D@std@@V?$allocator@D@2@@std@@@2@@2@V?$allocator@V?$basic_string@DU?$char_traits@D@std@@V?$allocator@D@2@@std@@@2@$0A@@std@@@std@@IEAAXXZ
	?_Release@?$_Alloc_construct_ptr@V?$allocator@U?$_List_node@V?$basic_string@DU?$char_traits@D@std@@V?$allocator@D@2@@std@@PEAX@std@@@std@@@std@@QEAAPEAU?$_List_node@V?$basic_string@DU?$char_traits@D@std@@V?$allocator@D@2@@std@@PEAX@2@XZ
	?_Release@?$_Alloc_construct_ptr@V?$allocator@U?$_Tree_node@GPEAX@std@@@std@@@std@@QEAAPEAU?$_Tree_node@GPEAX@2@XZ
	?_Release@?$_Alloc_construct_ptr@V?$allocator@U?$_Tree_node@U?$pair@$$CBV?$basic_string@DU?$char_traits@D@std@@V?$allocator@D@2@@std@@V12@@std@@PEAX@std@@@std@@@std@@QEAAPEAU?$_Tree_node@U?$pair@$$CBV?$basic_string@DU?$char_traits@D@std@@V?$allocator@D@2@@std@@V12@@std@@PEAX@2@XZ
	?_Release@?$_Alloc_construct_ptr@V?$allocator@U?$_Tree_node@U?$pair@$$CBV?$basic_string@DU?$char_traits@D@std@@V?$allocator@D@2@@std@@VEncodedAuthentication@cpr@@@std@@PEAX@std@@@std@@@std@@QEAAPEAU?$_Tree_node@U?$pair@$$CBV?$basic_string@DU?$char_traits@D@std@@V?$allocator@D@2@@std@@VEncodedAuthentication@cpr@@@std@@PEAX@2@XZ
	?_Release@?$_Alloc_construct_ptr@V?$allocator@U?$_Tree_node@U?$pair@$$CBW4AcceptEncodingMethods@cpr@@V?$basic_string@DU?$char_traits@D@std@@V?$allocator@D@2@@std@@@std@@PEAX@std@@@std@@@std@@QEAAPEAU?$_Tree_node@U?$pair@$$CBW4AcceptEncodingMethods@cpr@@V?$basic_string@DU?$char_traits@D@std@@V?$allocator@D@2@@std@@@std@@PEAX@2@XZ
	?_Release@?$_Associated_state@VResponse@cpr@@@std@@QEAAXXZ
	?_Release@?$_Tree_head_scoped_ptr@V?$allocator@U?$_Tree_node@GPEAX@std@@@std@@V?$_Tree_val@U?$_Tree_simple_types@G@std@@@2@@std@@QEAAXXZ
	?_Release@?$_Tree_head_scoped_ptr@V?$allocator@U?$_Tree_node@U?$pair@$$CBV?$basic_string@DU?$char_traits@D@std@@V?$allocator@D@2@@std@@V12@@std@@PEAX@std@@@std@@V?$_Tree_val@U?$_Tree_simple_types@U?$pair@$$CBV?$basic_string@DU?$char_traits@D@std@@V?$allocator@D@2@@std@@V12@@std@@@std@@@2@@std@@QEAAXXZ
	?_Release@?$_Uninitialized_backout@PEAPEAV?$function@$$A6AXXZ@std@@@std@@QEAAPEAPEAV?$function@$$A6AXXZ@2@XZ
	?_Release@?$_Uninitialized_backout@PEAPEAV?$shared_ptr@VInterceptor@cpr@@@std@@@std@@QEAAPEAPEAV?$shared_ptr@VInterceptor@cpr@@@2@XZ
	?_Release@?$_Uninitialized_backout@PEAPEAV?$shared_ptr@VInterceptorMulti@cpr@@@std@@@std@@QEAAPEAPEAV?$shared_ptr@VInterceptorMulti@cpr@@@2@XZ
	?_Release@?$_Uninitialized_backout@PEAV?$_List_unchecked_const_iterator@V?$_List_val@U?$_List_simple_types@V?$basic_string@DU?$char_traits@D@std@@V?$allocator@D@2@@std@@@std@@@std@@U_Iterator_base0@2@@std@@@std@@QEAAPEAV?$_List_unchecked_const_iterator@V?$_List_val@U?$_List_simple_types@V?$basic_string@DU?$char_traits@D@std@@V?$allocator@D@2@@std@@@std@@@std@@U_Iterator_base0@2@@2@XZ
	?_Release@?$_Uninitialized_backout_al@V?$allocator@U?$pair@V?$shared_ptr@VSession@cpr@@@std@@W4HttpMethod@MultiPerform@cpr@@@std@@@std@@@std@@QEAAPEAU?$pair@V?$shared_ptr@VSession@cpr@@@std@@W4HttpMethod@MultiPerform@cpr@@@2@XZ
	?_Release@?$_Uninitialized_backout_al@V?$allocator@UFile@cpr@@@std@@@std@@QEAAPEAUFile@cpr@@XZ
	?_Release@?$_Uninitialized_backout_al@V?$allocator@UPair@cpr@@@std@@@std@@QEAAPEAUPair@cpr@@XZ
	?_Release@?$_Uninitialized_backout_al@V?$allocator@UParameter@cpr@@@std@@@std@@QEAAPEAUParameter@cpr@@XZ
	?_Release@?$_Uninitialized_backout_al@V?$allocator@UPart@cpr@@@std@@@std@@QEAAPEAUPart@cpr@@XZ
	?_Release@?$_Uninitialized_backout_al@V?$allocator@V?$basic_string@DU?$char_traits@D@std@@V?$allocator@D@2@@std@@@std@@@std@@QEAAPEAV?$basic_string@DU?$char_traits@D@std@@V?$allocator@D@2@@2@XZ
	?_Release@?$_Uninitialized_backout_al@V?$allocator@VCertInfo@cpr@@@std@@@std@@QEAAPEAVCertInfo@cpr@@XZ
	?_Release@?$_Uninitialized_backout_al@V?$allocator@VCookie@cpr@@@std@@@std@@QEAAPEAVCookie@cpr@@XZ
	?_Release@?$_Uninitialized_backout_al@V?$allocator@VResolve@cpr@@@std@@@std@@QEAAPEAVResolve@cpr@@XZ
	?_Release@?$_Uninitialized_backout_al@V?$allocator@VResponse@cpr@@@std@@@std@@QEAAPEAVResponse@cpr@@XZ
	?_Release@_Basic_container_proxy_ptr12@std@@QEAAXXZ
	?_Reset_copy@?$_Func_class@XW4InfoType@DebugCallback@cpr@@V?$basic_string@DU?$char_traits@D@std@@V?$allocator@D@2@@std@@_J@std@@IEAAXAEBV12@@Z
	?_Reset_copy@?$_Func_class@_NPEADAEA_K_J@std@@IEAAXAEBV12@@Z
	?_Reset_copy@?$_Func_class@_NV?$basic_string@DU?$char_traits@D@std@@V?$allocator@D@2@@std@@_J@std@@IEAAXAEBV12@@Z
	?_Reset_copy@?$_Func_class@_N_J_J_J_J_J@std@@IEAAXAEBV12@@Z
	?_Reset_move@?$_Func_class@X$$V@std@@IEAAX$$QEAV12@@Z
	?_Reset_move@?$_Func_class@XW4InfoType@DebugCallback@cpr@@V?$basic_string@DU?$char_traits@D@std@@V?$allocator@D@2@@std@@_J@std@@IEAAX$$QEAV12@@Z
	?_Reset_move@?$_Func_class@_NPEADAEA_K_J@std@@IEAAX$$QEAV12@@Z
	?_Reset_move@?$_Func_class@_NV?$basic_string@DU?$char_traits@D@std@@V?$allocator@D@2@@std@@_J@std@@IEAAX$$QEAV12@@Z
	?_Reset_move@?$_Func_class@_N_J_J_J_J_J@std@@IEAAX$$QEAV12@@Z
	?_Retain@?$_Associated_state@VResponse@cpr@@@std@@QEAAXXZ
	?_Rrotate@?$_Tree_val@U?$_Tree_simple_types@U?$pair@$$CBV?$basic_string@DU?$char_traits@D@std@@V?$allocator@D@2@@std@@V12@@std@@@std@@@std@@QEAAXPEAU?$_Tree_node@U?$pair@$$CBV?$basic_string@DU?$char_traits@D@std@@V?$allocator@D@2@@std@@V12@@std@@PEAX@2@@Z
	?_Rrotate@?$_Tree_val@U?$_Tree_simple_types@U?$pair@$$CBV?$basic_string@DU?$char_traits@D@std@@V?$allocator@D@2@@std@@VEncodedAuthentication@cpr@@@std@@@std@@@std@@QEAAXPEAU?$_Tree_node@U?$pair@$$CBV?$basic_string@DU?$char_traits@D@std@@V?$allocator@D@2@@std@@VEncodedAuthentication@cpr@@@std@@PEAX@2@@Z
	?_Rrotate@?$_Tree_val@U?$_Tree_simple_types@U?$pair@$$CBW4AcceptEncodingMethods@cpr@@V?$basic_string@DU?$char_traits@D@std@@V?$allocator@D@2@@std@@@std@@@std@@@std@@QEAAXPEAU?$_Tree_node@U?$pair@$$CBW4AcceptEncodingMethods@cpr@@V?$basic_string@DU?$char_traits@D@std@@V?$allocator@D@2@@std@@@std@@PEAX@2@@Z
	?_Run_deferred_function@?$_Associated_state@VResponse@cpr@@@std@@EEAAXAEAV?$unique_lock@Vmutex@std@@@2@@Z
	?_Seek_to@?$_String_const_iterator@V?$_String_val@U?$_Simple_types@D@std@@@std@@@std@@QEAAXPEBD@Z
	?_Seek_to@?$_Vector_const_iterator@V?$_Vector_val@U?$_Simple_types@U?$pair@V?$shared_ptr@VSession@cpr@@@std@@W4HttpMethod@MultiPerform@cpr@@@std@@@std@@@std@@@std@@QEAAXPEBU?$pair@V?$shared_ptr@VSession@cpr@@@std@@W4HttpMethod@MultiPerform@cpr@@@2@@Z
	?_Seek_to@?$_Vector_const_iterator@V?$_Vector_val@U?$_Simple_types@VResponse@cpr@@@std@@@std@@@std@@QEAAXPEBVResponse@cpr@@@Z
	?_Set@?$_Func_class@VResponse@cpr@@$$V@std@@AEAAXPEAV?$_Func_base@VResponse@cpr@@$$V@2@@Z
	?_Set@?$_Func_class@VResponse@cpr@@AEAVSession@2@W4CURLcode@@@std@@AEAAXPEAV?$_Func_base@VResponse@cpr@@AEAVSession@2@W4CURLcode@@@2@@Z
	?_Set@?$_Func_class@X$$V@std@@AEAAXPEAV?$_Func_base@X$$V@2@@Z
	?_Set@?$_Func_class@XW4InfoType@DebugCallback@cpr@@V?$basic_string@DU?$char_traits@D@std@@V?$allocator@D@2@@std@@_J@std@@AEAAXPEAV?$_Func_base@XW4InfoType@DebugCallback@cpr@@V?$basic_string@DU?$char_traits@D@std@@V?$allocator@D@2@@std@@_J@2@@Z
	?_Set@?$_Func_class@_NPEADAEA_K_J@std@@AEAAXPEAV?$_Func_base@_NPEADAEA_K_J@2@@Z
	?_Set@?$_Func_class@_NV?$basic_string@DU?$char_traits@D@std@@V?$allocator@D@2@@std@@_J@std@@AEAAXPEAV?$_Func_base@_NV?$basic_string@DU?$char_traits@D@std@@V?$allocator@D@2@@std@@_J@2@@Z
	?_Set@?$_Func_class@_N_J_J_J_J_J@std@@AEAAXPEAV?$_Func_base@_N_J_J_J_J_J@2@@Z
	?_Set_exception@?$_Associated_state@VResponse@cpr@@@std@@QEAAXVexception_ptr@2@_N@Z
	?_Set_exception_raw@?$_Associated_state@VResponse@cpr@@@std@@QEAAXVexception_ptr@2@PEAV?$unique_lock@Vmutex@std@@@2@_N@Z
	?_Set_value@?$_Associated_state@VResponse@cpr@@@std@@QEAAX$$QEAVResponse@cpr@@_N@Z
	?_Set_value_raw@?$_Associated_state@VResponse@cpr@@@std@@QEAAX$$QEAVResponse@cpr@@PEAV?$unique_lock@Vmutex@std@@@2@_N@Z
	?_Swap@?$_Func_class@XW4InfoType@DebugCallback@cpr@@V?$basic_string@DU?$char_traits@D@std@@V?$allocator@D@2@@std@@_J@std@@IEAAXAEAV12@@Z
	?_Swap@?$_Func_class@_NPEADAEA_K_J@std@@IEAAXAEAV12@@Z
	?_Swap@?$_Func_class@_NV?$basic_string@DU?$char_traits@D@std@@V?$allocator@D@2@@std@@_J@std@@IEAAXAEAV12@@Z
	?_Swap@?$_Func_class@_N_J_J_J_J_J@std@@IEAAXAEAV12@@Z
	?_Swap@?$_Ptr_base@U?$atomic@_N@std@@@std@@IEAAXAEAV12@@Z
	?_Swap@?$_Ptr_base@UCurlHolder@cpr@@@std@@IEAAXAEAV12@@Z
	?_Swap@?$_Ptr_base@VSession@cpr@@@std@@IEAAXAEAV12@@Z
	?_Swap@?$_Ptr_base@Vthread@std@@@std@@IEAAXAEAV12@@Z
	?_Swap_proxy_and_iterators@?$basic_string@DU?$char_traits@D@std@@V?$allocator@D@2@@std@@AEAAXAEAV12@@Z
	?_Swap_proxy_and_iterators@_Container_base12@std@@QEAAXAEAU12@@Z
	?_Swap_proxy_and_iterators_locked@_Container_base12@std@@AEAAXAEAU12@@Z
	?_Swap_proxy_and_iterators_unlocked@_Container_base12@std@@AEAAXAEAU12@@Z
	?_Swap_val@?$_Hash@V?$_Uset_traits@V?$basic_string@DU?$char_traits@D@std@@V?$allocator@D@2@@std@@V?$_Uhash_compare@V?$basic_string@DU?$char_traits@D@std@@V?$allocator@D@2@@std@@U?$hash@V?$basic_string@DU?$char_traits@D@std@@V?$allocator@D@2@@std@@@2@U?$equal_to@V?$basic_string@DU?$char_traits@D@std@@V?$allocator@D@2@@std@@@2@@2@V?$allocator@V?$basic_string@DU?$char_traits@D@std@@V?$allocator@D@2@@std@@@2@$0A@@std@@@std@@AEAAXAEAV12@@Z
	?_Swap_val@?$_Vector_val@U?$_Simple_types@V?$_List_unchecked_const_iterator@V?$_List_val@U?$_List_simple_types@V?$basic_string@DU?$char_traits@D@std@@V?$allocator@D@2@@std@@@std@@@std@@U_Iterator_base0@2@@std@@@std@@@std@@QEAAXAEAV12@@Z
	?_Swap_val@?$list@V?$basic_string@DU?$char_traits@D@std@@V?$allocator@D@2@@std@@V?$allocator@V?$basic_string@DU?$char_traits@D@std@@V?$allocator@D@2@@std@@@2@@std@@AEAAXAEAV12@@Z
	?_Swap_val_excluding_comp@?$_Tree@V?$_Tmap_traits@V?$basic_string@DU?$char_traits@D@std@@V?$allocator@D@2@@std@@V12@U?$less@V?$basic_string@DU?$char_traits@D@std@@V?$allocator@D@2@@std@@@2@V?$allocator@U?$pair@$$CBV?$basic_string@DU?$char_traits@D@std@@V?$allocator@D@2@@std@@V12@@std@@@2@$0A@@std@@@std@@AEAAXAEAV12@@Z
	?_Swap_val_excluding_comp@?$_Tree@V?$_Tmap_traits@V?$basic_string@DU?$char_traits@D@std@@V?$allocator@D@2@@std@@V12@UCaseInsensitiveCompare@cpr@@V?$allocator@U?$pair@$$CBV?$basic_string@DU?$char_traits@D@std@@V?$allocator@D@2@@std@@V12@@std@@@2@$0A@@std@@@std@@AEAAXAEAV12@@Z
	?_Swap_val_excluding_comp@?$_Tree@V?$_Tmap_traits@V?$basic_string@DU?$char_traits@D@std@@V?$allocator@D@2@@std@@VEncodedAuthentication@cpr@@U?$less@V?$basic_string@DU?$char_traits@D@std@@V?$allocator@D@2@@std@@@2@V?$allocator@U?$pair@$$CBV?$basic_string@DU?$char_traits@D@std@@V?$allocator@D@2@@std@@VEncodedAuthentication@cpr@@@std@@@2@$0A@@std@@@std@@AEAAXAEAV12@@Z
	?_Take_contents@?$_Vector_val@U?$_Simple_types@UFile@cpr@@@std@@@std@@QEAAXAEAV12@@Z
	?_Take_contents@?$_Vector_val@U?$_Simple_types@UParameter@cpr@@@std@@@std@@QEAAXAEAV12@@Z
	?_Take_contents@?$_Vector_val@U?$_Simple_types@VCookie@cpr@@@std@@@std@@QEAAXAEAV12@@Z
	?_Take_contents@?$basic_string@DU?$char_traits@D@std@@V?$allocator@D@2@@std@@AEAAXAEAV12@@Z
	?_Throw_bad_array_new_length@std@@YAXXZ
	?_Throw_bad_cast@std@@YAXXZ
	?_Throw_bad_weak_ptr@std@@YAXXZ
	?_Throw_future_error2@std@@YAXW4future_errc@1@@Z
	?_Throw_tree_length_error@std@@YAXXZ
	?_Tidy@?$_Func_class@VResponse@cpr@@$$V@std@@IEAAXXZ
	?_Tidy@?$_Func_class@VResponse@cpr@@AEAVSession@2@W4CURLcode@@@std@@IEAAXXZ
	?_Tidy@?$_Func_class@X$$V@std@@IEAAXXZ
	?_Tidy@?$_Func_class@XW4InfoType@DebugCallback@cpr@@V?$basic_string@DU?$char_traits@D@std@@V?$allocator@D@2@@std@@_J@std@@IEAAXXZ
	?_Tidy@?$_Func_class@_NPEADAEA_K_J@std@@IEAAXXZ
	?_Tidy@?$_Func_class@_NV?$basic_string@DU?$char_traits@D@std@@V?$allocator@D@2@@std@@_J@std@@IEAAXXZ
	?_Tidy@?$_Func_class@_N_J_J_J_J_J@std@@IEAAXXZ
	?_Tidy@?$_Hash_vec@V?$allocator@V?$_List_unchecked_const_iterator@V?$_List_val@U?$_List_simple_types@V?$basic_string@DU?$char_traits@D@std@@V?$allocator@D@2@@std@@@std@@@std@@U_Iterator_base0@2@@std@@@std@@@std@@QEAAXXZ
	?_Tidy@?$basic_stringbuf@DU?$char_traits@D@std@@V?$allocator@D@2@@std@@IEAAXXZ
	?_Tidy@?$deque@V?$function@$$A6AXXZ@std@@V?$allocator@V?$function@$$A6AXXZ@std@@@2@@std@@AEAAXXZ
	?_Tidy@?$deque@V?$shared_ptr@VInterceptor@cpr@@@std@@V?$allocator@V?$shared_ptr@VInterceptor@cpr@@@std@@@2@@std@@AEAAXXZ
	?_Tidy@?$deque@V?$shared_ptr@VInterceptorMulti@cpr@@@std@@V?$allocator@V?$shared_ptr@VInterceptorMulti@cpr@@@std@@@2@@std@@AEAAXXZ
	?_Tidy@?$list@UThreadData@ThreadPool@cpr@@V?$allocator@UThreadData@ThreadPool@cpr@@@std@@@std@@AEAAXXZ
	?_Tidy@?$list@V?$basic_string@DU?$char_traits@D@std@@V?$allocator@D@2@@std@@V?$allocator@V?$basic_string@DU?$char_traits@D@std@@V?$allocator@D@2@@std@@@2@@std@@AEAAXXZ
	?_Tidy@?$vector@U?$pair@V?$shared_ptr@VSession@cpr@@@std@@W4HttpMethod@MultiPerform@cpr@@@std@@V?$allocator@U?$pair@V?$shared_ptr@VSession@cpr@@@std@@W4HttpMethod@MultiPerform@cpr@@@std@@@2@@std@@AEAAXXZ
	?_Tidy@?$vector@UFile@cpr@@V?$allocator@UFile@cpr@@@std@@@std@@AEAAXXZ
	?_Tidy@?$vector@UPair@cpr@@V?$allocator@UPair@cpr@@@std@@@std@@AEAAXXZ
	?_Tidy@?$vector@UParameter@cpr@@V?$allocator@UParameter@cpr@@@std@@@std@@AEAAXXZ
	?_Tidy@?$vector@UPart@cpr@@V?$allocator@UPart@cpr@@@std@@@std@@AEAAXXZ
	?_Tidy@?$vector@V?$basic_string@DU?$char_traits@D@std@@V?$allocator@D@2@@std@@V?$allocator@V?$basic_string@DU?$char_traits@D@std@@V?$allocator@D@2@@std@@@2@@std@@AEAAXXZ
	?_Tidy@?$vector@VCertInfo@cpr@@V?$allocator@VCertInfo@cpr@@@std@@@std@@AEAAXXZ
	?_Tidy@?$vector@VCookie@cpr@@V?$allocator@VCookie@cpr@@@std@@@std@@AEAAXXZ
	?_Tidy@?$vector@VResolve@cpr@@V?$allocator@VResolve@cpr@@@std@@@std@@AEAAXXZ
	?_Tidy@?$vector@VResponse@cpr@@V?$allocator@VResponse@cpr@@@std@@@std@@AEAAXXZ
	?_Tidy_deallocate@?$basic_string@DU?$char_traits@D@std@@V?$allocator@D@2@@std@@AEAAXXZ
	?_Tidy_init@?$basic_string@DU?$char_traits@D@std@@V?$allocator@D@2@@std@@AEAAXXZ
	?_Transfer_before@?$_List_node_emplace_op2@V?$allocator@U?$_List_node@UThreadData@ThreadPool@cpr@@PEAX@std@@@std@@@std@@QEAAPEAU?$_List_node@UThreadData@ThreadPool@cpr@@PEAX@2@QEAU32@@Z
	?_Unchecked_begin@?$_Hash@V?$_Uset_traits@V?$basic_string@DU?$char_traits@D@std@@V?$allocator@D@2@@std@@V?$_Uhash_compare@V?$basic_string@DU?$char_traits@D@std@@V?$allocator@D@2@@std@@U?$hash@V?$basic_string@DU?$char_traits@D@std@@V?$allocator@D@2@@std@@@2@U?$equal_to@V?$basic_string@DU?$char_traits@D@std@@V?$allocator@D@2@@std@@@2@@2@V?$allocator@V?$basic_string@DU?$char_traits@D@std@@V?$allocator@D@2@@std@@@2@$0A@@std@@@std@@QEAA?AV?$_List_unchecked_const_iterator@V?$_List_val@U?$_List_simple_types@V?$basic_string@DU?$char_traits@D@std@@V?$allocator@D@2@@std@@@std@@@std@@U_Iterator_base0@2@@2@XZ
	?_Unchecked_begin@?$_Tree@V?$_Tmap_traits@V?$basic_string@DU?$char_traits@D@std@@V?$allocator@D@2@@std@@V12@UCaseInsensitiveCompare@cpr@@V?$allocator@U?$pair@$$CBV?$basic_string@DU?$char_traits@D@std@@V?$allocator@D@2@@std@@V12@@std@@@2@$0A@@std@@@std@@QEAA?AV?$_Tree_unchecked_iterator@V?$_Tree_val@U?$_Tree_simple_types@U?$pair@$$CBV?$basic_string@DU?$char_traits@D@std@@V?$allocator@D@2@@std@@V12@@std@@@std@@@std@@@2@XZ
	?_Unchecked_begin@?$_Tree@V?$_Tmap_traits@V?$basic_string@DU?$char_traits@D@std@@V?$allocator@D@2@@std@@V12@UCaseInsensitiveCompare@cpr@@V?$allocator@U?$pair@$$CBV?$basic_string@DU?$char_traits@D@std@@V?$allocator@D@2@@std@@V12@@std@@@2@$0A@@std@@@std@@QEBA?AV?$_Tree_unchecked_const_iterator@V?$_Tree_val@U?$_Tree_simple_types@U?$pair@$$CBV?$basic_string@DU?$char_traits@D@std@@V?$allocator@D@2@@std@@V12@@std@@@std@@@std@@U_Iterator_base0@2@@2@XZ
	?_Unchecked_begin@?$_Tree@V?$_Tset_traits@GU?$less@G@std@@V?$allocator@G@2@$0A@@std@@@std@@QEBA?AV?$_Tree_unchecked_const_iterator@V?$_Tree_val@U?$_Tree_simple_types@G@std@@@std@@U_Iterator_base0@2@@2@XZ
	?_Unchecked_begin@?$deque@V?$function@$$A6AXXZ@std@@V?$allocator@V?$function@$$A6AXXZ@std@@@2@@std@@QEAA?AV?$_Deque_unchecked_iterator@V?$_Deque_val@U?$_Deque_simple_types@V?$function@$$A6AXXZ@std@@@std@@@std@@@2@XZ
	?_Unchecked_begin@?$deque@V?$shared_ptr@VInterceptor@cpr@@@std@@V?$allocator@V?$shared_ptr@VInterceptor@cpr@@@std@@@2@@std@@QEAA?AV?$_Deque_unchecked_iterator@V?$_Deque_val@U?$_Deque_simple_types@V?$shared_ptr@VInterceptor@cpr@@@std@@@std@@@std@@@2@XZ
	?_Unchecked_begin@?$deque@V?$shared_ptr@VInterceptorMulti@cpr@@@std@@V?$allocator@V?$shared_ptr@VInterceptorMulti@cpr@@@std@@@2@@std@@QEAA?AV?$_Deque_unchecked_iterator@V?$_Deque_val@U?$_Deque_simple_types@V?$shared_ptr@VInterceptorMulti@cpr@@@std@@@std@@@std@@@2@XZ
	?_Unchecked_begin@?$list@UThreadData@ThreadPool@cpr@@V?$allocator@UThreadData@ThreadPool@cpr@@@std@@@std@@QEAA?AV?$_List_unchecked_iterator@V?$_List_val@U?$_List_simple_types@UThreadData@ThreadPool@cpr@@@std@@@std@@@2@XZ
	?_Unchecked_begin@?$list@V?$basic_string@DU?$char_traits@D@std@@V?$allocator@D@2@@std@@V?$allocator@V?$basic_string@DU?$char_traits@D@std@@V?$allocator@D@2@@std@@@2@@std@@QEAA?AV?$_List_unchecked_iterator@V?$_List_val@U?$_List_simple_types@V?$basic_string@DU?$char_traits@D@std@@V?$allocator@D@2@@std@@@std@@@std@@@2@XZ
	?_Unchecked_begin@?$list@V?$basic_string@DU?$char_traits@D@std@@V?$allocator@D@2@@std@@V?$allocator@V?$basic_string@DU?$char_traits@D@std@@V?$allocator@D@2@@std@@@2@@std@@QEBA?AV?$_List_unchecked_const_iterator@V?$_List_val@U?$_List_simple_types@V?$basic_string@DU?$char_traits@D@std@@V?$allocator@D@2@@std@@@std@@@std@@U_Iterator_base0@2@@2@XZ
	?_Unchecked_begin@?$vector@U?$pair@V?$shared_ptr@VSession@cpr@@@std@@W4HttpMethod@MultiPerform@cpr@@@std@@V?$allocator@U?$pair@V?$shared_ptr@VSession@cpr@@@std@@W4HttpMethod@MultiPerform@cpr@@@std@@@2@@std@@QEAAPEAU?$pair@V?$shared_ptr@VSession@cpr@@@std@@W4HttpMethod@MultiPerform@cpr@@@2@XZ
	?_Unchecked_begin@?$vector@UPair@cpr@@V?$allocator@UPair@cpr@@@std@@@std@@QEBAPEBUPair@cpr@@XZ
	?_Unchecked_begin@?$vector@UParameter@cpr@@V?$allocator@UParameter@cpr@@@std@@@std@@QEBAPEBUParameter@cpr@@XZ
	?_Unchecked_begin@?$vector@UPart@cpr@@V?$allocator@UPart@cpr@@@std@@@std@@QEBAPEBUPart@cpr@@XZ
	?_Unchecked_begin@?$vector@V?$basic_string@DU?$char_traits@D@std@@V?$allocator@D@2@@std@@V?$allocator@V?$basic_string@DU?$char_traits@D@std@@V?$allocator@D@2@@std@@@2@@std@@QEAAPEAV?$basic_string@DU?$char_traits@D@std@@V?$allocator@D@2@@2@XZ
	?_Unchecked_begin@?$vector@VCookie@cpr@@V?$allocator@VCookie@cpr@@@std@@@std@@QEBAPEBVCookie@cpr@@XZ
	?_Unchecked_begin@?$vector@VRange@cpr@@V?$allocator@VRange@cpr@@@std@@@std@@QEBAPEBVRange@cpr@@XZ
	?_Unchecked_begin@?$vector@VResolve@cpr@@V?$allocator@VResolve@cpr@@@std@@@std@@QEBAPEBVResolve@cpr@@XZ
	?_Unchecked_end@?$_Hash@V?$_Uset_traits@V?$basic_string@DU?$char_traits@D@std@@V?$allocator@D@2@@std@@V?$_Uhash_compare@V?$basic_string@DU?$char_traits@D@std@@V?$allocator@D@2@@std@@U?$hash@V?$basic_string@DU?$char_traits@D@std@@V?$allocator@D@2@@std@@@2@U?$equal_to@V?$basic_string@DU?$char_traits@D@std@@V?$allocator@D@2@@std@@@2@@2@V?$allocator@V?$basic_string@DU?$char_traits@D@std@@V?$allocator@D@2@@std@@@2@$0A@@std@@@std@@QEAA?AV?$_List_unchecked_const_iterator@V?$_List_val@U?$_List_simple_types@V?$basic_string@DU?$char_traits@D@std@@V?$allocator@D@2@@std@@@std@@@std@@U_Iterator_base0@2@@2@XZ
	?_Unchecked_end@?$_Tree@V?$_Tmap_traits@V?$basic_string@DU?$char_traits@D@std@@V?$allocator@D@2@@std@@V12@UCaseInsensitiveCompare@cpr@@V?$allocator@U?$pair@$$CBV?$basic_string@DU?$char_traits@D@std@@V?$allocator@D@2@@std@@V12@@std@@@2@$0A@@std@@@std@@QEBA?AU_Default_sentinel@2@XZ
	?_Unchecked_end@?$_Tree@V?$_Tset_traits@GU?$less@G@std@@V?$allocator@G@2@$0A@@std@@@std@@QEBA?AU_Default_sentinel@2@XZ
	?_Unchecked_end@?$deque@V?$function@$$A6AXXZ@std@@V?$allocator@V?$function@$$A6AXXZ@std@@@2@@std@@QEAA?AV?$_Deque_unchecked_iterator@V?$_Deque_val@U?$_Deque_simple_types@V?$function@$$A6AXXZ@std@@@std@@@std@@@2@XZ
	?_Unchecked_end@?$list@UThreadData@ThreadPool@cpr@@V?$allocator@UThreadData@ThreadPool@cpr@@@std@@@std@@QEAA?AV?$_List_unchecked_iterator@V?$_List_val@U?$_List_simple_types@UThreadData@ThreadPool@cpr@@@std@@@std@@@2@XZ
	?_Unchecked_end@?$list@V?$basic_string@DU?$char_traits@D@std@@V?$allocator@D@2@@std@@V?$allocator@V?$basic_string@DU?$char_traits@D@std@@V?$allocator@D@2@@std@@@2@@std@@QEAA?AV?$_List_unchecked_iterator@V?$_List_val@U?$_List_simple_types@V?$basic_string@DU?$char_traits@D@std@@V?$allocator@D@2@@std@@@std@@@std@@@2@XZ
	?_Unchecked_end@?$list@V?$basic_string@DU?$char_traits@D@std@@V?$allocator@D@2@@std@@V?$allocator@V?$basic_string@DU?$char_traits@D@std@@V?$allocator@D@2@@std@@@2@@std@@QEBA?AV?$_List_unchecked_const_iterator@V?$_List_val@U?$_List_simple_types@V?$basic_string@DU?$char_traits@D@std@@V?$allocator@D@2@@std@@@std@@@std@@U_Iterator_base0@2@@2@XZ
	?_Unchecked_end@?$vector@U?$pair@V?$shared_ptr@VSession@cpr@@@std@@W4HttpMethod@MultiPerform@cpr@@@std@@V?$allocator@U?$pair@V?$shared_ptr@VSession@cpr@@@std@@W4HttpMethod@MultiPerform@cpr@@@std@@@2@@std@@QEAAPEAU?$pair@V?$shared_ptr@VSession@cpr@@@std@@W4HttpMethod@MultiPerform@cpr@@@2@XZ
	?_Unchecked_end@?$vector@UPair@cpr@@V?$allocator@UPair@cpr@@@std@@@std@@QEBAPEBUPair@cpr@@XZ
	?_Unchecked_end@?$vector@UParameter@cpr@@V?$allocator@UParameter@cpr@@@std@@@std@@QEBAPEBUParameter@cpr@@XZ
	?_Unchecked_end@?$vector@UPart@cpr@@V?$allocator@UPart@cpr@@@std@@@std@@QEBAPEBUPart@cpr@@XZ
	?_Unchecked_end@?$vector@V?$basic_string@DU?$char_traits@D@std@@V?$allocator@D@2@@std@@V?$allocator@V?$basic_string@DU?$char_traits@D@std@@V?$allocator@D@2@@std@@@2@@std@@QEAAPEAV?$basic_string@DU?$char_traits@D@std@@V?$allocator@D@2@@2@XZ
	?_Unchecked_end@?$vector@VCookie@cpr@@V?$allocator@VCookie@cpr@@@std@@@std@@QEBAPEBVCookie@cpr@@XZ
	?_Unchecked_end@?$vector@VRange@cpr@@V?$allocator@VRange@cpr@@@std@@@std@@QEBAPEBVRange@cpr@@XZ
	?_Unchecked_end@?$vector@VResolve@cpr@@V?$allocator@VResolve@cpr@@@std@@@std@@QEBAPEBVResolve@cpr@@XZ
	?_Unchecked_erase@?$_Hash@V?$_Uset_traits@V?$basic_string@DU?$char_traits@D@std@@V?$allocator@D@2@@std@@V?$_Uhash_compare@V?$basic_string@DU?$char_traits@D@std@@V?$allocator@D@2@@std@@U?$hash@V?$basic_string@DU?$char_traits@D@std@@V?$allocator@D@2@@std@@@2@U?$equal_to@V?$basic_string@DU?$char_traits@D@std@@V?$allocator@D@2@@std@@@2@@2@V?$allocator@V?$basic_string@DU?$char_traits@D@std@@V?$allocator@D@2@@std@@@2@$0A@@std@@@std@@AEAAPEAU?$_List_node@V?$basic_string@DU?$char_traits@D@std@@V?$allocator@D@2@@std@@PEAX@2@PEAU32@QEAU32@@Z
	?_Unchecked_erase@?$list@V?$basic_string@DU?$char_traits@D@std@@V?$allocator@D@2@@std@@V?$allocator@V?$basic_string@DU?$char_traits@D@std@@V?$allocator@D@2@@std@@@2@@std@@AEAAPEAU?$_List_node@V?$basic_string@DU?$char_traits@D@std@@V?$allocator@D@2@@std@@PEAX@2@PEAU32@QEAU32@@Z
	?_Unchecked_splice@?$_List_val@U?$_List_simple_types@V?$basic_string@DU?$char_traits@D@std@@V?$allocator@D@2@@std@@@std@@@std@@SAPEAU?$_List_node@V?$basic_string@DU?$char_traits@D@std@@V?$allocator@D@2@@std@@PEAX@2@QEAU32@00@Z
	?_Unlinknode@?$_List_val@U?$_List_simple_types@UThreadData@ThreadPool@cpr@@@std@@@std@@QEAAPEAU?$_List_node@UThreadData@ThreadPool@cpr@@PEAX@2@PEAU32@@Z
	?_Unregister@condition_variable@std@@QEAAXAEAVmutex@2@@Z
	?_Unwrapped@?$_List_const_iterator@V?$_List_val@U?$_List_simple_types@V?$basic_string@DU?$char_traits@D@std@@V?$allocator@D@2@@std@@@std@@@std@@@std@@QEBA?AV?$_List_unchecked_const_iterator@V?$_List_val@U?$_List_simple_types@V?$basic_string@DU?$char_traits@D@std@@V?$allocator@D@2@@std@@@std@@@std@@U_Iterator_base0@2@@2@XZ
	?_Unwrapped@?$_String_const_iterator@V?$_String_val@U?$_Simple_types@D@std@@@std@@@std@@QEBAPEBDXZ
	?_Unwrapped@?$_String_iterator@V?$_String_val@U?$_Simple_types@D@std@@@std@@@std@@QEBAPEADXZ
	?_Unwrapped@?$_Vector_iterator@V?$_Vector_val@U?$_Simple_types@U?$pair@V?$shared_ptr@VSession@cpr@@@std@@W4HttpMethod@MultiPerform@cpr@@@std@@@std@@@std@@@std@@QEBAPEAU?$pair@V?$shared_ptr@VSession@cpr@@@std@@W4HttpMethod@MultiPerform@cpr@@@2@XZ
	?_Unwrapped@?$_Vector_iterator@V?$_Vector_val@U?$_Simple_types@VResponse@cpr@@@std@@@std@@@std@@QEBAPEAVResponse@cpr@@XZ
	?_Verify_offset@?$_String_const_iterator@V?$_String_val@U?$_Simple_types@D@std@@@std@@@std@@QEBAX_J@Z
	?_Verify_ownership_levels@_Mutex_base@std@@IEAA_NXZ
	?_Verify_range@std@@YAXAEBV?$_List_const_iterator@V?$_List_val@U?$_List_simple_types@V?$basic_string@DU?$char_traits@D@std@@V?$allocator@D@2@@std@@@std@@@std@@@1@0@Z
	?_Verify_range@std@@YAXAEBV?$_String_const_iterator@V?$_String_val@U?$_Simple_types@D@std@@@std@@@1@0@Z
	?_Verify_range@std@@YAXAEBV?$_Vector_const_iterator@V?$_Vector_val@U?$_Simple_types@U?$pair@V?$shared_ptr@VSession@cpr@@@std@@W4HttpMethod@MultiPerform@cpr@@@std@@@std@@@std@@@1@0@Z
	?_Verify_range@std@@YAXAEBV?$_Vector_const_iterator@V?$_Vector_val@U?$_Simple_types@VResponse@cpr@@@std@@@std@@@1@0@Z
	?_Wait@?$_Associated_state@VResponse@cpr@@@std@@UEAAXXZ
	?_Wait_until_sys_time@condition_variable@std@@AEAA?AW4cv_status@2@AEAV?$unique_lock@Vmutex@std@@@2@PEBU_timespec64@@@Z
	?_Xlen@?$deque@V?$function@$$A6AXXZ@std@@V?$allocator@V?$function@$$A6AXXZ@std@@@2@@std@@CAXXZ
	?_Xlen@?$deque@V?$shared_ptr@VInterceptor@cpr@@@std@@V?$allocator@V?$shared_ptr@VInterceptor@cpr@@@std@@@2@@std@@CAXXZ
	?_Xlen@?$deque@V?$shared_ptr@VInterceptorMulti@cpr@@@std@@V?$allocator@V?$shared_ptr@VInterceptorMulti@cpr@@@std@@@2@@std@@CAXXZ
	?_Xlen_string@std@@YAXXZ
	?_Xlength@?$vector@U?$pair@V?$shared_ptr@VSession@cpr@@@std@@W4HttpMethod@MultiPerform@cpr@@@std@@V?$allocator@U?$pair@V?$shared_ptr@VSession@cpr@@@std@@W4HttpMethod@MultiPerform@cpr@@@std@@@2@@std@@CAXXZ
	?_Xlength@?$vector@UFile@cpr@@V?$allocator@UFile@cpr@@@std@@@std@@CAXXZ
	?_Xlength@?$vector@UPair@cpr@@V?$allocator@UPair@cpr@@@std@@@std@@CAXXZ
	?_Xlength@?$vector@UParameter@cpr@@V?$allocator@UParameter@cpr@@@std@@@std@@CAXXZ
	?_Xlength@?$vector@UPart@cpr@@V?$allocator@UPart@cpr@@@std@@@std@@CAXXZ
	?_Xlength@?$vector@V?$basic_string@DU?$char_traits@D@std@@V?$allocator@D@2@@std@@V?$allocator@V?$basic_string@DU?$char_traits@D@std@@V?$allocator@D@2@@std@@@2@@std@@CAXXZ
	?_Xlength@?$vector@VCertInfo@cpr@@V?$allocator@VCertInfo@cpr@@@std@@@std@@CAXXZ
	?_Xlength@?$vector@VCookie@cpr@@V?$allocator@VCookie@cpr@@@std@@@std@@CAXXZ
	?_Xlength@?$vector@VResolve@cpr@@V?$allocator@VResolve@cpr@@@std@@@std@@CAXXZ
	?_Xlength@?$vector@VResponse@cpr@@V?$allocator@VResponse@cpr@@@std@@@std@@CAXXZ
	?_Xran@?$_String_val@U?$_Simple_types@D@std@@@std@@SAXXZ
	?_Xrange@?$vector@V?$basic_string@DU?$char_traits@D@std@@V?$allocator@D@2@@std@@V?$allocator@V?$basic_string@DU?$char_traits@D@std@@V?$allocator@D@2@@std@@@2@@std@@CAXXZ
	?__empty_global_delete@@YAXPEAX@Z
	?__empty_global_delete@@YAXPEAXW4align_val_t@std@@@Z
	?__empty_global_delete@@YAXPEAX_K@Z
	?__empty_global_delete@@YAXPEAX_KW4align_val_t@std@@@Z
	?allocate@?$allocator@D@std@@QEAAPEAD_K@Z
	?allocate@?$allocator@PEAV?$function@$$A6AXXZ@std@@@std@@QEAAPEAPEAV?$function@$$A6AXXZ@2@_K@Z
	?allocate@?$allocator@PEAV?$shared_ptr@VInterceptor@cpr@@@std@@@std@@QEAAPEAPEAV?$shared_ptr@VInterceptor@cpr@@@2@_K@Z
	?allocate@?$allocator@PEAV?$shared_ptr@VInterceptorMulti@cpr@@@std@@@std@@QEAAPEAPEAV?$shared_ptr@VInterceptorMulti@cpr@@@2@_K@Z
	?allocate@?$allocator@U?$_List_node@UThreadData@ThreadPool@cpr@@PEAX@std@@@std@@QEAAPEAU?$_List_node@UThreadData@ThreadPool@cpr@@PEAX@2@_K@Z
	?allocate@?$allocator@U?$_List_node@V?$basic_string@DU?$char_traits@D@std@@V?$allocator@D@2@@std@@PEAX@std@@@std@@QEAAPEAU?$_List_node@V?$basic_string@DU?$char_traits@D@std@@V?$allocator@D@2@@std@@PEAX@2@_K@Z
	?allocate@?$allocator@U?$_Tree_node@GPEAX@std@@@std@@QEAAPEAU?$_Tree_node@GPEAX@2@_K@Z
	?allocate@?$allocator@U?$_Tree_node@U?$pair@$$CBV?$basic_string@DU?$char_traits@D@std@@V?$allocator@D@2@@std@@V12@@std@@PEAX@std@@@std@@QEAAPEAU?$_Tree_node@U?$pair@$$CBV?$basic_string@DU?$char_traits@D@std@@V?$allocator@D@2@@std@@V12@@std@@PEAX@2@_K@Z
	?allocate@?$allocator@U?$_Tree_node@U?$pair@$$CBV?$basic_string@DU?$char_traits@D@std@@V?$allocator@D@2@@std@@VEncodedAuthentication@cpr@@@std@@PEAX@std@@@std@@QEAAPEAU?$_Tree_node@U?$pair@$$CBV?$basic_string@DU?$char_traits@D@std@@V?$allocator@D@2@@std@@VEncodedAuthentication@cpr@@@std@@PEAX@2@_K@Z
	?allocate@?$allocator@U?$_Tree_node@U?$pair@$$CBW4AcceptEncodingMethods@cpr@@V?$basic_string@DU?$char_traits@D@std@@V?$allocator@D@2@@std@@@std@@PEAX@std@@@std@@QEAAPEAU?$_Tree_node@U?$pair@$$CBW4AcceptEncodingMethods@cpr@@V?$basic_string@DU?$char_traits@D@std@@V?$allocator@D@2@@std@@@std@@PEAX@2@_K@Z
	?allocate@?$allocator@U?$pair@V?$shared_ptr@VSession@cpr@@@std@@W4HttpMethod@MultiPerform@cpr@@@std@@@std@@QEAAPEAU?$pair@V?$shared_ptr@VSession@cpr@@@std@@W4HttpMethod@MultiPerform@cpr@@@2@_K@Z
	?allocate@?$allocator@UFile@cpr@@@std@@QEAAPEAUFile@cpr@@_K@Z
	?allocate@?$allocator@UPair@cpr@@@std@@QEAAPEAUPair@cpr@@_K@Z
	?allocate@?$allocator@UParameter@cpr@@@std@@QEAAPEAUParameter@cpr@@_K@Z
	?allocate@?$allocator@UPart@cpr@@@std@@QEAAPEAUPart@cpr@@_K@Z
	?allocate@?$allocator@U_Container_proxy@std@@@std@@QEAAPEAU_Container_proxy@2@_K@Z
	?allocate@?$allocator@V?$_List_unchecked_const_iterator@V?$_List_val@U?$_List_simple_types@V?$basic_string@DU?$char_traits@D@std@@V?$allocator@D@2@@std@@@std@@@std@@U_Iterator_base0@2@@std@@@std@@QEAAPEAV?$_List_unchecked_const_iterator@V?$_List_val@U?$_List_simple_types@V?$basic_string@DU?$char_traits@D@std@@V?$allocator@D@2@@std@@@std@@@std@@U_Iterator_base0@2@@2@_K@Z
	?allocate@?$allocator@V?$basic_string@DU?$char_traits@D@std@@V?$allocator@D@2@@std@@@std@@QEAAPEAV?$basic_string@DU?$char_traits@D@std@@V?$allocator@D@2@@2@_K@Z
	?allocate@?$allocator@V?$function@$$A6AXXZ@std@@@std@@QEAAPEAV?$function@$$A6AXXZ@2@_K@Z
	?allocate@?$allocator@V?$shared_ptr@VInterceptor@cpr@@@std@@@std@@QEAAPEAV?$shared_ptr@VInterceptor@cpr@@@2@_K@Z
	?allocate@?$allocator@V?$shared_ptr@VInterceptorMulti@cpr@@@std@@@std@@QEAAPEAV?$shared_ptr@VInterceptorMulti@cpr@@@2@_K@Z
	?allocate@?$allocator@VCertInfo@cpr@@@std@@QEAAPEAVCertInfo@cpr@@_K@Z
	?allocate@?$allocator@VCookie@cpr@@@std@@QEAAPEAVCookie@cpr@@_K@Z
	?allocate@?$allocator@VResolve@cpr@@@std@@QEAAPEAVResolve@cpr@@_K@Z
	?allocate@?$allocator@VResponse@cpr@@@std@@QEAAPEAVResponse@cpr@@_K@Z
	?any@cpr@@YA_NW4PostRedirectFlags@1@@Z
	?append@?$basic_string@DU?$char_traits@D@std@@V?$allocator@D@2@@std@@QEAAAEAV12@AEBV12@@Z
	?append@?$basic_string@DU?$char_traits@D@std@@V?$allocator@D@2@@std@@QEAAAEAV12@QEBD@Z
	?append@?$basic_string@DU?$char_traits@D@std@@V?$allocator@D@2@@std@@QEAAAEAV12@QEBD_K@Z
	?append@?$basic_string@DU?$char_traits@D@std@@V?$allocator@D@2@@std@@QEAAAEAV12@_KD@Z
	?assign@?$_Narrow_char_traits@DH@std@@SAPEADQEAD_KD@Z
	?assign@?$_Narrow_char_traits@DH@std@@SAXAEADAEBD@Z
	?assign@?$basic_string@DU?$char_traits@D@std@@V?$allocator@D@2@@std@@QEAAAEAV12@QEBD_K@Z
	?at@?$map@W4AcceptEncodingMethods@cpr@@V?$basic_string@DU?$char_traits@D@std@@V?$allocator@D@2@@std@@U?$less@W4AcceptEncodingMethods@cpr@@@4@V?$allocator@U?$pair@$$CBW4AcceptEncodingMethods@cpr@@V?$basic_string@DU?$char_traits@D@std@@V?$allocator@D@2@@std@@@std@@@4@@std@@QEBAAEBV?$basic_string@DU?$char_traits@D@std@@V?$allocator@D@2@@2@AEBW4AcceptEncodingMethods@cpr@@@Z
	?at@?$vector@V?$basic_string@DU?$char_traits@D@std@@V?$allocator@D@2@@std@@V?$allocator@V?$basic_string@DU?$char_traits@D@std@@V?$allocator@D@2@@std@@@2@@std@@QEAAAEAV?$basic_string@DU?$char_traits@D@std@@V?$allocator@D@2@@2@_K@Z
	?back@?$basic_string@DU?$char_traits@D@std@@V?$allocator@D@2@@std@@QEBAAEBDXZ
	?back@?$deque@V?$function@$$A6AXXZ@std@@V?$allocator@V?$function@$$A6AXXZ@std@@@2@@std@@QEAAAEAV?$function@$$A6AXXZ@2@XZ
	?begin@?$_Hash@V?$_Uset_traits@V?$basic_string@DU?$char_traits@D@std@@V?$allocator@D@2@@std@@V?$_Uhash_compare@V?$basic_string@DU?$char_traits@D@std@@V?$allocator@D@2@@std@@U?$hash@V?$basic_string@DU?$char_traits@D@std@@V?$allocator@D@2@@std@@@2@U?$equal_to@V?$basic_string@DU?$char_traits@D@std@@V?$allocator@D@2@@std@@@2@@2@V?$allocator@V?$basic_string@DU?$char_traits@D@std@@V?$allocator@D@2@@std@@@2@$0A@@std@@@std@@QEAA?AV?$_List_const_iterator@V?$_List_val@U?$_List_simple_types@V?$basic_string@DU?$char_traits@D@std@@V?$allocator@D@2@@std@@@std@@@std@@@2@XZ
	?begin@?$_Hash@V?$_Uset_traits@V?$basic_string@DU?$char_traits@D@std@@V?$allocator@D@2@@std@@V?$_Uhash_compare@V?$basic_string@DU?$char_traits@D@std@@V?$allocator@D@2@@std@@U?$hash@V?$basic_string@DU?$char_traits@D@std@@V?$allocator@D@2@@std@@@2@U?$equal_to@V?$basic_string@DU?$char_traits@D@std@@V?$allocator@D@2@@std@@@2@@2@V?$allocator@V?$basic_string@DU?$char_traits@D@std@@V?$allocator@D@2@@std@@@2@$0A@@std@@@std@@QEBA?AV?$_List_const_iterator@V?$_List_val@U?$_List_simple_types@V?$basic_string@DU?$char_traits@D@std@@V?$allocator@D@2@@std@@@std@@@std@@@2@XZ
	?begin@?$basic_string@DU?$char_traits@D@std@@V?$allocator@D@2@@std@@QEAA?AV?$_String_iterator@V?$_String_val@U?$_Simple_types@D@std@@@std@@@2@XZ
	?begin@?$basic_string@DU?$char_traits@D@std@@V?$allocator@D@2@@std@@QEBA?AV?$_String_const_iterator@V?$_String_val@U?$_Simple_types@D@std@@@std@@@2@XZ
	?begin@?$initializer_list@U?$pair@$$CBV?$basic_string@DU?$char_traits@D@std@@V?$allocator@D@2@@std@@V12@@std@@@std@@QEBAPEBU?$pair@$$CBV?$basic_string@DU?$char_traits@D@std@@V?$allocator@D@2@@std@@V12@@2@XZ
	?begin@?$initializer_list@U?$pair@$$CBW4AcceptEncodingMethods@cpr@@V?$basic_string@DU?$char_traits@D@std@@V?$allocator@D@2@@std@@@std@@@std@@QEBAPEBU?$pair@$$CBW4AcceptEncodingMethods@cpr@@V?$basic_string@DU?$char_traits@D@std@@V?$allocator@D@2@@std@@@2@XZ
	?begin@?$initializer_list@UPair@cpr@@@std@@QEBAPEBUPair@cpr@@XZ
	?begin@?$initializer_list@UParameter@cpr@@@std@@QEBAPEBUParameter@cpr@@XZ
	?begin@?$initializer_list@UPart@cpr@@@std@@QEBAPEBUPart@cpr@@XZ
	?begin@?$initializer_list@V?$basic_string@DU?$char_traits@D@std@@V?$allocator@D@2@@std@@@std@@QEBAPEBV?$basic_string@DU?$char_traits@D@std@@V?$allocator@D@2@@2@XZ
	?begin@?$initializer_list@VResolve@cpr@@@std@@QEBAPEBVResolve@cpr@@XZ
	?begin@?$initializer_list@W4AcceptEncodingMethods@cpr@@@std@@QEBAPEBW4AcceptEncodingMethods@cpr@@XZ
	?begin@?$list@UThreadData@ThreadPool@cpr@@V?$allocator@UThreadData@ThreadPool@cpr@@@std@@@std@@QEAA?AV?$_List_iterator@V?$_List_val@U?$_List_simple_types@UThreadData@ThreadPool@cpr@@@std@@@std@@@2@XZ
	?begin@?$list@V?$basic_string@DU?$char_traits@D@std@@V?$allocator@D@2@@std@@V?$allocator@V?$basic_string@DU?$char_traits@D@std@@V?$allocator@D@2@@std@@@2@@std@@QEAA?AV?$_List_iterator@V?$_List_val@U?$_List_simple_types@V?$basic_string@DU?$char_traits@D@std@@V?$allocator@D@2@@std@@@std@@@std@@@2@XZ
	?begin@?$list@V?$basic_string@DU?$char_traits@D@std@@V?$allocator@D@2@@std@@V?$allocator@V?$basic_string@DU?$char_traits@D@std@@V?$allocator@D@2@@std@@@2@@std@@QEBA?AV?$_List_const_iterator@V?$_List_val@U?$_List_simple_types@V?$basic_string@DU?$char_traits@D@std@@V?$allocator@D@2@@std@@@std@@@std@@@2@XZ
	?begin@?$vector@U?$pair@V?$shared_ptr@VSession@cpr@@@std@@W4HttpMethod@MultiPerform@cpr@@@std@@V?$allocator@U?$pair@V?$shared_ptr@VSession@cpr@@@std@@W4HttpMethod@MultiPerform@cpr@@@std@@@2@@std@@QEAA?AV?$_Vector_iterator@V?$_Vector_val@U?$_Simple_types@U?$pair@V?$shared_ptr@VSession@cpr@@@std@@W4HttpMethod@MultiPerform@cpr@@@std@@@std@@@std@@@2@XZ
	?begin@?$vector@UFile@cpr@@V?$allocator@UFile@cpr@@@std@@@std@@QEAA?AV?$_Vector_iterator@V?$_Vector_val@U?$_Simple_types@UFile@cpr@@@std@@@std@@@2@XZ
	?begin@?$vector@UFile@cpr@@V?$allocator@UFile@cpr@@@std@@@std@@QEBA?AV?$_Vector_const_iterator@V?$_Vector_val@U?$_Simple_types@UFile@cpr@@@std@@@std@@@2@XZ
	?begin@?$vector@V?$basic_string@DU?$char_traits@D@std@@V?$allocator@D@2@@std@@V?$allocator@V?$basic_string@DU?$char_traits@D@std@@V?$allocator@D@2@@std@@@2@@std@@QEAA?AV?$_Vector_iterator@V?$_Vector_val@U?$_Simple_types@V?$basic_string@DU?$char_traits@D@std@@V?$allocator@D@2@@std@@@std@@@std@@@2@XZ
	?begin@?$vector@V?$basic_string@DU?$char_traits@D@std@@V?$allocator@D@2@@std@@V?$allocator@V?$basic_string@DU?$char_traits@D@std@@V?$allocator@D@2@@std@@@2@@std@@QEBA?AV?$_Vector_const_iterator@V?$_Vector_val@U?$_Simple_types@V?$basic_string@DU?$char_traits@D@std@@V?$allocator@D@2@@std@@@std@@@std@@@2@XZ
	?begin@?$vector@VCookie@cpr@@V?$allocator@VCookie@cpr@@@std@@@std@@QEAA?AV?$_Vector_iterator@V?$_Vector_val@U?$_Simple_types@VCookie@cpr@@@std@@@std@@@2@XZ
	?begin@?$vector@VCookie@cpr@@V?$allocator@VCookie@cpr@@@std@@@std@@QEBA?AV?$_Vector_const_iterator@V?$_Vector_val@U?$_Simple_types@VCookie@cpr@@@std@@@std@@@2@XZ
	?begin@?$vector@VResponse@cpr@@V?$allocator@VResponse@cpr@@@std@@@std@@QEAA?AV?$_Vector_iterator@V?$_Vector_val@U?$_Simple_types@VResponse@cpr@@@std@@@std@@@2@XZ
	?begin@CertInfo@cpr@@QEAA?AV?$_Vector_iterator@V?$_Vector_val@U?$_Simple_types@V?$basic_string@DU?$char_traits@D@std@@V?$allocator@D@2@@std@@@std@@@std@@@std@@XZ
	?begin@CertInfo@cpr@@QEBA?AV?$_Vector_const_iterator@V?$_Vector_val@U?$_Simple_types@V?$basic_string@DU?$char_traits@D@std@@V?$allocator@D@2@@std@@@std@@@std@@@std@@XZ
	?begin@Cookies@cpr@@QEAA?AV?$_Vector_iterator@V?$_Vector_val@U?$_Simple_types@VCookie@cpr@@@std@@@std@@@std@@XZ
	?begin@Cookies@cpr@@QEBA?AV?$_Vector_const_iterator@V?$_Vector_val@U?$_Simple_types@VCookie@cpr@@@std@@@std@@@std@@XZ
	?begin@Files@cpr@@QEAA?AV?$_Vector_iterator@V?$_Vector_val@U?$_Simple_types@UFile@cpr@@@std@@@std@@@std@@XZ
	?begin@Files@cpr@@QEBA?AV?$_Vector_const_iterator@V?$_Vector_val@U?$_Simple_types@UFile@cpr@@@std@@@std@@@std@@XZ
	?bucket@?$_Hash@V?$_Uset_traits@V?$basic_string@DU?$char_traits@D@std@@V?$allocator@D@2@@std@@V?$_Uhash_compare@V?$basic_string@DU?$char_traits@D@std@@V?$allocator@D@2@@std@@U?$hash@V?$basic_string@DU?$char_traits@D@std@@V?$allocator@D@2@@std@@@2@U?$equal_to@V?$basic_string@DU?$char_traits@D@std@@V?$allocator@D@2@@std@@@2@@2@V?$allocator@V?$basic_string@DU?$char_traits@D@std@@V?$allocator@D@2@@std@@@2@$0A@@std@@@std@@QEBA_KAEBV?$basic_string@DU?$char_traits@D@std@@V?$allocator@D@2@@2@@Z
	?bucket_count@?$_Hash@V?$_Uset_traits@V?$basic_string@DU?$char_traits@D@std@@V?$allocator@D@2@@std@@V?$_Uhash_compare@V?$basic_string@DU?$char_traits@D@std@@V?$allocator@D@2@@std@@U?$hash@V?$basic_string@DU?$char_traits@D@std@@V?$allocator@D@2@@std@@@2@U?$equal_to@V?$basic_string@DU?$char_traits@D@std@@V?$allocator@D@2@@std@@@2@@2@V?$allocator@V?$basic_string@DU?$char_traits@D@std@@V?$allocator@D@2@@std@@@2@$0A@@std@@@std@@QEBA_KXZ
	?c_str@?$StringHolder@VBody@cpr@@@cpr@@QEBAPEBDXZ
	?c_str@?$StringHolder@VInterface@cpr@@@cpr@@QEBAPEBDXZ
	?c_str@?$StringHolder@VUrl@cpr@@@cpr@@QEBAPEBDXZ
	?c_str@?$StringHolder@VUserAgent@cpr@@@cpr@@QEBAPEBDXZ
	?c_str@?$basic_string@DU?$char_traits@D@std@@V?$allocator@D@2@@std@@QEBAPEBDXZ
	?capacity@?$_Hash_vec@V?$allocator@V?$_List_unchecked_const_iterator@V?$_List_val@U?$_List_simple_types@V?$basic_string@DU?$char_traits@D@std@@V?$allocator@D@2@@std@@@std@@@std@@U_Iterator_base0@2@@std@@@std@@@std@@QEBA_KXZ
	?capacity@?$vector@U?$pair@V?$shared_ptr@VSession@cpr@@@std@@W4HttpMethod@MultiPerform@cpr@@@std@@V?$allocator@U?$pair@V?$shared_ptr@VSession@cpr@@@std@@W4HttpMethod@MultiPerform@cpr@@@std@@@2@@std@@QEBA_KXZ
	?capacity@?$vector@UFile@cpr@@V?$allocator@UFile@cpr@@@std@@@std@@QEBA_KXZ
	?capacity@?$vector@UPair@cpr@@V?$allocator@UPair@cpr@@@std@@@std@@QEBA_KXZ
	?capacity@?$vector@UParameter@cpr@@V?$allocator@UParameter@cpr@@@std@@@std@@QEBA_KXZ
	?capacity@?$vector@V?$basic_string@DU?$char_traits@D@std@@V?$allocator@D@2@@std@@V?$allocator@V?$basic_string@DU?$char_traits@D@std@@V?$allocator@D@2@@std@@@2@@std@@QEBA_KXZ
	?capacity@?$vector@VCertInfo@cpr@@V?$allocator@VCertInfo@cpr@@@std@@@std@@QEBA_KXZ
	?capacity@?$vector@VCookie@cpr@@V?$allocator@VCookie@cpr@@@std@@@std@@QEBA_KXZ
	?capacity@?$vector@VResponse@cpr@@V?$allocator@VResponse@cpr@@@std@@@std@@QEBA_KXZ
	?category@error_code@std@@QEBAAEBVerror_category@2@XZ
	?category@error_condition@std@@QEBAAEBVerror_category@2@XZ
	?cbegin@?$vector@UFile@cpr@@V?$allocator@UFile@cpr@@@std@@@std@@QEBA?AV?$_Vector_const_iterator@V?$_Vector_val@U?$_Simple_types@UFile@cpr@@@std@@@std@@@2@XZ
	?cbegin@?$vector@V?$basic_string@DU?$char_traits@D@std@@V?$allocator@D@2@@std@@V?$allocator@V?$basic_string@DU?$char_traits@D@std@@V?$allocator@D@2@@std@@@2@@std@@QEBA?AV?$_Vector_const_iterator@V?$_Vector_val@U?$_Simple_types@V?$basic_string@DU?$char_traits@D@std@@V?$allocator@D@2@@std@@@std@@@std@@@2@XZ
	?cbegin@?$vector@VCookie@cpr@@V?$allocator@VCookie@cpr@@@std@@@std@@QEBA?AV?$_Vector_const_iterator@V?$_Vector_val@U?$_Simple_types@VCookie@cpr@@@std@@@std@@@2@XZ
	?cbegin@CertInfo@cpr@@QEBA?AV?$_Vector_const_iterator@V?$_Vector_val@U?$_Simple_types@V?$basic_string@DU?$char_traits@D@std@@V?$allocator@D@2@@std@@@std@@@std@@@std@@XZ
	?cbegin@Cookies@cpr@@QEBA?AV?$_Vector_const_iterator@V?$_Vector_val@U?$_Simple_types@VCookie@cpr@@@std@@@std@@@std@@XZ
	?cbegin@Files@cpr@@QEBA?AV?$_Vector_const_iterator@V?$_Vector_val@U?$_Simple_types@UFile@cpr@@@std@@@std@@@std@@XZ
	?cend@?$vector@UFile@cpr@@V?$allocator@UFile@cpr@@@std@@@std@@QEBA?AV?$_Vector_const_iterator@V?$_Vector_val@U?$_Simple_types@UFile@cpr@@@std@@@std@@@2@XZ
	?cend@?$vector@V?$basic_string@DU?$char_traits@D@std@@V?$allocator@D@2@@std@@V?$allocator@V?$basic_string@DU?$char_traits@D@std@@V?$allocator@D@2@@std@@@2@@std@@QEBA?AV?$_Vector_const_iterator@V?$_Vector_val@U?$_Simple_types@V?$basic_string@DU?$char_traits@D@std@@V?$allocator@D@2@@std@@@std@@@std@@@2@XZ
	?cend@?$vector@VCookie@cpr@@V?$allocator@VCookie@cpr@@@std@@@std@@QEBA?AV?$_Vector_const_iterator@V?$_Vector_val@U?$_Simple_types@VCookie@cpr@@@std@@@std@@@2@XZ
	?cend@CertInfo@cpr@@QEBA?AV?$_Vector_const_iterator@V?$_Vector_val@U?$_Simple_types@V?$basic_string@DU?$char_traits@D@std@@V?$allocator@D@2@@std@@@std@@@std@@@std@@XZ
	?cend@Cookies@cpr@@QEBA?AV?$_Vector_const_iterator@V?$_Vector_val@U?$_Simple_types@VCookie@cpr@@@std@@@std@@@std@@XZ
	?cend@Files@cpr@@QEBA?AV?$_Vector_const_iterator@V?$_Vector_val@U?$_Simple_types@UFile@cpr@@@std@@@std@@@std@@XZ
	?clear@?$_Hash@V?$_Uset_traits@V?$basic_string@DU?$char_traits@D@std@@V?$allocator@D@2@@std@@V?$_Uhash_compare@V?$basic_string@DU?$char_traits@D@std@@V?$allocator@D@2@@std@@U?$hash@V?$basic_string@DU?$char_traits@D@std@@V?$allocator@D@2@@std@@@2@U?$equal_to@V?$basic_string@DU?$char_traits@D@std@@V?$allocator@D@2@@std@@@2@@2@V?$allocator@V?$basic_string@DU?$char_traits@D@std@@V?$allocator@D@2@@std@@@2@$0A@@std@@@std@@QEAAXXZ
	?clear@?$_Tree@V?$_Tmap_traits@V?$basic_string@DU?$char_traits@D@std@@V?$allocator@D@2@@std@@V12@U?$less@V?$basic_string@DU?$char_traits@D@std@@V?$allocator@D@2@@std@@@2@V?$allocator@U?$pair@$$CBV?$basic_string@DU?$char_traits@D@std@@V?$allocator@D@2@@std@@V12@@std@@@2@$0A@@std@@@std@@QEAAXXZ
	?clear@?$_Tree@V?$_Tmap_traits@V?$basic_string@DU?$char_traits@D@std@@V?$allocator@D@2@@std@@V12@UCaseInsensitiveCompare@cpr@@V?$allocator@U?$pair@$$CBV?$basic_string@DU?$char_traits@D@std@@V?$allocator@D@2@@std@@V12@@std@@@2@$0A@@std@@@std@@QEAAXXZ
	?clear@?$_Tree@V?$_Tmap_traits@V?$basic_string@DU?$char_traits@D@std@@V?$allocator@D@2@@std@@VEncodedAuthentication@cpr@@U?$less@V?$basic_string@DU?$char_traits@D@std@@V?$allocator@D@2@@std@@@2@V?$allocator@U?$pair@$$CBV?$basic_string@DU?$char_traits@D@std@@V?$allocator@D@2@@std@@VEncodedAuthentication@cpr@@@std@@@2@$0A@@std@@@std@@QEAAXXZ
	?clear@?$basic_string@DU?$char_traits@D@std@@V?$allocator@D@2@@std@@QEAAXXZ
	?clear@?$list@UThreadData@ThreadPool@cpr@@V?$allocator@UThreadData@ThreadPool@cpr@@@std@@@std@@QEAAXXZ
	?clear@?$list@V?$basic_string@DU?$char_traits@D@std@@V?$allocator@D@2@@std@@V?$allocator@V?$basic_string@DU?$char_traits@D@std@@V?$allocator@D@2@@std@@@2@@std@@QEAAXXZ
	?compare@?$_Narrow_char_traits@DH@std@@SAHQEBD0_K@Z
	?compare@?$basic_string@DU?$char_traits@D@std@@V?$allocator@D@2@@std@@QEBAHAEBV12@@Z
	?copy@?$_Char_traits@DH@std@@SAPEADQEADQEBD_K@Z
	?count@?$_Tree@V?$_Tmap_traits@V?$basic_string@DU?$char_traits@D@std@@V?$allocator@D@2@@std@@V12@U?$less@V?$basic_string@DU?$char_traits@D@std@@V?$allocator@D@2@@std@@@2@V?$allocator@U?$pair@$$CBV?$basic_string@DU?$char_traits@D@std@@V?$allocator@D@2@@std@@V12@@std@@@2@$0A@@std@@@std@@QEBA_KAEBV?$basic_string@DU?$char_traits@D@std@@V?$allocator@D@2@@2@@Z
	?count@?$_Tree@V?$_Tmap_traits@V?$basic_string@DU?$char_traits@D@std@@V?$allocator@D@2@@std@@VEncodedAuthentication@cpr@@U?$less@V?$basic_string@DU?$char_traits@D@std@@V?$allocator@D@2@@std@@@2@V?$allocator@U?$pair@$$CBV?$basic_string@DU?$char_traits@D@std@@V?$allocator@D@2@@std@@VEncodedAuthentication@cpr@@@std@@@2@$0A@@std@@@std@@QEBA_KAEBV?$basic_string@DU?$char_traits@D@std@@V?$allocator@D@2@@2@@Z
	?count@?$duration@NU?$ratio@$00$00@std@@@chrono@std@@QEBANXZ
	?count@?$duration@NU?$ratio@$00$0DLJKMKAA@@std@@@chrono@std@@QEBANXZ
	?count@?$duration@_JU?$ratio@$00$00@std@@@chrono@std@@QEBA_JXZ
	?count@?$duration@_JU?$ratio@$00$0DLJKMKAA@@std@@@chrono@std@@QEBA_JXZ
	?count@?$duration@_JU?$ratio@$00$0DOI@@std@@@chrono@std@@QEBA_JXZ
	?count@?$duration@_JU?$ratio@$00$0JIJGIA@@std@@@chrono@std@@QEBA_JXZ
	?curl_easy_init_mutex_@CurlHolder@cpr@@CAAEAVmutex@std@@XZ
	?current_exception@std@@YA?AVexception_ptr@1@XZ
	?data@?$array@D$0BAA@@std@@QEAAPEADXZ
	?data@?$basic_string@DU?$char_traits@D@std@@V?$allocator@D@2@@std@@QEBAPEBDXZ
	?deallocate@?$_Default_allocator_traits@V?$allocator@U?$_List_node@UThreadData@ThreadPool@cpr@@PEAX@std@@@std@@@std@@SAXAEAV?$allocator@U?$_List_node@UThreadData@ThreadPool@cpr@@PEAX@std@@@2@QEAU?$_List_node@UThreadData@ThreadPool@cpr@@PEAX@2@_K@Z
	?deallocate@?$_Default_allocator_traits@V?$allocator@U?$_List_node@V?$basic_string@DU?$char_traits@D@std@@V?$allocator@D@2@@std@@PEAX@std@@@std@@@std@@SAXAEAV?$allocator@U?$_List_node@V?$basic_string@DU?$char_traits@D@std@@V?$allocator@D@2@@std@@PEAX@std@@@2@QEAU?$_List_node@V?$basic_string@DU?$char_traits@D@std@@V?$allocator@D@2@@std@@PEAX@2@_K@Z
	?deallocate@?$_Default_allocator_traits@V?$allocator@U?$_Tree_node@GPEAX@std@@@std@@@std@@SAXAEAV?$allocator@U?$_Tree_node@GPEAX@std@@@2@QEAU?$_Tree_node@GPEAX@2@_K@Z
	?deallocate@?$_Default_allocator_traits@V?$allocator@U?$_Tree_node@U?$pair@$$CBV?$basic_string@DU?$char_traits@D@std@@V?$allocator@D@2@@std@@V12@@std@@PEAX@std@@@std@@@std@@SAXAEAV?$allocator@U?$_Tree_node@U?$pair@$$CBV?$basic_string@DU?$char_traits@D@std@@V?$allocator@D@2@@std@@V12@@std@@PEAX@std@@@2@QEAU?$_Tree_node@U?$pair@$$CBV?$basic_string@DU?$char_traits@D@std@@V?$allocator@D@2@@std@@V12@@std@@PEAX@2@_K@Z
	?deallocate@?$_Default_allocator_traits@V?$allocator@U?$_Tree_node@U?$pair@$$CBV?$basic_string@DU?$char_traits@D@std@@V?$allocator@D@2@@std@@VEncodedAuthentication@cpr@@@std@@PEAX@std@@@std@@@std@@SAXAEAV?$allocator@U?$_Tree_node@U?$pair@$$CBV?$basic_string@DU?$char_traits@D@std@@V?$allocator@D@2@@std@@VEncodedAuthentication@cpr@@@std@@PEAX@std@@@2@QEAU?$_Tree_node@U?$pair@$$CBV?$basic_string@DU?$char_traits@D@std@@V?$allocator@D@2@@std@@VEncodedAuthentication@cpr@@@std@@PEAX@2@_K@Z
	?deallocate@?$_Default_allocator_traits@V?$allocator@U?$_Tree_node@U?$pair@$$CBW4AcceptEncodingMethods@cpr@@V?$basic_string@DU?$char_traits@D@std@@V?$allocator@D@2@@std@@@std@@PEAX@std@@@std@@@std@@SAXAEAV?$allocator@U?$_Tree_node@U?$pair@$$CBW4AcceptEncodingMethods@cpr@@V?$basic_string@DU?$char_traits@D@std@@V?$allocator@D@2@@std@@@std@@PEAX@std@@@2@QEAU?$_Tree_node@U?$pair@$$CBW4AcceptEncodingMethods@cpr@@V?$basic_string@DU?$char_traits@D@std@@V?$allocator@D@2@@std@@@std@@PEAX@2@_K@Z
	?deallocate@?$_Default_allocator_traits@V?$allocator@U_Container_proxy@std@@@std@@@std@@SAXAEAV?$allocator@U_Container_proxy@std@@@2@QEAU_Container_proxy@2@_K@Z
	?deallocate@?$allocator@D@std@@QEAAXQEAD_K@Z
	?deallocate@?$allocator@PEAV?$function@$$A6AXXZ@std@@@std@@QEAAXQEAPEAV?$function@$$A6AXXZ@2@_K@Z
	?deallocate@?$allocator@PEAV?$shared_ptr@VInterceptor@cpr@@@std@@@std@@QEAAXQEAPEAV?$shared_ptr@VInterceptor@cpr@@@2@_K@Z
	?deallocate@?$allocator@PEAV?$shared_ptr@VInterceptorMulti@cpr@@@std@@@std@@QEAAXQEAPEAV?$shared_ptr@VInterceptorMulti@cpr@@@2@_K@Z
	?deallocate@?$allocator@U?$_List_node@UThreadData@ThreadPool@cpr@@PEAX@std@@@std@@QEAAXQEAU?$_List_node@UThreadData@ThreadPool@cpr@@PEAX@2@_K@Z
	?deallocate@?$allocator@U?$_List_node@V?$basic_string@DU?$char_traits@D@std@@V?$allocator@D@2@@std@@PEAX@std@@@std@@QEAAXQEAU?$_List_node@V?$basic_string@DU?$char_traits@D@std@@V?$allocator@D@2@@std@@PEAX@2@_K@Z
	?deallocate@?$allocator@U?$_Tree_node@GPEAX@std@@@std@@QEAAXQEAU?$_Tree_node@GPEAX@2@_K@Z
	?deallocate@?$allocator@U?$_Tree_node@U?$pair@$$CBV?$basic_string@DU?$char_traits@D@std@@V?$allocator@D@2@@std@@V12@@std@@PEAX@std@@@std@@QEAAXQEAU?$_Tree_node@U?$pair@$$CBV?$basic_string@DU?$char_traits@D@std@@V?$allocator@D@2@@std@@V12@@std@@PEAX@2@_K@Z
	?deallocate@?$allocator@U?$_Tree_node@U?$pair@$$CBV?$basic_string@DU?$char_traits@D@std@@V?$allocator@D@2@@std@@VEncodedAuthentication@cpr@@@std@@PEAX@std@@@std@@QEAAXQEAU?$_Tree_node@U?$pair@$$CBV?$basic_string@DU?$char_traits@D@std@@V?$allocator@D@2@@std@@VEncodedAuthentication@cpr@@@std@@PEAX@2@_K@Z
	?deallocate@?$allocator@U?$_Tree_node@U?$pair@$$CBW4AcceptEncodingMethods@cpr@@V?$basic_string@DU?$char_traits@D@std@@V?$allocator@D@2@@std@@@std@@PEAX@std@@@std@@QEAAXQEAU?$_Tree_node@U?$pair@$$CBW4AcceptEncodingMethods@cpr@@V?$basic_string@DU?$char_traits@D@std@@V?$allocator@D@2@@std@@@std@@PEAX@2@_K@Z
	?deallocate@?$allocator@U?$pair@V?$shared_ptr@VSession@cpr@@@std@@W4HttpMethod@MultiPerform@cpr@@@std@@@std@@QEAAXQEAU?$pair@V?$shared_ptr@VSession@cpr@@@std@@W4HttpMethod@MultiPerform@cpr@@@2@_K@Z
	?deallocate@?$allocator@UFile@cpr@@@std@@QEAAXQEAUFile@cpr@@_K@Z
	?deallocate@?$allocator@UPair@cpr@@@std@@QEAAXQEAUPair@cpr@@_K@Z
	?deallocate@?$allocator@UParameter@cpr@@@std@@QEAAXQEAUParameter@cpr@@_K@Z
	?deallocate@?$allocator@UPart@cpr@@@std@@QEAAXQEAUPart@cpr@@_K@Z
	?deallocate@?$allocator@V?$_List_unchecked_const_iterator@V?$_List_val@U?$_List_simple_types@V?$basic_string@DU?$char_traits@D@std@@V?$allocator@D@2@@std@@@std@@@std@@U_Iterator_base0@2@@std@@@std@@QEAAXQEAV?$_List_unchecked_const_iterator@V?$_List_val@U?$_List_simple_types@V?$basic_string@DU?$char_traits@D@std@@V?$allocator@D@2@@std@@@std@@@std@@U_Iterator_base0@2@@2@_K@Z
	?deallocate@?$allocator@V?$basic_string@DU?$char_traits@D@std@@V?$allocator@D@2@@std@@@std@@QEAAXQEAV?$basic_string@DU?$char_traits@D@std@@V?$allocator@D@2@@2@_K@Z
	?deallocate@?$allocator@V?$function@$$A6AXXZ@std@@@std@@QEAAXQEAV?$function@$$A6AXXZ@2@_K@Z
	?deallocate@?$allocator@V?$shared_ptr@VInterceptor@cpr@@@std@@@std@@QEAAXQEAV?$shared_ptr@VInterceptor@cpr@@@2@_K@Z
	?deallocate@?$allocator@V?$shared_ptr@VInterceptorMulti@cpr@@@std@@@std@@QEAAXQEAV?$shared_ptr@VInterceptorMulti@cpr@@@2@_K@Z
	?deallocate@?$allocator@VCertInfo@cpr@@@std@@QEAAXQEAVCertInfo@cpr@@_K@Z
	?deallocate@?$allocator@VCookie@cpr@@@std@@QEAAXQEAVCookie@cpr@@_K@Z
	?deallocate@?$allocator@VResolve@cpr@@@std@@QEAAXQEAVResolve@cpr@@_K@Z
	?deallocate@?$allocator@VResponse@cpr@@@std@@QEAAXQEAVResponse@cpr@@_K@Z
	?debugUserFunction@util@cpr@@YAHPEAXW4curl_infotype@@PEAD_KPEBVDebugCallback@2@@Z
	?default_error_condition@error_category@std@@UEBA?AVerror_condition@2@H@Z
	?disabled@AcceptEncoding@cpr@@QEBA_NXZ
	?emplace_back@CertInfo@cpr@@QEAAXAEBV?$basic_string@DU?$char_traits@D@std@@V?$allocator@D@2@@std@@@Z
	?emplace_back@Cookies@cpr@@QEAAXAEBVCookie@2@@Z
	?emplace_back@Files@cpr@@QEAAXAEBUFile@2@@Z
	?empty@?$_Hash@V?$_Uset_traits@V?$basic_string@DU?$char_traits@D@std@@V?$allocator@D@2@@std@@V?$_Uhash_compare@V?$basic_string@DU?$char_traits@D@std@@V?$allocator@D@2@@std@@U?$hash@V?$basic_string@DU?$char_traits@D@std@@V?$allocator@D@2@@std@@@2@U?$equal_to@V?$basic_string@DU?$char_traits@D@std@@V?$allocator@D@2@@std@@@2@@2@V?$allocator@V?$basic_string@DU?$char_traits@D@std@@V?$allocator@D@2@@std@@@2@$0A@@std@@@std@@QEBA_NXZ
	?empty@?$basic_string@DU?$char_traits@D@std@@V?$allocator@D@2@@std@@QEBA_NXZ
	?empty@?$deque@V?$function@$$A6AXXZ@std@@V?$allocator@V?$function@$$A6AXXZ@std@@@2@@std@@QEBA_NXZ
	?empty@?$deque@V?$shared_ptr@VInterceptor@cpr@@@std@@V?$allocator@V?$shared_ptr@VInterceptor@cpr@@@std@@@2@@std@@QEBA_NXZ
	?empty@?$deque@V?$shared_ptr@VInterceptorMulti@cpr@@@std@@V?$allocator@V?$shared_ptr@VInterceptorMulti@cpr@@@std@@@2@@std@@QEBA_NXZ
	?empty@?$list@V?$basic_string@DU?$char_traits@D@std@@V?$allocator@D@2@@std@@V?$allocator@V?$basic_string@DU?$char_traits@D@std@@V?$allocator@D@2@@std@@@2@@std@@QEBA_NXZ
	?empty@?$queue@V?$function@$$A6AXXZ@std@@V?$deque@V?$function@$$A6AXXZ@std@@V?$allocator@V?$function@$$A6AXXZ@std@@@2@@2@@std@@QEBA_NXZ
	?empty@?$queue@V?$shared_ptr@VInterceptor@cpr@@@std@@V?$deque@V?$shared_ptr@VInterceptor@cpr@@@std@@V?$allocator@V?$shared_ptr@VInterceptor@cpr@@@std@@@2@@2@@std@@QEBA_NXZ
	?empty@?$queue@V?$shared_ptr@VInterceptorMulti@cpr@@@std@@V?$deque@V?$shared_ptr@VInterceptorMulti@cpr@@@std@@V?$allocator@V?$shared_ptr@VInterceptorMulti@cpr@@@std@@@2@@2@@std@@QEBA_NXZ
	?empty@?$vector@U?$pair@V?$shared_ptr@VSession@cpr@@@std@@W4HttpMethod@MultiPerform@cpr@@@std@@V?$allocator@U?$pair@V?$shared_ptr@VSession@cpr@@@std@@W4HttpMethod@MultiPerform@cpr@@@std@@@2@@std@@QEBA_NXZ
	?empty@AcceptEncoding@cpr@@QEBA_NXZ
	?end@?$_Hash@V?$_Uset_traits@V?$basic_string@DU?$char_traits@D@std@@V?$allocator@D@2@@std@@V?$_Uhash_compare@V?$basic_string@DU?$char_traits@D@std@@V?$allocator@D@2@@std@@U?$hash@V?$basic_string@DU?$char_traits@D@std@@V?$allocator@D@2@@std@@@2@U?$equal_to@V?$basic_string@DU?$char_traits@D@std@@V?$allocator@D@2@@std@@@2@@2@V?$allocator@V?$basic_string@DU?$char_traits@D@std@@V?$allocator@D@2@@std@@@2@$0A@@std@@@std@@QEBA?AV?$_List_const_iterator@V?$_List_val@U?$_List_simple_types@V?$basic_string@DU?$char_traits@D@std@@V?$allocator@D@2@@std@@@std@@@std@@@2@XZ
	?end@?$_Tree@V?$_Tmap_traits@V?$basic_string@DU?$char_traits@D@std@@V?$allocator@D@2@@std@@V12@UCaseInsensitiveCompare@cpr@@V?$allocator@U?$pair@$$CBV?$basic_string@DU?$char_traits@D@std@@V?$allocator@D@2@@std@@V12@@std@@@2@$0A@@std@@@std@@QEAA?AV?$_Tree_iterator@V?$_Tree_val@U?$_Tree_simple_types@U?$pair@$$CBV?$basic_string@DU?$char_traits@D@std@@V?$allocator@D@2@@std@@V12@@std@@@std@@@std@@@2@XZ
	?end@?$basic_string@DU?$char_traits@D@std@@V?$allocator@D@2@@std@@QEAA?AV?$_String_iterator@V?$_String_val@U?$_Simple_types@D@std@@@std@@@2@XZ
	?end@?$basic_string@DU?$char_traits@D@std@@V?$allocator@D@2@@std@@QEBA?AV?$_String_const_iterator@V?$_String_val@U?$_Simple_types@D@std@@@std@@@2@XZ
	?end@?$initializer_list@U?$pair@$$CBV?$basic_string@DU?$char_traits@D@std@@V?$allocator@D@2@@std@@V12@@std@@@std@@QEBAPEBU?$pair@$$CBV?$basic_string@DU?$char_traits@D@std@@V?$allocator@D@2@@std@@V12@@2@XZ
	?end@?$initializer_list@U?$pair@$$CBW4AcceptEncodingMethods@cpr@@V?$basic_string@DU?$char_traits@D@std@@V?$allocator@D@2@@std@@@std@@@std@@QEBAPEBU?$pair@$$CBW4AcceptEncodingMethods@cpr@@V?$basic_string@DU?$char_traits@D@std@@V?$allocator@D@2@@std@@@2@XZ
	?end@?$initializer_list@UPair@cpr@@@std@@QEBAPEBUPair@cpr@@XZ
	?end@?$initializer_list@UParameter@cpr@@@std@@QEBAPEBUParameter@cpr@@XZ
	?end@?$initializer_list@UPart@cpr@@@std@@QEBAPEBUPart@cpr@@XZ
	?end@?$initializer_list@V?$basic_string@DU?$char_traits@D@std@@V?$allocator@D@2@@std@@@std@@QEBAPEBV?$basic_string@DU?$char_traits@D@std@@V?$allocator@D@2@@2@XZ
	?end@?$initializer_list@VResolve@cpr@@@std@@QEBAPEBVResolve@cpr@@XZ
	?end@?$initializer_list@W4AcceptEncodingMethods@cpr@@@std@@QEBAPEBW4AcceptEncodingMethods@cpr@@XZ
	?end@?$list@UThreadData@ThreadPool@cpr@@V?$allocator@UThreadData@ThreadPool@cpr@@@std@@@std@@QEAA?AV?$_List_iterator@V?$_List_val@U?$_List_simple_types@UThreadData@ThreadPool@cpr@@@std@@@std@@@2@XZ
	?end@?$list@V?$basic_string@DU?$char_traits@D@std@@V?$allocator@D@2@@std@@V?$allocator@V?$basic_string@DU?$char_traits@D@std@@V?$allocator@D@2@@std@@@2@@std@@QEBA?AV?$_List_const_iterator@V?$_List_val@U?$_List_simple_types@V?$basic_string@DU?$char_traits@D@std@@V?$allocator@D@2@@std@@@std@@@std@@@2@XZ
	?end@?$vector@U?$pair@V?$shared_ptr@VSession@cpr@@@std@@W4HttpMethod@MultiPerform@cpr@@@std@@V?$allocator@U?$pair@V?$shared_ptr@VSession@cpr@@@std@@W4HttpMethod@MultiPerform@cpr@@@std@@@2@@std@@QEAA?AV?$_Vector_iterator@V?$_Vector_val@U?$_Simple_types@U?$pair@V?$shared_ptr@VSession@cpr@@@std@@W4HttpMethod@MultiPerform@cpr@@@std@@@std@@@std@@@2@XZ
	?end@?$vector@UFile@cpr@@V?$allocator@UFile@cpr@@@std@@@std@@QEAA?AV?$_Vector_iterator@V?$_Vector_val@U?$_Simple_types@UFile@cpr@@@std@@@std@@@2@XZ
	?end@?$vector@UFile@cpr@@V?$allocator@UFile@cpr@@@std@@@std@@QEBA?AV?$_Vector_const_iterator@V?$_Vector_val@U?$_Simple_types@UFile@cpr@@@std@@@std@@@2@XZ
	?end@?$vector@V?$basic_string@DU?$char_traits@D@std@@V?$allocator@D@2@@std@@V?$allocator@V?$basic_string@DU?$char_traits@D@std@@V?$allocator@D@2@@std@@@2@@std@@QEAA?AV?$_Vector_iterator@V?$_Vector_val@U?$_Simple_types@V?$basic_string@DU?$char_traits@D@std@@V?$allocator@D@2@@std@@@std@@@std@@@2@XZ
	?end@?$vector@V?$basic_string@DU?$char_traits@D@std@@V?$allocator@D@2@@std@@V?$allocator@V?$basic_string@DU?$char_traits@D@std@@V?$allocator@D@2@@std@@@2@@std@@QEBA?AV?$_Vector_const_iterator@V?$_Vector_val@U?$_Simple_types@V?$basic_string@DU?$char_traits@D@std@@V?$allocator@D@2@@std@@@std@@@std@@@2@XZ
	?end@?$vector@VCookie@cpr@@V?$allocator@VCookie@cpr@@@std@@@std@@QEAA?AV?$_Vector_iterator@V?$_Vector_val@U?$_Simple_types@VCookie@cpr@@@std@@@std@@@2@XZ
	?end@?$vector@VCookie@cpr@@V?$allocator@VCookie@cpr@@@std@@@std@@QEBA?AV?$_Vector_const_iterator@V?$_Vector_val@U?$_Simple_types@VCookie@cpr@@@std@@@std@@@2@XZ
	?end@?$vector@VResponse@cpr@@V?$allocator@VResponse@cpr@@@std@@@std@@QEAA?AV?$_Vector_iterator@V?$_Vector_val@U?$_Simple_types@VResponse@cpr@@@std@@@std@@@2@XZ
	?end@CertInfo@cpr@@QEAA?AV?$_Vector_iterator@V?$_Vector_val@U?$_Simple_types@V?$basic_string@DU?$char_traits@D@std@@V?$allocator@D@2@@std@@@std@@@std@@@std@@XZ
	?end@CertInfo@cpr@@QEBA?AV?$_Vector_const_iterator@V?$_Vector_val@U?$_Simple_types@V?$basic_string@DU?$char_traits@D@std@@V?$allocator@D@2@@std@@@std@@@std@@@std@@XZ
	?end@Cookies@cpr@@QEAA?AV?$_Vector_iterator@V?$_Vector_val@U?$_Simple_types@VCookie@cpr@@@std@@@std@@@std@@XZ
	?end@Cookies@cpr@@QEBA?AV?$_Vector_const_iterator@V?$_Vector_val@U?$_Simple_types@VCookie@cpr@@@std@@@std@@@std@@XZ
	?end@Files@cpr@@QEAA?AV?$_Vector_iterator@V?$_Vector_val@U?$_Simple_types@UFile@cpr@@@std@@@std@@@std@@XZ
	?end@Files@cpr@@QEBA?AV?$_Vector_const_iterator@V?$_Vector_val@U?$_Simple_types@UFile@cpr@@@std@@@std@@@std@@XZ
	?eof@?$_Narrow_char_traits@DH@std@@SAHXZ
	?eq@?$_Narrow_char_traits@DH@std@@SA_NDD@Z
	?eq_int_type@?$_Narrow_char_traits@DH@std@@SA_NHH@Z
	?equivalent@error_category@std@@UEBA_NAEBVerror_code@2@H@Z
	?equivalent@error_category@std@@UEBA_NHAEBVerror_condition@2@@Z
	?erase@?$basic_string@DU?$char_traits@D@std@@V?$allocator@D@2@@std@@QEAAAEAV12@_K0@Z
	?erase@?$basic_string@DU?$char_traits@D@std@@V?$allocator@D@2@@std@@QEAAAEAV12@_K@Z
	?erase@?$list@UThreadData@ThreadPool@cpr@@V?$allocator@UThreadData@ThreadPool@cpr@@@std@@@std@@QEAA?AV?$_List_iterator@V?$_List_val@U?$_List_simple_types@UThreadData@ThreadPool@cpr@@@std@@@std@@@2@V?$_List_const_iterator@V?$_List_val@U?$_List_simple_types@UThreadData@ThreadPool@cpr@@@std@@@std@@@2@@Z
	?erase@?$vector@U?$pair@V?$shared_ptr@VSession@cpr@@@std@@W4HttpMethod@MultiPerform@cpr@@@std@@V?$allocator@U?$pair@V?$shared_ptr@VSession@cpr@@@std@@W4HttpMethod@MultiPerform@cpr@@@std@@@2@@std@@QEAA?AV?$_Vector_iterator@V?$_Vector_val@U?$_Simple_types@U?$pair@V?$shared_ptr@VSession@cpr@@@std@@W4HttpMethod@MultiPerform@cpr@@@std@@@std@@@std@@@2@V?$_Vector_const_iterator@V?$_Vector_val@U?$_Simple_types@U?$pair@V?$shared_ptr@VSession@cpr@@@std@@W4HttpMethod@MultiPerform@cpr@@@std@@@std@@@std@@@2@@Z
	?erase@?$vector@VResponse@cpr@@V?$allocator@VResponse@cpr@@@std@@@std@@QEAA?AV?$_Vector_iterator@V?$_Vector_val@U?$_Simple_types@VResponse@cpr@@@std@@@std@@@2@V?$_Vector_const_iterator@V?$_Vector_val@U?$_Simple_types@VResponse@cpr@@@std@@@std@@@2@@Z
	?failed@?$ostreambuf_iterator@DU?$char_traits@D@std@@@std@@QEBA_NXZ
	?find@?$_Narrow_char_traits@DH@std@@SAPEBDQEBD_KAEBD@Z
	?find@?$_Tree@V?$_Tmap_traits@V?$basic_string@DU?$char_traits@D@std@@V?$allocator@D@2@@std@@V12@UCaseInsensitiveCompare@cpr@@V?$allocator@U?$pair@$$CBV?$basic_string@DU?$char_traits@D@std@@V?$allocator@D@2@@std@@V12@@std@@@2@$0A@@std@@@std@@QEAA?AV?$_Tree_iterator@V?$_Tree_val@U?$_Tree_simple_types@U?$pair@$$CBV?$basic_string@DU?$char_traits@D@std@@V?$allocator@D@2@@std@@V12@@std@@@std@@@std@@@2@AEBV?$basic_string@DU?$char_traits@D@std@@V?$allocator@D@2@@2@@Z
	?find@?$basic_string@DU?$char_traits@D@std@@V?$allocator@D@2@@std@@QEBA_KD_K@Z
	?find_first_not_of@?$basic_string@DU?$char_traits@D@std@@V?$allocator@D@2@@std@@QEBA_KQEBD_K@Z
	?find_first_of@?$basic_string@DU?$char_traits@D@std@@V?$allocator@D@2@@std@@QEBA_KQEBD_K@Z
	?find_last_not_of@?$basic_string@DU?$char_traits@D@std@@V?$allocator@D@2@@std@@QEBA_KQEBD_K@Z
	?from_time_t@system_clock@chrono@std@@SA?AV?$time_point@Usystem_clock@chrono@std@@V?$duration@_JU?$ratio@$00$0JIJGIA@@std@@@23@@23@_J@Z
	?front@?$basic_string@DU?$char_traits@D@std@@V?$allocator@D@2@@std@@QEAAAEADXZ
	?front@?$basic_string@DU?$char_traits@D@std@@V?$allocator@D@2@@std@@QEBAAEBDXZ
	?front@?$deque@V?$function@$$A6AXXZ@std@@V?$allocator@V?$function@$$A6AXXZ@std@@@2@@std@@QEAAAEAV?$function@$$A6AXXZ@2@XZ
	?front@?$deque@V?$shared_ptr@VInterceptor@cpr@@@std@@V?$allocator@V?$shared_ptr@VInterceptor@cpr@@@std@@@2@@std@@QEAAAEAV?$shared_ptr@VInterceptor@cpr@@@2@XZ
	?front@?$deque@V?$shared_ptr@VInterceptorMulti@cpr@@@std@@V?$allocator@V?$shared_ptr@VInterceptorMulti@cpr@@@std@@@2@@std@@QEAAAEAV?$shared_ptr@VInterceptorMulti@cpr@@@2@XZ
	?front@?$queue@V?$function@$$A6AXXZ@std@@V?$deque@V?$function@$$A6AXXZ@std@@V?$allocator@V?$function@$$A6AXXZ@std@@@2@@2@@std@@QEAAAEAV?$function@$$A6AXXZ@2@XZ
	?front@?$queue@V?$shared_ptr@VInterceptor@cpr@@@std@@V?$deque@V?$shared_ptr@VInterceptor@cpr@@@std@@V?$allocator@V?$shared_ptr@VInterceptor@cpr@@@std@@@2@@2@@std@@QEAAAEAV?$shared_ptr@VInterceptor@cpr@@@2@XZ
	?front@?$queue@V?$shared_ptr@VInterceptorMulti@cpr@@@std@@V?$deque@V?$shared_ptr@VInterceptorMulti@cpr@@@std@@V?$allocator@V?$shared_ptr@VInterceptorMulti@cpr@@@std@@@2@@2@@std@@QEAAAEAV?$shared_ptr@VInterceptorMulti@cpr@@@2@XZ
	?front@?$vector@U?$pair@V?$shared_ptr@VSession@cpr@@@std@@W4HttpMethod@MultiPerform@cpr@@@std@@V?$allocator@U?$pair@V?$shared_ptr@VSession@cpr@@@std@@W4HttpMethod@MultiPerform@cpr@@@std@@@2@@std@@QEAAAEAU?$pair@V?$shared_ptr@VSession@cpr@@@std@@W4HttpMethod@MultiPerform@cpr@@@2@XZ
	?future_category@std@@YAAEBVerror_category@1@XZ
	?get@?$_Ptr_base@U?$atomic@_N@std@@@std@@IEBAPEAU?$atomic@_N@2@XZ
	?get@?$_Ptr_base@UCurlHolder@cpr@@@std@@IEBAPEAUCurlHolder@cpr@@XZ
	?get@?$_Ptr_base@V?$packaged_task@$$A6A?AVResponse@cpr@@XZ@std@@@std@@IEBAPEAV?$packaged_task@$$A6A?AVResponse@cpr@@XZ@2@XZ
	?get@?$_Ptr_base@VInterceptor@cpr@@@std@@IEBAPEAVInterceptor@cpr@@XZ
	?get@?$_Ptr_base@VInterceptorMulti@cpr@@@std@@IEBAPEAVInterceptorMulti@cpr@@XZ
	?get@?$_Ptr_base@VSession@cpr@@@std@@IEBAPEAVSession@cpr@@XZ
	?get@?$_Ptr_base@Vthread@std@@@std@@IEBAPEAVthread@2@XZ
	?getErrorCodeForCurlError@Error@cpr@@CA?AW4ErrorCode@2@H@Z
	?getString@AcceptEncoding@cpr@@QEBA?BV?$basic_string@DU?$char_traits@D@std@@V?$allocator@D@2@@std@@XZ
	?get_allocator@?$basic_string@DU?$char_traits@D@std@@V?$allocator@D@2@@std@@QEBA?AV?$allocator@D@2@XZ
	?get_future@?$packaged_task@$$A6A?AVResponse@cpr@@XZ@std@@QEAA?AV?$future@VResponse@cpr@@@2@XZ
	?get_id@this_thread@std@@YA?AVid@thread@2@XZ
	?get_id@thread@std@@QEBA?AVid@12@XZ
	?hardware_concurrency@thread@std@@SAIXZ
	?has@Proxies@cpr@@QEBA_NAEBV?$basic_string@DU?$char_traits@D@std@@V?$allocator@D@2@@std@@@Z
	?has@ProxyAuthentication@cpr@@QEBA_NAEBV?$basic_string@DU?$char_traits@D@std@@V?$allocator@D@2@@std@@@Z
	?hasOverridenFilename@File@cpr@@QEBA_NXZ
	?headerUserFunction@util@cpr@@YA_KPEAD_K1PEBVHeaderCallback@2@@Z
	?insert@?$_Hash@V?$_Uset_traits@V?$basic_string@DU?$char_traits@D@std@@V?$allocator@D@2@@std@@V?$_Uhash_compare@V?$basic_string@DU?$char_traits@D@std@@V?$allocator@D@2@@std@@U?$hash@V?$basic_string@DU?$char_traits@D@std@@V?$allocator@D@2@@std@@@2@U?$equal_to@V?$basic_string@DU?$char_traits@D@std@@V?$allocator@D@2@@std@@@2@@2@V?$allocator@V?$basic_string@DU?$char_traits@D@std@@V?$allocator@D@2@@std@@@2@$0A@@std@@@std@@QEAA?AV?$_List_const_iterator@V?$_List_val@U?$_List_simple_types@V?$basic_string@DU?$char_traits@D@std@@V?$allocator@D@2@@std@@@std@@@std@@@2@V32@$$QEAV?$basic_string@DU?$char_traits@D@std@@V?$allocator@D@2@@2@@Z
	?insert@?$_Hash@V?$_Uset_traits@V?$basic_string@DU?$char_traits@D@std@@V?$allocator@D@2@@std@@V?$_Uhash_compare@V?$basic_string@DU?$char_traits@D@std@@V?$allocator@D@2@@std@@U?$hash@V?$basic_string@DU?$char_traits@D@std@@V?$allocator@D@2@@std@@@2@U?$equal_to@V?$basic_string@DU?$char_traits@D@std@@V?$allocator@D@2@@std@@@2@@2@V?$allocator@V?$basic_string@DU?$char_traits@D@std@@V?$allocator@D@2@@std@@@2@$0A@@std@@@std@@QEAAXV?$initializer_list@V?$basic_string@DU?$char_traits@D@std@@V?$allocator@D@2@@std@@@2@@Z
	?insert@?$_Tree@V?$_Tmap_traits@V?$basic_string@DU?$char_traits@D@std@@V?$allocator@D@2@@std@@V12@U?$less@V?$basic_string@DU?$char_traits@D@std@@V?$allocator@D@2@@std@@@2@V?$allocator@U?$pair@$$CBV?$basic_string@DU?$char_traits@D@std@@V?$allocator@D@2@@std@@V12@@std@@@2@$0A@@std@@@std@@QEAAXV?$initializer_list@U?$pair@$$CBV?$basic_string@DU?$char_traits@D@std@@V?$allocator@D@2@@std@@V12@@std@@@2@@Z
	?insert@?$_Tree@V?$_Tmap_traits@W4AcceptEncodingMethods@cpr@@V?$basic_string@DU?$char_traits@D@std@@V?$allocator@D@2@@std@@U?$less@W4AcceptEncodingMethods@cpr@@@4@V?$allocator@U?$pair@$$CBW4AcceptEncodingMethods@cpr@@V?$basic_string@DU?$char_traits@D@std@@V?$allocator@D@2@@std@@@std@@@4@$0A@@std@@@std@@QEAAXV?$initializer_list@U?$pair@$$CBW4AcceptEncodingMethods@cpr@@V?$basic_string@DU?$char_traits@D@std@@V?$allocator@D@2@@std@@@std@@@2@@Z
	?insert@?$basic_string@DU?$char_traits@D@std@@V?$allocator@D@2@@std@@QEAAAEAV12@_KQEBD0@Z
	?insert@?$basic_string@DU?$char_traits@D@std@@V?$allocator@D@2@@std@@QEAAAEAV12@_KQEBD@Z
	?intercept@MultiPerform@cpr@@AEAA?AV?$vector@VResponse@cpr@@V?$allocator@VResponse@cpr@@@std@@@std@@XZ
	?intercept@Session@cpr@@AEAA?AVResponse@2@XZ
	?isTrue@util@cpr@@YA_NAEBV?$basic_string@DU?$char_traits@D@std@@V?$allocator@D@2@@std@@@Z
	?join@thread@std@@QEAAXXZ
	?joinable@thread@std@@QEBA_NXZ
	?key_comp@?$_Tree@V?$_Tmap_traits@V?$basic_string@DU?$char_traits@D@std@@V?$allocator@D@2@@std@@V12@U?$less@V?$basic_string@DU?$char_traits@D@std@@V?$allocator@D@2@@std@@@2@V?$allocator@U?$pair@$$CBV?$basic_string@DU?$char_traits@D@std@@V?$allocator@D@2@@std@@V12@@std@@@2@$0A@@std@@@std@@QEBA?AU?$less@V?$basic_string@DU?$char_traits@D@std@@V?$allocator@D@2@@std@@@2@XZ
	?key_comp@?$_Tree@V?$_Tmap_traits@V?$basic_string@DU?$char_traits@D@std@@V?$allocator@D@2@@std@@V12@UCaseInsensitiveCompare@cpr@@V?$allocator@U?$pair@$$CBV?$basic_string@DU?$char_traits@D@std@@V?$allocator@D@2@@std@@V12@@std@@@2@$0A@@std@@@std@@QEBA?AUCaseInsensitiveCompare@cpr@@XZ
	?key_comp@?$_Tree@V?$_Tset_traits@GU?$less@G@std@@V?$allocator@G@2@$0A@@std@@@std@@QEBA?AU?$less@G@2@XZ
	?length@?$_Narrow_char_traits@DH@std@@SA_KQEBD@Z
	?length@?$basic_string@DU?$char_traits@D@std@@V?$allocator@D@2@@std@@QEBA_KXZ
	?load@?$_Atomic_storage@W4Status@ThreadPool@cpr@@$03@std@@QEBA?AW4Status@ThreadPool@cpr@@XZ
	?load@?$_Atomic_storage@_K$07@std@@QEBA_KXZ
	?load@?$_Atomic_storage@_N$00@std@@QEBA_NXZ
	?lock@_Mutex_base@std@@QEAAXXZ
	?makeDownloadRequest@Session@cpr@@AEAA?AVResponse@2@XZ
	?makeRequest@Session@cpr@@AEAA?AVResponse@2@XZ
	?make_error_code@std@@YA?AVerror_code@1@W4future_errc@1@@Z
	?max@?$numeric_limits@J@std@@SAJXZ
	?max@?$numeric_limits@_J@std@@SA_JXZ
	?max_load_factor@?$_Hash@V?$_Uset_traits@V?$basic_string@DU?$char_traits@D@std@@V?$allocator@D@2@@std@@V?$_Uhash_compare@V?$basic_string@DU?$char_traits@D@std@@V?$allocator@D@2@@std@@U?$hash@V?$basic_string@DU?$char_traits@D@std@@V?$allocator@D@2@@std@@@2@U?$equal_to@V?$basic_string@DU?$char_traits@D@std@@V?$allocator@D@2@@std@@@2@@2@V?$allocator@V?$basic_string@DU?$char_traits@D@std@@V?$allocator@D@2@@std@@@2@$0A@@std@@@std@@QEBAMXZ
	?max_size@?$_Default_allocator_traits@V?$allocator@D@std@@@std@@SA_KAEBV?$allocator@D@2@@Z
	?max_size@?$_Default_allocator_traits@V?$allocator@U?$_List_node@UThreadData@ThreadPool@cpr@@PEAX@std@@@std@@@std@@SA_KAEBV?$allocator@U?$_List_node@UThreadData@ThreadPool@cpr@@PEAX@std@@@2@@Z
	?max_size@?$_Default_allocator_traits@V?$allocator@U?$_List_node@V?$basic_string@DU?$char_traits@D@std@@V?$allocator@D@2@@std@@PEAX@std@@@std@@@std@@SA_KAEBV?$allocator@U?$_List_node@V?$basic_string@DU?$char_traits@D@std@@V?$allocator@D@2@@std@@PEAX@std@@@2@@Z
	?max_size@?$_Default_allocator_traits@V?$allocator@U?$_Tree_node@U?$pair@$$CBV?$basic_string@DU?$char_traits@D@std@@V?$allocator@D@2@@std@@V12@@std@@PEAX@std@@@std@@@std@@SA_KAEBV?$allocator@U?$_Tree_node@U?$pair@$$CBV?$basic_string@DU?$char_traits@D@std@@V?$allocator@D@2@@std@@V12@@std@@PEAX@std@@@2@@Z
	?max_size@?$_Default_allocator_traits@V?$allocator@U?$_Tree_node@U?$pair@$$CBV?$basic_string@DU?$char_traits@D@std@@V?$allocator@D@2@@std@@VEncodedAuthentication@cpr@@@std@@PEAX@std@@@std@@@std@@SA_KAEBV?$allocator@U?$_Tree_node@U?$pair@$$CBV?$basic_string@DU?$char_traits@D@std@@V?$allocator@D@2@@std@@VEncodedAuthentication@cpr@@@std@@PEAX@std@@@2@@Z
	?max_size@?$_Default_allocator_traits@V?$allocator@U?$_Tree_node@U?$pair@$$CBW4AcceptEncodingMethods@cpr@@V?$basic_string@DU?$char_traits@D@std@@V?$allocator@D@2@@std@@@std@@PEAX@std@@@std@@@std@@SA_KAEBV?$allocator@U?$_Tree_node@U?$pair@$$CBW4AcceptEncodingMethods@cpr@@V?$basic_string@DU?$char_traits@D@std@@V?$allocator@D@2@@std@@@std@@PEAX@std@@@2@@Z
	?max_size@?$_Default_allocator_traits@V?$allocator@U?$pair@V?$shared_ptr@VSession@cpr@@@std@@W4HttpMethod@MultiPerform@cpr@@@std@@@std@@@std@@SA_KAEBV?$allocator@U?$pair@V?$shared_ptr@VSession@cpr@@@std@@W4HttpMethod@MultiPerform@cpr@@@std@@@2@@Z
	?max_size@?$_Default_allocator_traits@V?$allocator@UFile@cpr@@@std@@@std@@SA_KAEBV?$allocator@UFile@cpr@@@2@@Z
	?max_size@?$_Default_allocator_traits@V?$allocator@UPair@cpr@@@std@@@std@@SA_KAEBV?$allocator@UPair@cpr@@@2@@Z
	?max_size@?$_Default_allocator_traits@V?$allocator@UParameter@cpr@@@std@@@std@@SA_KAEBV?$allocator@UParameter@cpr@@@2@@Z
	?max_size@?$_Default_allocator_traits@V?$allocator@UPart@cpr@@@std@@@std@@SA_KAEBV?$allocator@UPart@cpr@@@2@@Z
	?max_size@?$_Default_allocator_traits@V?$allocator@V?$_List_unchecked_const_iterator@V?$_List_val@U?$_List_simple_types@V?$basic_string@DU?$char_traits@D@std@@V?$allocator@D@2@@std@@@std@@@std@@U_Iterator_base0@2@@std@@@std@@@std@@SA_KAEBV?$allocator@V?$_List_unchecked_const_iterator@V?$_List_val@U?$_List_simple_types@V?$basic_string@DU?$char_traits@D@std@@V?$allocator@D@2@@std@@@std@@@std@@U_Iterator_base0@2@@std@@@2@@Z
	?max_size@?$_Default_allocator_traits@V?$allocator@V?$basic_string@DU?$char_traits@D@std@@V?$allocator@D@2@@std@@@std@@@std@@SA_KAEBV?$allocator@V?$basic_string@DU?$char_traits@D@std@@V?$allocator@D@2@@std@@@2@@Z
	?max_size@?$_Default_allocator_traits@V?$allocator@V?$function@$$A6AXXZ@std@@@std@@@std@@SA_KAEBV?$allocator@V?$function@$$A6AXXZ@std@@@2@@Z
	?max_size@?$_Default_allocator_traits@V?$allocator@V?$shared_ptr@VInterceptor@cpr@@@std@@@std@@@std@@SA_KAEBV?$allocator@V?$shared_ptr@VInterceptor@cpr@@@std@@@2@@Z
	?max_size@?$_Default_allocator_traits@V?$allocator@V?$shared_ptr@VInterceptorMulti@cpr@@@std@@@std@@@std@@SA_KAEBV?$allocator@V?$shared_ptr@VInterceptorMulti@cpr@@@std@@@2@@Z
	?max_size@?$_Default_allocator_traits@V?$allocator@VCertInfo@cpr@@@std@@@std@@SA_KAEBV?$allocator@VCertInfo@cpr@@@2@@Z
	?max_size@?$_Default_allocator_traits@V?$allocator@VCookie@cpr@@@std@@@std@@SA_KAEBV?$allocator@VCookie@cpr@@@2@@Z
	?max_size@?$_Default_allocator_traits@V?$allocator@VResolve@cpr@@@std@@@std@@SA_KAEBV?$allocator@VResolve@cpr@@@2@@Z
	?max_size@?$_Default_allocator_traits@V?$allocator@VResponse@cpr@@@std@@@std@@SA_KAEBV?$allocator@VResponse@cpr@@@2@@Z
	?max_size@?$_Hash_vec@V?$allocator@V?$_List_unchecked_const_iterator@V?$_List_val@U?$_List_simple_types@V?$basic_string@DU?$char_traits@D@std@@V?$allocator@D@2@@std@@@std@@@std@@U_Iterator_base0@2@@std@@@std@@@std@@QEBA_KXZ
	?max_size@?$_Tree@V?$_Tmap_traits@V?$basic_string@DU?$char_traits@D@std@@V?$allocator@D@2@@std@@V12@U?$less@V?$basic_string@DU?$char_traits@D@std@@V?$allocator@D@2@@std@@@2@V?$allocator@U?$pair@$$CBV?$basic_string@DU?$char_traits@D@std@@V?$allocator@D@2@@std@@V12@@std@@@2@$0A@@std@@@std@@QEBA_KXZ
	?max_size@?$_Tree@V?$_Tmap_traits@V?$basic_string@DU?$char_traits@D@std@@V?$allocator@D@2@@std@@V12@UCaseInsensitiveCompare@cpr@@V?$allocator@U?$pair@$$CBV?$basic_string@DU?$char_traits@D@std@@V?$allocator@D@2@@std@@V12@@std@@@2@$0A@@std@@@std@@QEBA_KXZ
	?max_size@?$_Tree@V?$_Tmap_traits@V?$basic_string@DU?$char_traits@D@std@@V?$allocator@D@2@@std@@VEncodedAuthentication@cpr@@U?$less@V?$basic_string@DU?$char_traits@D@std@@V?$allocator@D@2@@std@@@2@V?$allocator@U?$pair@$$CBV?$basic_string@DU?$char_traits@D@std@@V?$allocator@D@2@@std@@VEncodedAuthentication@cpr@@@std@@@2@$0A@@std@@@std@@QEBA_KXZ
	?max_size@?$_Tree@V?$_Tmap_traits@W4AcceptEncodingMethods@cpr@@V?$basic_string@DU?$char_traits@D@std@@V?$allocator@D@2@@std@@U?$less@W4AcceptEncodingMethods@cpr@@@4@V?$allocator@U?$pair@$$CBW4AcceptEncodingMethods@cpr@@V?$basic_string@DU?$char_traits@D@std@@V?$allocator@D@2@@std@@@std@@@4@$0A@@std@@@std@@QEBA_KXZ
	?max_size@?$basic_string@DU?$char_traits@D@std@@V?$allocator@D@2@@std@@QEBA_KXZ
	?max_size@?$deque@V?$function@$$A6AXXZ@std@@V?$allocator@V?$function@$$A6AXXZ@std@@@2@@std@@QEBA_KXZ
	?max_size@?$deque@V?$shared_ptr@VInterceptor@cpr@@@std@@V?$allocator@V?$shared_ptr@VInterceptor@cpr@@@std@@@2@@std@@QEBA_KXZ
	?max_size@?$deque@V?$shared_ptr@VInterceptorMulti@cpr@@@std@@V?$allocator@V?$shared_ptr@VInterceptorMulti@cpr@@@std@@@2@@std@@QEBA_KXZ
	?max_size@?$list@UThreadData@ThreadPool@cpr@@V?$allocator@UThreadData@ThreadPool@cpr@@@std@@@std@@QEBA_KXZ
	?max_size@?$list@V?$basic_string@DU?$char_traits@D@std@@V?$allocator@D@2@@std@@V?$allocator@V?$basic_string@DU?$char_traits@D@std@@V?$allocator@D@2@@std@@@2@@std@@QEBA_KXZ
	?max_size@?$vector@U?$pair@V?$shared_ptr@VSession@cpr@@@std@@W4HttpMethod@MultiPerform@cpr@@@std@@V?$allocator@U?$pair@V?$shared_ptr@VSession@cpr@@@std@@W4HttpMethod@MultiPerform@cpr@@@std@@@2@@std@@QEBA_KXZ
	?max_size@?$vector@UFile@cpr@@V?$allocator@UFile@cpr@@@std@@@std@@QEBA_KXZ
	?max_size@?$vector@UPair@cpr@@V?$allocator@UPair@cpr@@@std@@@std@@QEBA_KXZ
	?max_size@?$vector@UParameter@cpr@@V?$allocator@UParameter@cpr@@@std@@@std@@QEBA_KXZ
	?max_size@?$vector@UPart@cpr@@V?$allocator@UPart@cpr@@@std@@@std@@QEBA_KXZ
	?max_size@?$vector@V?$basic_string@DU?$char_traits@D@std@@V?$allocator@D@2@@std@@V?$allocator@V?$basic_string@DU?$char_traits@D@std@@V?$allocator@D@2@@std@@@2@@std@@QEBA_KXZ
	?max_size@?$vector@VCertInfo@cpr@@V?$allocator@VCertInfo@cpr@@@std@@@std@@QEBA_KXZ
	?max_size@?$vector@VCookie@cpr@@V?$allocator@VCookie@cpr@@@std@@@std@@QEBA_KXZ
	?max_size@?$vector@VResolve@cpr@@V?$allocator@VResolve@cpr@@@std@@@std@@QEBA_KXZ
	?max_size@?$vector@VResponse@cpr@@V?$allocator@VResponse@cpr@@@std@@@std@@QEBA_KXZ
	?message@_Future_error_category2@std@@UEBA?AV?$basic_string@DU?$char_traits@D@std@@V?$allocator@D@2@@2@H@Z
	?min@?$numeric_limits@J@std@@SAJXZ
	?move@?$_Char_traits@DH@std@@SAPEADQEADQEBD_K@Z
	?mutex@?$unique_lock@Vmutex@std@@@std@@QEBAPEAV02@XZ
	?name@_Future_error_category2@std@@UEBAPEBDXZ
	?not_eof@?$_Narrow_char_traits@DH@std@@SAHH@Z
	?notify_all@condition_variable@std@@QEAAXXZ
	?notify_one@condition_variable@std@@QEAAXXZ
	?now@steady_clock@chrono@std@@SA?AV?$time_point@Usteady_clock@chrono@std@@V?$duration@_JU?$ratio@$00$0DLJKMKAA@@std@@@23@@23@XZ
	?overflow@?$basic_stringbuf@DU?$char_traits@D@std@@V?$allocator@D@2@@std@@MEAAHH@Z
	?parseCookies@util@cpr@@YA?AVCookies@2@PEAUcurl_slist@@@Z
	?parseHeader@util@cpr@@YA?AV?$map@V?$basic_string@DU?$char_traits@D@std@@V?$allocator@D@2@@std@@V12@UCaseInsensitiveCompare@cpr@@V?$allocator@U?$pair@$$CBV?$basic_string@DU?$char_traits@D@std@@V?$allocator@D@2@@std@@V12@@std@@@2@@std@@AEBV?$basic_string@DU?$char_traits@D@std@@V?$allocator@D@2@@4@PEAV54@1@Z
	?pbackfail@?$basic_stringbuf@DU?$char_traits@D@std@@V?$allocator@D@2@@std@@MEAAHH@Z
	?pointer_to@?$pointer_traits@PEAD@std@@SAPEADAEAD@Z
	?pointer_to@?$pointer_traits@PEAUThreadData@ThreadPool@cpr@@@std@@SAPEAUThreadData@ThreadPool@cpr@@AEAU345@@Z
	?pop@?$queue@V?$function@$$A6AXXZ@std@@V?$deque@V?$function@$$A6AXXZ@std@@V?$allocator@V?$function@$$A6AXXZ@std@@@2@@2@@std@@QEAAXXZ
	?pop@?$queue@V?$shared_ptr@VInterceptor@cpr@@@std@@V?$deque@V?$shared_ptr@VInterceptor@cpr@@@std@@V?$allocator@V?$shared_ptr@VInterceptor@cpr@@@std@@@2@@2@@std@@QEAAXXZ
	?pop@?$queue@V?$shared_ptr@VInterceptorMulti@cpr@@@std@@V?$deque@V?$shared_ptr@VInterceptorMulti@cpr@@@std@@V?$allocator@V?$shared_ptr@VInterceptorMulti@cpr@@@std@@@2@@2@@std@@QEAAXXZ
	?pop_back@?$deque@V?$function@$$A6AXXZ@std@@V?$allocator@V?$function@$$A6AXXZ@std@@@2@@std@@QEAAXXZ
	?pop_back@?$deque@V?$shared_ptr@VInterceptor@cpr@@@std@@V?$allocator@V?$shared_ptr@VInterceptor@cpr@@@std@@@2@@std@@QEAAXXZ
	?pop_back@?$deque@V?$shared_ptr@VInterceptorMulti@cpr@@@std@@V?$allocator@V?$shared_ptr@VInterceptorMulti@cpr@@@std@@@2@@std@@QEAAXXZ
	?pop_back@?$vector@UFile@cpr@@V?$allocator@UFile@cpr@@@std@@@std@@QEAAXXZ
	?pop_back@?$vector@V?$basic_string@DU?$char_traits@D@std@@V?$allocator@D@2@@std@@V?$allocator@V?$basic_string@DU?$char_traits@D@std@@V?$allocator@D@2@@std@@@2@@std@@QEAAXXZ
	?pop_back@?$vector@VCookie@cpr@@V?$allocator@VCookie@cpr@@@std@@@std@@QEAAXXZ
	?pop_back@CertInfo@cpr@@QEAAXXZ
	?pop_back@Cookies@cpr@@QEAAXXZ
	?pop_back@Files@cpr@@QEAAXXZ
	?pop_front@?$deque@V?$function@$$A6AXXZ@std@@V?$allocator@V?$function@$$A6AXXZ@std@@@2@@std@@QEAAXXZ
	?pop_front@?$deque@V?$shared_ptr@VInterceptor@cpr@@@std@@V?$allocator@V?$shared_ptr@VInterceptor@cpr@@@std@@@2@@std@@QEAAXXZ
	?pop_front@?$deque@V?$shared_ptr@VInterceptorMulti@cpr@@@std@@V?$allocator@V?$shared_ptr@VInterceptorMulti@cpr@@@std@@@2@@std@@QEAAXXZ
	?prepareCommon@Session@cpr@@AEAAXXZ
	?prepareCommonDownload@Session@cpr@@AEAAXXZ
	?proceed@Interceptor@cpr@@KA?AVResponse@2@AEAVSession@2@@Z
	?proceed@Interceptor@cpr@@KA?AVResponse@2@AEAVSession@2@W4ProceedHttpMethod@12@@Z
	?proceed@Interceptor@cpr@@KA?AVResponse@2@AEAVSession@2@W4ProceedHttpMethod@12@AEAV?$basic_ofstream@DU?$char_traits@D@std@@@std@@@Z
	?proceed@Interceptor@cpr@@KA?AVResponse@2@AEAVSession@2@W4ProceedHttpMethod@12@AEBVWriteCallback@2@@Z
	?proceed@InterceptorMulti@cpr@@KA?AV?$vector@VResponse@cpr@@V?$allocator@VResponse@cpr@@@std@@@std@@AEAVMultiPerform@2@@Z
	?proceed@MultiPerform@cpr@@AEAA?AV?$vector@VResponse@cpr@@V?$allocator@VResponse@cpr@@@std@@@std@@XZ
	?proceed@Session@cpr@@AEAA?AVResponse@2@XZ
	?push@?$queue@V?$shared_ptr@VInterceptor@cpr@@@std@@V?$deque@V?$shared_ptr@VInterceptor@cpr@@@std@@V?$allocator@V?$shared_ptr@VInterceptor@cpr@@@std@@@2@@2@@std@@QEAAXAEBV?$shared_ptr@VInterceptor@cpr@@@2@@Z
	?push@?$queue@V?$shared_ptr@VInterceptorMulti@cpr@@@std@@V?$deque@V?$shared_ptr@VInterceptorMulti@cpr@@@std@@V?$allocator@V?$shared_ptr@VInterceptorMulti@cpr@@@std@@@2@@2@@std@@QEAAXAEBV?$shared_ptr@VInterceptorMulti@cpr@@@2@@Z
	?push_back@?$basic_string@DU?$char_traits@D@std@@V?$allocator@D@2@@std@@QEAAXD@Z
	?push_back@?$deque@V?$shared_ptr@VInterceptor@cpr@@@std@@V?$allocator@V?$shared_ptr@VInterceptor@cpr@@@std@@@2@@std@@QEAAXAEBV?$shared_ptr@VInterceptor@cpr@@@2@@Z
	?push_back@?$deque@V?$shared_ptr@VInterceptorMulti@cpr@@@std@@V?$allocator@V?$shared_ptr@VInterceptorMulti@cpr@@@std@@@2@@std@@QEAAXAEBV?$shared_ptr@VInterceptorMulti@cpr@@@2@@Z
	?push_back@?$vector@UFile@cpr@@V?$allocator@UFile@cpr@@@std@@@std@@QEAAXAEBUFile@cpr@@@Z
	?push_back@?$vector@UPair@cpr@@V?$allocator@UPair@cpr@@@std@@@std@@QEAAX$$QEAUPair@cpr@@@Z
	?push_back@?$vector@UPair@cpr@@V?$allocator@UPair@cpr@@@std@@@std@@QEAAXAEBUPair@cpr@@@Z
	?push_back@?$vector@UParameter@cpr@@V?$allocator@UParameter@cpr@@@std@@@std@@QEAAX$$QEAUParameter@cpr@@@Z
	?push_back@?$vector@UParameter@cpr@@V?$allocator@UParameter@cpr@@@std@@@std@@QEAAXAEBUParameter@cpr@@@Z
	?push_back@?$vector@V?$basic_string@DU?$char_traits@D@std@@V?$allocator@D@2@@std@@V?$allocator@V?$basic_string@DU?$char_traits@D@std@@V?$allocator@D@2@@std@@@2@@std@@QEAAXAEBV?$basic_string@DU?$char_traits@D@std@@V?$allocator@D@2@@2@@Z
	?push_back@?$vector@VCookie@cpr@@V?$allocator@VCookie@cpr@@@std@@@std@@QEAAXAEBVCookie@cpr@@@Z
	?push_back@?$vector@VResponse@cpr@@V?$allocator@VResponse@cpr@@@std@@@std@@QEAAX$$QEAVResponse@cpr@@@Z
	?push_back@?$vector@VResponse@cpr@@V?$allocator@VResponse@cpr@@@std@@@std@@QEAAXAEBVResponse@cpr@@@Z
	?push_back@CertInfo@cpr@@QEAAXAEBV?$basic_string@DU?$char_traits@D@std@@V?$allocator@D@2@@std@@@Z
	?push_back@Cookies@cpr@@QEAAXAEBVCookie@2@@Z
	?push_back@Files@cpr@@QEAAXAEBUFile@2@@Z
	?readUserFunction@util@cpr@@YA_KPEAD_K1PEBVReadCallback@2@@Z
	?release@?$unique_lock@Vmutex@std@@@std@@QEAAPEAVmutex@2@XZ
	?release@?$unique_ptr@V_Facet_base@std@@U?$default_delete@V_Facet_base@std@@@2@@std@@QEAAPEAV_Facet_base@2@XZ
	?reserve@?$basic_string@DU?$char_traits@D@std@@V?$allocator@D@2@@std@@QEAAX_K@Z
	?reset@?$_Optional_destruct_base@V?$reference_wrapper@VProgressCallback@cpr@@@std@@$00@std@@QEAAXXZ
	?resize@?$basic_string@DU?$char_traits@D@std@@V?$allocator@D@2@@std@@QEAAX_KD@Z
	?rethrow_exception@std@@YAXVexception_ptr@1@@Z
	?secureStringClear@util@cpr@@YAXAEAV?$basic_string@DU?$char_traits@D@std@@V?$allocator@D@2@@std@@@Z
	?seekoff@?$basic_stringbuf@DU?$char_traits@D@std@@V?$allocator@D@2@@std@@MEAA?AV?$fpos@U_Mbstatet@@@2@_JHH@Z
	?seekpos@?$basic_stringbuf@DU?$char_traits@D@std@@V?$allocator@D@2@@std@@MEAA?AV?$fpos@U_Mbstatet@@@2@V32@H@Z
	?select_on_container_copy_construction@?$_Default_allocator_traits@V?$allocator@D@std@@@std@@SA?AV?$allocator@D@2@AEBV32@@Z
	?select_on_container_copy_construction@?$_Default_allocator_traits@V?$allocator@U?$_Tree_node@GPEAX@std@@@std@@@std@@SA?AV?$allocator@U?$_Tree_node@GPEAX@std@@@2@AEBV32@@Z
	?select_on_container_copy_construction@?$_Default_allocator_traits@V?$allocator@U?$_Tree_node@U?$pair@$$CBV?$basic_string@DU?$char_traits@D@std@@V?$allocator@D@2@@std@@V12@@std@@PEAX@std@@@std@@@std@@SA?AV?$allocator@U?$_Tree_node@U?$pair@$$CBV?$basic_string@DU?$char_traits@D@std@@V?$allocator@D@2@@std@@V12@@std@@PEAX@std@@@2@AEBV32@@Z
	?select_on_container_copy_construction@?$_Default_allocator_traits@V?$allocator@UFile@cpr@@@std@@@std@@SA?AV?$allocator@UFile@cpr@@@2@AEBV32@@Z
	?select_on_container_copy_construction@?$_Default_allocator_traits@V?$allocator@V?$basic_string@DU?$char_traits@D@std@@V?$allocator@D@2@@std@@@std@@@std@@SA?AV?$allocator@V?$basic_string@DU?$char_traits@D@std@@V?$allocator@D@2@@std@@@2@AEBV32@@Z
	?select_on_container_copy_construction@?$_Default_allocator_traits@V?$allocator@VCookie@cpr@@@std@@@std@@SA?AV?$allocator@VCookie@cpr@@@2@AEBV32@@Z
	?shared_from_this@?$enable_shared_from_this@VSession@cpr@@@std@@QEAA?AV?$shared_ptr@VSession@cpr@@@2@XZ
	?size@?$_Hash@V?$_Uset_traits@V?$basic_string@DU?$char_traits@D@std@@V?$allocator@D@2@@std@@V?$_Uhash_compare@V?$basic_string@DU?$char_traits@D@std@@V?$allocator@D@2@@std@@U?$hash@V?$basic_string@DU?$char_traits@D@std@@V?$allocator@D@2@@std@@@2@U?$equal_to@V?$basic_string@DU?$char_traits@D@std@@V?$allocator@D@2@@std@@@2@@2@V?$allocator@V?$basic_string@DU?$char_traits@D@std@@V?$allocator@D@2@@std@@@2@$0A@@std@@@std@@QEBA_KXZ
	?size@?$_Hash_vec@V?$allocator@V?$_List_unchecked_const_iterator@V?$_List_val@U?$_List_simple_types@V?$basic_string@DU?$char_traits@D@std@@V?$allocator@D@2@@std@@@std@@@std@@U_Iterator_base0@2@@std@@@std@@@std@@QEBA_KXZ
	?size@?$basic_string@DU?$char_traits@D@std@@V?$allocator@D@2@@std@@QEBA_KXZ
	?size@?$initializer_list@UPair@cpr@@@std@@QEBA_KXZ
	?size@?$initializer_list@UParameter@cpr@@@std@@QEBA_KXZ
	?size@?$initializer_list@UPart@cpr@@@std@@QEBA_KXZ
	?size@?$initializer_list@VResolve@cpr@@@std@@QEBA_KXZ
	?size@?$list@V?$basic_string@DU?$char_traits@D@std@@V?$allocator@D@2@@std@@V?$allocator@V?$basic_string@DU?$char_traits@D@std@@V?$allocator@D@2@@std@@@2@@std@@QEBA_KXZ
	?size@?$vector@V?$basic_string@DU?$char_traits@D@std@@V?$allocator@D@2@@std@@V?$allocator@V?$basic_string@DU?$char_traits@D@std@@V?$allocator@D@2@@std@@@2@@std@@QEBA_KXZ
	?split@util@cpr@@YA?AV?$vector@V?$basic_string@DU?$char_traits@D@std@@V?$allocator@D@2@@std@@V?$allocator@V?$basic_string@DU?$char_traits@D@std@@V?$allocator@D@2@@std@@@2@@std@@AEBV?$basic_string@DU?$char_traits@D@std@@V?$allocator@D@2@@4@D@Z
	?store@?$_Atomic_storage@W4Status@ThreadPool@cpr@@$03@std@@QEAAXW4Status@ThreadPool@cpr@@@Z
	?store@?$_Atomic_storage@_K$07@std@@QEAAX_K@Z
	?stoul@std@@YAKAEBV?$basic_string@DU?$char_traits@D@std@@V?$allocator@D@2@@1@PEA_KH@Z
	?str@?$StringHolder@VBody@cpr@@@cpr@@QEAAAEBV?$basic_string@DU?$char_traits@D@std@@V?$allocator@D@2@@std@@XZ
	?str@?$StringHolder@VBody@cpr@@@cpr@@QEBAAEBV?$basic_string@DU?$char_traits@D@std@@V?$allocator@D@2@@std@@XZ
	?str@?$StringHolder@VInterface@cpr@@@cpr@@QEBAAEBV?$basic_string@DU?$char_traits@D@std@@V?$allocator@D@2@@std@@XZ
	?str@?$StringHolder@VUrl@cpr@@@cpr@@QEAAAEBV?$basic_string@DU?$char_traits@D@std@@V?$allocator@D@2@@std@@XZ
	?str@?$basic_stringbuf@DU?$char_traits@D@std@@V?$allocator@D@2@@std@@QEBA?AV?$basic_string@DU?$char_traits@D@std@@V?$allocator@D@2@@2@XZ
	?str@?$basic_stringstream@DU?$char_traits@D@std@@V?$allocator@D@2@@std@@QEBA?AV?$basic_string@DU?$char_traits@D@std@@V?$allocator@D@2@@2@XZ
	?str@MultiRange@cpr@@QEBA?BV?$basic_string@DU?$char_traits@D@std@@V?$allocator@D@2@@std@@XZ
	?str@Range@cpr@@QEBA?BV?$basic_string@DU?$char_traits@D@std@@V?$allocator@D@2@@std@@XZ
	?substr@?$basic_string@DU?$char_traits@D@std@@V?$allocator@D@2@@std@@QEBA?AV12@_K0@Z
	?swap@?$function@$$A6AXW4InfoType@DebugCallback@cpr@@V?$basic_string@DU?$char_traits@D@std@@V?$allocator@D@2@@std@@_J@Z@std@@QEAAXAEAV12@@Z
	?swap@?$function@$$A6A_NPEADAEA_K_J@Z@std@@QEAAXAEAV12@@Z
	?swap@?$function@$$A6A_NV?$basic_string@DU?$char_traits@D@std@@V?$allocator@D@2@@std@@_J@Z@std@@QEAAXAEAV12@@Z
	?swap@?$function@$$A6A_N_J0000@Z@std@@QEAAXAEAV12@@Z
	?swap@?$shared_ptr@U?$atomic@_N@std@@@std@@QEAAXAEAV12@@Z
	?swap@?$shared_ptr@UCurlHolder@cpr@@@std@@QEAAXAEAV12@@Z
	?swap@?$shared_ptr@VSession@cpr@@@std@@QEAAXAEAV12@@Z
	?swap@?$shared_ptr@Vthread@std@@@std@@QEAAXAEAV12@@Z
	?time_since_epoch@?$time_point@Usteady_clock@chrono@std@@V?$duration@_JU?$ratio@$00$0DLJKMKAA@@std@@@23@@chrono@std@@QEBA?AV?$duration@_JU?$ratio@$00$0DLJKMKAA@@std@@@23@XZ
	?time_since_epoch@?$time_point@Usystem_clock@chrono@std@@V?$duration@_JU?$ratio@$00$0JIJGIA@@std@@@23@@chrono@std@@QEBA?AV?$duration@_JU?$ratio@$00$0JIJGIA@@std@@@23@XZ
	?to_char_type@?$_Narrow_char_traits@DH@std@@SADH@Z
	?to_int_type@?$_Narrow_char_traits@DH@std@@SAHD@Z
	?to_string@std@@YA?AV?$basic_string@DU?$char_traits@D@std@@V?$allocator@D@2@@1@H@Z
	?to_string@std@@YA?AV?$basic_string@DU?$char_traits@D@std@@V?$allocator@D@2@@1@_J@Z
	?to_time_t@system_clock@chrono@std@@SA_JAEBV?$time_point@Usystem_clock@chrono@std@@V?$duration@_JU?$ratio@$00$0JIJGIA@@std@@@23@@23@@Z
	?underflow@?$basic_stringbuf@DU?$char_traits@D@std@@V?$allocator@D@2@@std@@MEAAHXZ
	?unlock@_Mutex_base@std@@QEAAXXZ
	?urlDecode@CurlHolder@cpr@@QEBA?AV?$basic_string@DU?$char_traits@D@std@@V?$allocator@D@2@@std@@AEBV34@@Z
	?urlDecode@util@cpr@@YA?AV?$basic_string@DU?$char_traits@D@std@@V?$allocator@D@2@@std@@AEBV34@@Z
	?urlEncode@CurlHolder@cpr@@QEBA?AV?$basic_string@DU?$char_traits@D@std@@V?$allocator@D@2@@std@@AEBV34@@Z
	?urlEncode@util@cpr@@YA?AV?$basic_string@DU?$char_traits@D@std@@V?$allocator@D@2@@std@@AEBV34@@Z
	?valid@?$_State_manager@VResponse@cpr@@@std@@QEBA_NXZ
	?value@error_code@std@@QEBAHXZ
	?value@error_condition@std@@QEBAHXZ
	?wait@condition_variable@std@@QEAAXAEAV?$unique_lock@Vmutex@std@@@2@@Z
	?what@bad_weak_ptr@std@@UEBAPEBDXZ
	?what@exception@std@@UEBAPEBDXZ
	?what@future_error@std@@UEBAPEBDXZ
	?writeFileFunction@util@cpr@@YA_KPEAD_K1PEAV?$basic_ofstream@DU?$char_traits@D@std@@@std@@@Z
	?writeFunction@util@cpr@@YA_KPEAD_K1PEAV?$basic_string@DU?$char_traits@D@std@@V?$allocator@D@2@@std@@@Z
	?writeUserFunction@util@cpr@@YA_KPEAD_K1PEBVWriteCallback@2@@Z
	?yield@this_thread@std@@YAXXZ
	RtlSecureZeroMemory
	wmemcpy
